
_sh：     文件格式 elf64-littleriscv


Disassembly of section .text:

0000000000000000 <getcmd>:
getcmd():
/home/one/xv6-labs-2020/user/sh.c:136
       0:	1101                	addi	sp,sp,-32
       2:	ec06                	sd	ra,24(sp)
       4:	e822                	sd	s0,16(sp)
       6:	e426                	sd	s1,8(sp)
       8:	e04a                	sd	s2,0(sp)
       a:	1000                	addi	s0,sp,32
       c:	84aa                	mv	s1,a0
       e:	892e                	mv	s2,a1
/home/one/xv6-labs-2020/user/sh.c:137
      10:	00001597          	auipc	a1,0x1
      14:	32858593          	addi	a1,a1,808 # 1338 <malloc+0x11a>
      18:	4509                	li	a0,2
      1a:	00001097          	auipc	ra,0x1
      1e:	116080e7          	jalr	278(ra) # 1130 <fprintf>
/home/one/xv6-labs-2020/user/sh.c:138
      22:	864a                	mv	a2,s2
      24:	4581                	li	a1,0
      26:	8526                	mv	a0,s1
      28:	00001097          	auipc	ra,0x1
      2c:	baa080e7          	jalr	-1110(ra) # bd2 <memset>
/home/one/xv6-labs-2020/user/sh.c:139
      30:	85ca                	mv	a1,s2
      32:	8526                	mv	a0,s1
      34:	00001097          	auipc	ra,0x1
      38:	bee080e7          	jalr	-1042(ra) # c22 <gets>
/home/one/xv6-labs-2020/user/sh.c:140
      3c:	0004c503          	lbu	a0,0(s1)
      40:	00153513          	seqz	a0,a0
/home/one/xv6-labs-2020/user/sh.c:143
      44:	40a00533          	neg	a0,a0
      48:	60e2                	ld	ra,24(sp)
      4a:	6442                	ld	s0,16(sp)
      4c:	64a2                	ld	s1,8(sp)
      4e:	6902                	ld	s2,0(sp)
      50:	6105                	addi	sp,sp,32
      52:	8082                	ret

0000000000000054 <panic>:
panic():
/home/one/xv6-labs-2020/user/sh.c:177
      54:	1141                	addi	sp,sp,-16
      56:	e406                	sd	ra,8(sp)
      58:	e022                	sd	s0,0(sp)
      5a:	0800                	addi	s0,sp,16
/home/one/xv6-labs-2020/user/sh.c:178
      5c:	862a                	mv	a2,a0
      5e:	00001597          	auipc	a1,0x1
      62:	2e258593          	addi	a1,a1,738 # 1340 <malloc+0x122>
      66:	4509                	li	a0,2
      68:	00001097          	auipc	ra,0x1
      6c:	0c8080e7          	jalr	200(ra) # 1130 <fprintf>
/home/one/xv6-labs-2020/user/sh.c:179
      70:	4505                	li	a0,1
      72:	00001097          	auipc	ra,0x1
      76:	d76080e7          	jalr	-650(ra) # de8 <exit>

000000000000007a <fork1>:
fork1():
/home/one/xv6-labs-2020/user/sh.c:184
      7a:	1141                	addi	sp,sp,-16
      7c:	e406                	sd	ra,8(sp)
      7e:	e022                	sd	s0,0(sp)
      80:	0800                	addi	s0,sp,16
/home/one/xv6-labs-2020/user/sh.c:187
      82:	00001097          	auipc	ra,0x1
      86:	d5e080e7          	jalr	-674(ra) # de0 <fork>
/home/one/xv6-labs-2020/user/sh.c:188
      8a:	57fd                	li	a5,-1
      8c:	00f50663          	beq	a0,a5,98 <fork1+0x1e>
/home/one/xv6-labs-2020/user/sh.c:191
      90:	60a2                	ld	ra,8(sp)
      92:	6402                	ld	s0,0(sp)
      94:	0141                	addi	sp,sp,16
      96:	8082                	ret
/home/one/xv6-labs-2020/user/sh.c:189
      98:	00001517          	auipc	a0,0x1
      9c:	2b050513          	addi	a0,a0,688 # 1348 <malloc+0x12a>
      a0:	00000097          	auipc	ra,0x0
      a4:	fb4080e7          	jalr	-76(ra) # 54 <panic>

00000000000000a8 <runcmd>:
runcmd():
/home/one/xv6-labs-2020/user/sh.c:59
      a8:	7179                	addi	sp,sp,-48
      aa:	f406                	sd	ra,40(sp)
      ac:	f022                	sd	s0,32(sp)
      ae:	ec26                	sd	s1,24(sp)
      b0:	1800                	addi	s0,sp,48
/home/one/xv6-labs-2020/user/sh.c:67
      b2:	c10d                	beqz	a0,d4 <runcmd+0x2c>
      b4:	84aa                	mv	s1,a0
/home/one/xv6-labs-2020/user/sh.c:70
      b6:	4118                	lw	a4,0(a0)
      b8:	4795                	li	a5,5
      ba:	02e7e263          	bltu	a5,a4,de <runcmd+0x36>
      be:	00056783          	lwu	a5,0(a0)
      c2:	078a                	slli	a5,a5,0x2
      c4:	00001717          	auipc	a4,0x1
      c8:	24470713          	addi	a4,a4,580 # 1308 <malloc+0xea>
      cc:	97ba                	add	a5,a5,a4
      ce:	439c                	lw	a5,0(a5)
      d0:	97ba                	add	a5,a5,a4
      d2:	8782                	jr	a5
/home/one/xv6-labs-2020/user/sh.c:68
      d4:	4505                	li	a0,1
      d6:	00001097          	auipc	ra,0x1
      da:	d12080e7          	jalr	-750(ra) # de8 <exit>
/home/one/xv6-labs-2020/user/sh.c:72
      de:	00001517          	auipc	a0,0x1
      e2:	27250513          	addi	a0,a0,626 # 1350 <malloc+0x132>
      e6:	00000097          	auipc	ra,0x0
      ea:	f6e080e7          	jalr	-146(ra) # 54 <panic>
/home/one/xv6-labs-2020/user/sh.c:76
      ee:	6508                	ld	a0,8(a0)
      f0:	c515                	beqz	a0,11c <runcmd+0x74>
/home/one/xv6-labs-2020/user/sh.c:79
      f2:	00848593          	addi	a1,s1,8
      f6:	00001097          	auipc	ra,0x1
      fa:	d2a080e7          	jalr	-726(ra) # e20 <exec>
/home/one/xv6-labs-2020/user/sh.c:80
      fe:	6490                	ld	a2,8(s1)
     100:	00001597          	auipc	a1,0x1
     104:	25858593          	addi	a1,a1,600 # 1358 <malloc+0x13a>
     108:	4509                	li	a0,2
     10a:	00001097          	auipc	ra,0x1
     10e:	026080e7          	jalr	38(ra) # 1130 <fprintf>
/home/one/xv6-labs-2020/user/sh.c:131
     112:	4501                	li	a0,0
     114:	00001097          	auipc	ra,0x1
     118:	cd4080e7          	jalr	-812(ra) # de8 <exit>
/home/one/xv6-labs-2020/user/sh.c:77
     11c:	4505                	li	a0,1
     11e:	00001097          	auipc	ra,0x1
     122:	cca080e7          	jalr	-822(ra) # de8 <exit>
/home/one/xv6-labs-2020/user/sh.c:85
     126:	5148                	lw	a0,36(a0)
     128:	00001097          	auipc	ra,0x1
     12c:	ce8080e7          	jalr	-792(ra) # e10 <close>
/home/one/xv6-labs-2020/user/sh.c:86
     130:	508c                	lw	a1,32(s1)
     132:	6888                	ld	a0,16(s1)
     134:	00001097          	auipc	ra,0x1
     138:	cf4080e7          	jalr	-780(ra) # e28 <open>
     13c:	00054763          	bltz	a0,14a <runcmd+0xa2>
/home/one/xv6-labs-2020/user/sh.c:90
     140:	6488                	ld	a0,8(s1)
     142:	00000097          	auipc	ra,0x0
     146:	f66080e7          	jalr	-154(ra) # a8 <runcmd>
/home/one/xv6-labs-2020/user/sh.c:87
     14a:	6890                	ld	a2,16(s1)
     14c:	00001597          	auipc	a1,0x1
     150:	21c58593          	addi	a1,a1,540 # 1368 <malloc+0x14a>
     154:	4509                	li	a0,2
     156:	00001097          	auipc	ra,0x1
     15a:	fda080e7          	jalr	-38(ra) # 1130 <fprintf>
/home/one/xv6-labs-2020/user/sh.c:88
     15e:	4505                	li	a0,1
     160:	00001097          	auipc	ra,0x1
     164:	c88080e7          	jalr	-888(ra) # de8 <exit>
/home/one/xv6-labs-2020/user/sh.c:95
     168:	00000097          	auipc	ra,0x0
     16c:	f12080e7          	jalr	-238(ra) # 7a <fork1>
     170:	c919                	beqz	a0,186 <runcmd+0xde>
/home/one/xv6-labs-2020/user/sh.c:97
     172:	4501                	li	a0,0
     174:	00001097          	auipc	ra,0x1
     178:	c7c080e7          	jalr	-900(ra) # df0 <wait>
/home/one/xv6-labs-2020/user/sh.c:98
     17c:	6888                	ld	a0,16(s1)
     17e:	00000097          	auipc	ra,0x0
     182:	f2a080e7          	jalr	-214(ra) # a8 <runcmd>
/home/one/xv6-labs-2020/user/sh.c:96
     186:	6488                	ld	a0,8(s1)
     188:	00000097          	auipc	ra,0x0
     18c:	f20080e7          	jalr	-224(ra) # a8 <runcmd>
/home/one/xv6-labs-2020/user/sh.c:103
     190:	fd840513          	addi	a0,s0,-40
     194:	00001097          	auipc	ra,0x1
     198:	c64080e7          	jalr	-924(ra) # df8 <pipe>
     19c:	04054363          	bltz	a0,1e2 <runcmd+0x13a>
/home/one/xv6-labs-2020/user/sh.c:105
     1a0:	00000097          	auipc	ra,0x0
     1a4:	eda080e7          	jalr	-294(ra) # 7a <fork1>
     1a8:	c529                	beqz	a0,1f2 <runcmd+0x14a>
/home/one/xv6-labs-2020/user/sh.c:112
     1aa:	00000097          	auipc	ra,0x0
     1ae:	ed0080e7          	jalr	-304(ra) # 7a <fork1>
     1b2:	cd25                	beqz	a0,22a <runcmd+0x182>
/home/one/xv6-labs-2020/user/sh.c:119
     1b4:	fd842503          	lw	a0,-40(s0)
     1b8:	00001097          	auipc	ra,0x1
     1bc:	c58080e7          	jalr	-936(ra) # e10 <close>
/home/one/xv6-labs-2020/user/sh.c:120
     1c0:	fdc42503          	lw	a0,-36(s0)
     1c4:	00001097          	auipc	ra,0x1
     1c8:	c4c080e7          	jalr	-948(ra) # e10 <close>
/home/one/xv6-labs-2020/user/sh.c:121
     1cc:	4501                	li	a0,0
     1ce:	00001097          	auipc	ra,0x1
     1d2:	c22080e7          	jalr	-990(ra) # df0 <wait>
/home/one/xv6-labs-2020/user/sh.c:122
     1d6:	4501                	li	a0,0
     1d8:	00001097          	auipc	ra,0x1
     1dc:	c18080e7          	jalr	-1000(ra) # df0 <wait>
/home/one/xv6-labs-2020/user/sh.c:123
     1e0:	bf0d                	j	112 <runcmd+0x6a>
/home/one/xv6-labs-2020/user/sh.c:104
     1e2:	00001517          	auipc	a0,0x1
     1e6:	19650513          	addi	a0,a0,406 # 1378 <malloc+0x15a>
     1ea:	00000097          	auipc	ra,0x0
     1ee:	e6a080e7          	jalr	-406(ra) # 54 <panic>
/home/one/xv6-labs-2020/user/sh.c:106
     1f2:	4505                	li	a0,1
     1f4:	00001097          	auipc	ra,0x1
     1f8:	c1c080e7          	jalr	-996(ra) # e10 <close>
/home/one/xv6-labs-2020/user/sh.c:107
     1fc:	fdc42503          	lw	a0,-36(s0)
     200:	00001097          	auipc	ra,0x1
     204:	c60080e7          	jalr	-928(ra) # e60 <dup>
/home/one/xv6-labs-2020/user/sh.c:108
     208:	fd842503          	lw	a0,-40(s0)
     20c:	00001097          	auipc	ra,0x1
     210:	c04080e7          	jalr	-1020(ra) # e10 <close>
/home/one/xv6-labs-2020/user/sh.c:109
     214:	fdc42503          	lw	a0,-36(s0)
     218:	00001097          	auipc	ra,0x1
     21c:	bf8080e7          	jalr	-1032(ra) # e10 <close>
/home/one/xv6-labs-2020/user/sh.c:110
     220:	6488                	ld	a0,8(s1)
     222:	00000097          	auipc	ra,0x0
     226:	e86080e7          	jalr	-378(ra) # a8 <runcmd>
/home/one/xv6-labs-2020/user/sh.c:113
     22a:	00001097          	auipc	ra,0x1
     22e:	be6080e7          	jalr	-1050(ra) # e10 <close>
/home/one/xv6-labs-2020/user/sh.c:114
     232:	fd842503          	lw	a0,-40(s0)
     236:	00001097          	auipc	ra,0x1
     23a:	c2a080e7          	jalr	-982(ra) # e60 <dup>
/home/one/xv6-labs-2020/user/sh.c:115
     23e:	fd842503          	lw	a0,-40(s0)
     242:	00001097          	auipc	ra,0x1
     246:	bce080e7          	jalr	-1074(ra) # e10 <close>
/home/one/xv6-labs-2020/user/sh.c:116
     24a:	fdc42503          	lw	a0,-36(s0)
     24e:	00001097          	auipc	ra,0x1
     252:	bc2080e7          	jalr	-1086(ra) # e10 <close>
/home/one/xv6-labs-2020/user/sh.c:117
     256:	6888                	ld	a0,16(s1)
     258:	00000097          	auipc	ra,0x0
     25c:	e50080e7          	jalr	-432(ra) # a8 <runcmd>
/home/one/xv6-labs-2020/user/sh.c:127
     260:	00000097          	auipc	ra,0x0
     264:	e1a080e7          	jalr	-486(ra) # 7a <fork1>
     268:	ea0515e3          	bnez	a0,112 <runcmd+0x6a>
/home/one/xv6-labs-2020/user/sh.c:128
     26c:	6488                	ld	a0,8(s1)
     26e:	00000097          	auipc	ra,0x0
     272:	e3a080e7          	jalr	-454(ra) # a8 <runcmd>

0000000000000276 <execcmd>:
execcmd():
/home/one/xv6-labs-2020/user/sh.c:198
     276:	1101                	addi	sp,sp,-32
     278:	ec06                	sd	ra,24(sp)
     27a:	e822                	sd	s0,16(sp)
     27c:	e426                	sd	s1,8(sp)
     27e:	1000                	addi	s0,sp,32
/home/one/xv6-labs-2020/user/sh.c:201
     280:	0a800513          	li	a0,168
     284:	00001097          	auipc	ra,0x1
     288:	f9a080e7          	jalr	-102(ra) # 121e <malloc>
     28c:	84aa                	mv	s1,a0
/home/one/xv6-labs-2020/user/sh.c:202
     28e:	0a800613          	li	a2,168
     292:	4581                	li	a1,0
     294:	00001097          	auipc	ra,0x1
     298:	93e080e7          	jalr	-1730(ra) # bd2 <memset>
/home/one/xv6-labs-2020/user/sh.c:203
     29c:	4785                	li	a5,1
     29e:	c09c                	sw	a5,0(s1)
/home/one/xv6-labs-2020/user/sh.c:205
     2a0:	8526                	mv	a0,s1
     2a2:	60e2                	ld	ra,24(sp)
     2a4:	6442                	ld	s0,16(sp)
     2a6:	64a2                	ld	s1,8(sp)
     2a8:	6105                	addi	sp,sp,32
     2aa:	8082                	ret

00000000000002ac <redircmd>:
redircmd():
/home/one/xv6-labs-2020/user/sh.c:209
     2ac:	7139                	addi	sp,sp,-64
     2ae:	fc06                	sd	ra,56(sp)
     2b0:	f822                	sd	s0,48(sp)
     2b2:	f426                	sd	s1,40(sp)
     2b4:	f04a                	sd	s2,32(sp)
     2b6:	ec4e                	sd	s3,24(sp)
     2b8:	e852                	sd	s4,16(sp)
     2ba:	e456                	sd	s5,8(sp)
     2bc:	e05a                	sd	s6,0(sp)
     2be:	0080                	addi	s0,sp,64
     2c0:	8b2a                	mv	s6,a0
     2c2:	8aae                	mv	s5,a1
     2c4:	8a32                	mv	s4,a2
     2c6:	89b6                	mv	s3,a3
     2c8:	893a                	mv	s2,a4
/home/one/xv6-labs-2020/user/sh.c:212
     2ca:	02800513          	li	a0,40
     2ce:	00001097          	auipc	ra,0x1
     2d2:	f50080e7          	jalr	-176(ra) # 121e <malloc>
     2d6:	84aa                	mv	s1,a0
/home/one/xv6-labs-2020/user/sh.c:213
     2d8:	02800613          	li	a2,40
     2dc:	4581                	li	a1,0
     2de:	00001097          	auipc	ra,0x1
     2e2:	8f4080e7          	jalr	-1804(ra) # bd2 <memset>
/home/one/xv6-labs-2020/user/sh.c:214
     2e6:	4789                	li	a5,2
     2e8:	c09c                	sw	a5,0(s1)
/home/one/xv6-labs-2020/user/sh.c:215
     2ea:	0164b423          	sd	s6,8(s1)
/home/one/xv6-labs-2020/user/sh.c:216
     2ee:	0154b823          	sd	s5,16(s1)
/home/one/xv6-labs-2020/user/sh.c:217
     2f2:	0144bc23          	sd	s4,24(s1)
/home/one/xv6-labs-2020/user/sh.c:218
     2f6:	0334a023          	sw	s3,32(s1)
/home/one/xv6-labs-2020/user/sh.c:219
     2fa:	0324a223          	sw	s2,36(s1)
/home/one/xv6-labs-2020/user/sh.c:221
     2fe:	8526                	mv	a0,s1
     300:	70e2                	ld	ra,56(sp)
     302:	7442                	ld	s0,48(sp)
     304:	74a2                	ld	s1,40(sp)
     306:	7902                	ld	s2,32(sp)
     308:	69e2                	ld	s3,24(sp)
     30a:	6a42                	ld	s4,16(sp)
     30c:	6aa2                	ld	s5,8(sp)
     30e:	6b02                	ld	s6,0(sp)
     310:	6121                	addi	sp,sp,64
     312:	8082                	ret

0000000000000314 <pipecmd>:
pipecmd():
/home/one/xv6-labs-2020/user/sh.c:225
     314:	7179                	addi	sp,sp,-48
     316:	f406                	sd	ra,40(sp)
     318:	f022                	sd	s0,32(sp)
     31a:	ec26                	sd	s1,24(sp)
     31c:	e84a                	sd	s2,16(sp)
     31e:	e44e                	sd	s3,8(sp)
     320:	1800                	addi	s0,sp,48
     322:	89aa                	mv	s3,a0
     324:	892e                	mv	s2,a1
/home/one/xv6-labs-2020/user/sh.c:228
     326:	4561                	li	a0,24
     328:	00001097          	auipc	ra,0x1
     32c:	ef6080e7          	jalr	-266(ra) # 121e <malloc>
     330:	84aa                	mv	s1,a0
/home/one/xv6-labs-2020/user/sh.c:229
     332:	4661                	li	a2,24
     334:	4581                	li	a1,0
     336:	00001097          	auipc	ra,0x1
     33a:	89c080e7          	jalr	-1892(ra) # bd2 <memset>
/home/one/xv6-labs-2020/user/sh.c:230
     33e:	478d                	li	a5,3
     340:	c09c                	sw	a5,0(s1)
/home/one/xv6-labs-2020/user/sh.c:231
     342:	0134b423          	sd	s3,8(s1)
/home/one/xv6-labs-2020/user/sh.c:232
     346:	0124b823          	sd	s2,16(s1)
/home/one/xv6-labs-2020/user/sh.c:234
     34a:	8526                	mv	a0,s1
     34c:	70a2                	ld	ra,40(sp)
     34e:	7402                	ld	s0,32(sp)
     350:	64e2                	ld	s1,24(sp)
     352:	6942                	ld	s2,16(sp)
     354:	69a2                	ld	s3,8(sp)
     356:	6145                	addi	sp,sp,48
     358:	8082                	ret

000000000000035a <listcmd>:
listcmd():
/home/one/xv6-labs-2020/user/sh.c:238
     35a:	7179                	addi	sp,sp,-48
     35c:	f406                	sd	ra,40(sp)
     35e:	f022                	sd	s0,32(sp)
     360:	ec26                	sd	s1,24(sp)
     362:	e84a                	sd	s2,16(sp)
     364:	e44e                	sd	s3,8(sp)
     366:	1800                	addi	s0,sp,48
     368:	89aa                	mv	s3,a0
     36a:	892e                	mv	s2,a1
/home/one/xv6-labs-2020/user/sh.c:241
     36c:	4561                	li	a0,24
     36e:	00001097          	auipc	ra,0x1
     372:	eb0080e7          	jalr	-336(ra) # 121e <malloc>
     376:	84aa                	mv	s1,a0
/home/one/xv6-labs-2020/user/sh.c:242
     378:	4661                	li	a2,24
     37a:	4581                	li	a1,0
     37c:	00001097          	auipc	ra,0x1
     380:	856080e7          	jalr	-1962(ra) # bd2 <memset>
/home/one/xv6-labs-2020/user/sh.c:243
     384:	4791                	li	a5,4
     386:	c09c                	sw	a5,0(s1)
/home/one/xv6-labs-2020/user/sh.c:244
     388:	0134b423          	sd	s3,8(s1)
/home/one/xv6-labs-2020/user/sh.c:245
     38c:	0124b823          	sd	s2,16(s1)
/home/one/xv6-labs-2020/user/sh.c:247
     390:	8526                	mv	a0,s1
     392:	70a2                	ld	ra,40(sp)
     394:	7402                	ld	s0,32(sp)
     396:	64e2                	ld	s1,24(sp)
     398:	6942                	ld	s2,16(sp)
     39a:	69a2                	ld	s3,8(sp)
     39c:	6145                	addi	sp,sp,48
     39e:	8082                	ret

00000000000003a0 <backcmd>:
backcmd():
/home/one/xv6-labs-2020/user/sh.c:251
     3a0:	1101                	addi	sp,sp,-32
     3a2:	ec06                	sd	ra,24(sp)
     3a4:	e822                	sd	s0,16(sp)
     3a6:	e426                	sd	s1,8(sp)
     3a8:	e04a                	sd	s2,0(sp)
     3aa:	1000                	addi	s0,sp,32
     3ac:	892a                	mv	s2,a0
/home/one/xv6-labs-2020/user/sh.c:254
     3ae:	4541                	li	a0,16
     3b0:	00001097          	auipc	ra,0x1
     3b4:	e6e080e7          	jalr	-402(ra) # 121e <malloc>
     3b8:	84aa                	mv	s1,a0
/home/one/xv6-labs-2020/user/sh.c:255
     3ba:	4641                	li	a2,16
     3bc:	4581                	li	a1,0
     3be:	00001097          	auipc	ra,0x1
     3c2:	814080e7          	jalr	-2028(ra) # bd2 <memset>
/home/one/xv6-labs-2020/user/sh.c:256
     3c6:	4795                	li	a5,5
     3c8:	c09c                	sw	a5,0(s1)
/home/one/xv6-labs-2020/user/sh.c:257
     3ca:	0124b423          	sd	s2,8(s1)
/home/one/xv6-labs-2020/user/sh.c:259
     3ce:	8526                	mv	a0,s1
     3d0:	60e2                	ld	ra,24(sp)
     3d2:	6442                	ld	s0,16(sp)
     3d4:	64a2                	ld	s1,8(sp)
     3d6:	6902                	ld	s2,0(sp)
     3d8:	6105                	addi	sp,sp,32
     3da:	8082                	ret

00000000000003dc <gettoken>:
gettoken():
/home/one/xv6-labs-2020/user/sh.c:268
     3dc:	7139                	addi	sp,sp,-64
     3de:	fc06                	sd	ra,56(sp)
     3e0:	f822                	sd	s0,48(sp)
     3e2:	f426                	sd	s1,40(sp)
     3e4:	f04a                	sd	s2,32(sp)
     3e6:	ec4e                	sd	s3,24(sp)
     3e8:	e852                	sd	s4,16(sp)
     3ea:	e456                	sd	s5,8(sp)
     3ec:	e05a                	sd	s6,0(sp)
     3ee:	0080                	addi	s0,sp,64
     3f0:	8a2a                	mv	s4,a0
     3f2:	892e                	mv	s2,a1
     3f4:	8ab2                	mv	s5,a2
     3f6:	8b36                	mv	s6,a3
/home/one/xv6-labs-2020/user/sh.c:272
     3f8:	6104                	ld	s1,0(a0)
/home/one/xv6-labs-2020/user/sh.c:273
     3fa:	00001997          	auipc	s3,0x1
     3fe:	07698993          	addi	s3,s3,118 # 1470 <whitespace>
     402:	00b4fd63          	bgeu	s1,a1,41c <gettoken+0x40>
/home/one/xv6-labs-2020/user/sh.c:273 (discriminator 1)
     406:	0004c583          	lbu	a1,0(s1)
     40a:	854e                	mv	a0,s3
     40c:	00000097          	auipc	ra,0x0
     410:	7ec080e7          	jalr	2028(ra) # bf8 <strchr>
     414:	c501                	beqz	a0,41c <gettoken+0x40>
/home/one/xv6-labs-2020/user/sh.c:274
     416:	0485                	addi	s1,s1,1
/home/one/xv6-labs-2020/user/sh.c:273
     418:	fe9917e3          	bne	s2,s1,406 <gettoken+0x2a>
/home/one/xv6-labs-2020/user/sh.c:275
     41c:	000a8463          	beqz	s5,424 <gettoken+0x48>
/home/one/xv6-labs-2020/user/sh.c:276
     420:	009ab023          	sd	s1,0(s5)
/home/one/xv6-labs-2020/user/sh.c:277
     424:	0004c783          	lbu	a5,0(s1)
     428:	00078a9b          	sext.w	s5,a5
/home/one/xv6-labs-2020/user/sh.c:278
     42c:	02900713          	li	a4,41
     430:	08f76f63          	bltu	a4,a5,4ce <gettoken+0xf2>
     434:	02800713          	li	a4,40
     438:	0ae7f863          	bgeu	a5,a4,4e8 <gettoken+0x10c>
     43c:	e3b9                	bnez	a5,482 <gettoken+0xa6>
/home/one/xv6-labs-2020/user/sh.c:302
     43e:	000b0463          	beqz	s6,446 <gettoken+0x6a>
/home/one/xv6-labs-2020/user/sh.c:303
     442:	009b3023          	sd	s1,0(s6)
/home/one/xv6-labs-2020/user/sh.c:305
     446:	00001997          	auipc	s3,0x1
     44a:	02a98993          	addi	s3,s3,42 # 1470 <whitespace>
     44e:	0124fd63          	bgeu	s1,s2,468 <gettoken+0x8c>
/home/one/xv6-labs-2020/user/sh.c:305 (discriminator 1)
     452:	0004c583          	lbu	a1,0(s1)
     456:	854e                	mv	a0,s3
     458:	00000097          	auipc	ra,0x0
     45c:	7a0080e7          	jalr	1952(ra) # bf8 <strchr>
     460:	c501                	beqz	a0,468 <gettoken+0x8c>
/home/one/xv6-labs-2020/user/sh.c:306
     462:	0485                	addi	s1,s1,1
/home/one/xv6-labs-2020/user/sh.c:305
     464:	fe9917e3          	bne	s2,s1,452 <gettoken+0x76>
/home/one/xv6-labs-2020/user/sh.c:307
     468:	009a3023          	sd	s1,0(s4)
/home/one/xv6-labs-2020/user/sh.c:309
     46c:	8556                	mv	a0,s5
     46e:	70e2                	ld	ra,56(sp)
     470:	7442                	ld	s0,48(sp)
     472:	74a2                	ld	s1,40(sp)
     474:	7902                	ld	s2,32(sp)
     476:	69e2                	ld	s3,24(sp)
     478:	6a42                	ld	s4,16(sp)
     47a:	6aa2                	ld	s5,8(sp)
     47c:	6b02                	ld	s6,0(sp)
     47e:	6121                	addi	sp,sp,64
     480:	8082                	ret
/home/one/xv6-labs-2020/user/sh.c:278
     482:	02600713          	li	a4,38
     486:	06e78163          	beq	a5,a4,4e8 <gettoken+0x10c>
/home/one/xv6-labs-2020/user/sh.c:298
     48a:	00001997          	auipc	s3,0x1
     48e:	fe698993          	addi	s3,s3,-26 # 1470 <whitespace>
     492:	00001a97          	auipc	s5,0x1
     496:	fd6a8a93          	addi	s5,s5,-42 # 1468 <symbols>
     49a:	0324f563          	bgeu	s1,s2,4c4 <gettoken+0xe8>
/home/one/xv6-labs-2020/user/sh.c:298 (discriminator 1)
     49e:	0004c583          	lbu	a1,0(s1)
     4a2:	854e                	mv	a0,s3
     4a4:	00000097          	auipc	ra,0x0
     4a8:	754080e7          	jalr	1876(ra) # bf8 <strchr>
     4ac:	e53d                	bnez	a0,51a <gettoken+0x13e>
/home/one/xv6-labs-2020/user/sh.c:298 (discriminator 2)
     4ae:	0004c583          	lbu	a1,0(s1)
     4b2:	8556                	mv	a0,s5
     4b4:	00000097          	auipc	ra,0x0
     4b8:	744080e7          	jalr	1860(ra) # bf8 <strchr>
     4bc:	ed21                	bnez	a0,514 <gettoken+0x138>
/home/one/xv6-labs-2020/user/sh.c:299
     4be:	0485                	addi	s1,s1,1
/home/one/xv6-labs-2020/user/sh.c:298
     4c0:	fc991fe3          	bne	s2,s1,49e <gettoken+0xc2>
/home/one/xv6-labs-2020/user/sh.c:302
     4c4:	06100a93          	li	s5,97
     4c8:	f60b1de3          	bnez	s6,442 <gettoken+0x66>
     4cc:	bf71                	j	468 <gettoken+0x8c>
/home/one/xv6-labs-2020/user/sh.c:278
     4ce:	03e00713          	li	a4,62
     4d2:	02e78263          	beq	a5,a4,4f6 <gettoken+0x11a>
     4d6:	00f76b63          	bltu	a4,a5,4ec <gettoken+0x110>
     4da:	fc57879b          	addiw	a5,a5,-59
     4de:	0ff7f793          	andi	a5,a5,255
     4e2:	4705                	li	a4,1
     4e4:	faf763e3          	bltu	a4,a5,48a <gettoken+0xae>
/home/one/xv6-labs-2020/user/sh.c:287
     4e8:	0485                	addi	s1,s1,1
/home/one/xv6-labs-2020/user/sh.c:288
     4ea:	bf91                	j	43e <gettoken+0x62>
/home/one/xv6-labs-2020/user/sh.c:278
     4ec:	07c00713          	li	a4,124
     4f0:	fee78ce3          	beq	a5,a4,4e8 <gettoken+0x10c>
     4f4:	bf59                	j	48a <gettoken+0xae>
/home/one/xv6-labs-2020/user/sh.c:290
     4f6:	00148693          	addi	a3,s1,1
/home/one/xv6-labs-2020/user/sh.c:291
     4fa:	0014c703          	lbu	a4,1(s1)
     4fe:	03e00793          	li	a5,62
/home/one/xv6-labs-2020/user/sh.c:293
     502:	0489                	addi	s1,s1,2
/home/one/xv6-labs-2020/user/sh.c:292
     504:	02b00a93          	li	s5,43
/home/one/xv6-labs-2020/user/sh.c:291
     508:	f2f70be3          	beq	a4,a5,43e <gettoken+0x62>
/home/one/xv6-labs-2020/user/sh.c:290
     50c:	84b6                	mv	s1,a3
/home/one/xv6-labs-2020/user/sh.c:277
     50e:	03e00a93          	li	s5,62
     512:	b735                	j	43e <gettoken+0x62>
/home/one/xv6-labs-2020/user/sh.c:297
     514:	06100a93          	li	s5,97
     518:	b71d                	j	43e <gettoken+0x62>
     51a:	06100a93          	li	s5,97
     51e:	b705                	j	43e <gettoken+0x62>

0000000000000520 <peek>:
peek():
/home/one/xv6-labs-2020/user/sh.c:313
     520:	7139                	addi	sp,sp,-64
     522:	fc06                	sd	ra,56(sp)
     524:	f822                	sd	s0,48(sp)
     526:	f426                	sd	s1,40(sp)
     528:	f04a                	sd	s2,32(sp)
     52a:	ec4e                	sd	s3,24(sp)
     52c:	e852                	sd	s4,16(sp)
     52e:	e456                	sd	s5,8(sp)
     530:	0080                	addi	s0,sp,64
     532:	8a2a                	mv	s4,a0
     534:	892e                	mv	s2,a1
     536:	8ab2                	mv	s5,a2
/home/one/xv6-labs-2020/user/sh.c:316
     538:	6104                	ld	s1,0(a0)
/home/one/xv6-labs-2020/user/sh.c:317
     53a:	00001997          	auipc	s3,0x1
     53e:	f3698993          	addi	s3,s3,-202 # 1470 <whitespace>
     542:	00b4fd63          	bgeu	s1,a1,55c <peek+0x3c>
/home/one/xv6-labs-2020/user/sh.c:317 (discriminator 1)
     546:	0004c583          	lbu	a1,0(s1)
     54a:	854e                	mv	a0,s3
     54c:	00000097          	auipc	ra,0x0
     550:	6ac080e7          	jalr	1708(ra) # bf8 <strchr>
     554:	c501                	beqz	a0,55c <peek+0x3c>
/home/one/xv6-labs-2020/user/sh.c:318
     556:	0485                	addi	s1,s1,1
/home/one/xv6-labs-2020/user/sh.c:317
     558:	fe9917e3          	bne	s2,s1,546 <peek+0x26>
/home/one/xv6-labs-2020/user/sh.c:319
     55c:	009a3023          	sd	s1,0(s4)
/home/one/xv6-labs-2020/user/sh.c:320
     560:	0004c583          	lbu	a1,0(s1)
     564:	4501                	li	a0,0
     566:	e991                	bnez	a1,57a <peek+0x5a>
/home/one/xv6-labs-2020/user/sh.c:321 (discriminator 6)
     568:	70e2                	ld	ra,56(sp)
     56a:	7442                	ld	s0,48(sp)
     56c:	74a2                	ld	s1,40(sp)
     56e:	7902                	ld	s2,32(sp)
     570:	69e2                	ld	s3,24(sp)
     572:	6a42                	ld	s4,16(sp)
     574:	6aa2                	ld	s5,8(sp)
     576:	6121                	addi	sp,sp,64
     578:	8082                	ret
/home/one/xv6-labs-2020/user/sh.c:320 (discriminator 1)
     57a:	8556                	mv	a0,s5
     57c:	00000097          	auipc	ra,0x0
     580:	67c080e7          	jalr	1660(ra) # bf8 <strchr>
     584:	00a03533          	snez	a0,a0
     588:	b7c5                	j	568 <peek+0x48>

000000000000058a <parseredirs>:
parseredirs():
/home/one/xv6-labs-2020/user/sh.c:377
     58a:	7159                	addi	sp,sp,-112
     58c:	f486                	sd	ra,104(sp)
     58e:	f0a2                	sd	s0,96(sp)
     590:	eca6                	sd	s1,88(sp)
     592:	e8ca                	sd	s2,80(sp)
     594:	e4ce                	sd	s3,72(sp)
     596:	e0d2                	sd	s4,64(sp)
     598:	fc56                	sd	s5,56(sp)
     59a:	f85a                	sd	s6,48(sp)
     59c:	f45e                	sd	s7,40(sp)
     59e:	f062                	sd	s8,32(sp)
     5a0:	ec66                	sd	s9,24(sp)
     5a2:	1880                	addi	s0,sp,112
     5a4:	8b2a                	mv	s6,a0
     5a6:	89ae                	mv	s3,a1
     5a8:	8932                	mv	s2,a2
/home/one/xv6-labs-2020/user/sh.c:381
     5aa:	00001b97          	auipc	s7,0x1
     5ae:	df6b8b93          	addi	s7,s7,-522 # 13a0 <malloc+0x182>
/home/one/xv6-labs-2020/user/sh.c:383
     5b2:	06100c13          	li	s8,97
/home/one/xv6-labs-2020/user/sh.c:385
     5b6:	03c00c93          	li	s9,60
/home/one/xv6-labs-2020/user/sh.c:381
     5ba:	a02d                	j	5e4 <parseredirs+0x5a>
/home/one/xv6-labs-2020/user/sh.c:384
     5bc:	00001517          	auipc	a0,0x1
     5c0:	dc450513          	addi	a0,a0,-572 # 1380 <malloc+0x162>
     5c4:	00000097          	auipc	ra,0x0
     5c8:	a90080e7          	jalr	-1392(ra) # 54 <panic>
/home/one/xv6-labs-2020/user/sh.c:387
     5cc:	4701                	li	a4,0
     5ce:	4681                	li	a3,0
     5d0:	f9043603          	ld	a2,-112(s0)
     5d4:	f9843583          	ld	a1,-104(s0)
     5d8:	855a                	mv	a0,s6
     5da:	00000097          	auipc	ra,0x0
     5de:	cd2080e7          	jalr	-814(ra) # 2ac <redircmd>
     5e2:	8b2a                	mv	s6,a0
/home/one/xv6-labs-2020/user/sh.c:385
     5e4:	03e00a93          	li	s5,62
     5e8:	02b00a13          	li	s4,43
/home/one/xv6-labs-2020/user/sh.c:381
     5ec:	865e                	mv	a2,s7
     5ee:	85ca                	mv	a1,s2
     5f0:	854e                	mv	a0,s3
     5f2:	00000097          	auipc	ra,0x0
     5f6:	f2e080e7          	jalr	-210(ra) # 520 <peek>
     5fa:	c925                	beqz	a0,66a <parseredirs+0xe0>
/home/one/xv6-labs-2020/user/sh.c:382
     5fc:	4681                	li	a3,0
     5fe:	4601                	li	a2,0
     600:	85ca                	mv	a1,s2
     602:	854e                	mv	a0,s3
     604:	00000097          	auipc	ra,0x0
     608:	dd8080e7          	jalr	-552(ra) # 3dc <gettoken>
     60c:	84aa                	mv	s1,a0
/home/one/xv6-labs-2020/user/sh.c:383
     60e:	f9040693          	addi	a3,s0,-112
     612:	f9840613          	addi	a2,s0,-104
     616:	85ca                	mv	a1,s2
     618:	854e                	mv	a0,s3
     61a:	00000097          	auipc	ra,0x0
     61e:	dc2080e7          	jalr	-574(ra) # 3dc <gettoken>
     622:	f9851de3          	bne	a0,s8,5bc <parseredirs+0x32>
/home/one/xv6-labs-2020/user/sh.c:385
     626:	fb9483e3          	beq	s1,s9,5cc <parseredirs+0x42>
     62a:	03548263          	beq	s1,s5,64e <parseredirs+0xc4>
     62e:	fb449fe3          	bne	s1,s4,5ec <parseredirs+0x62>
/home/one/xv6-labs-2020/user/sh.c:393
     632:	4705                	li	a4,1
     634:	20100693          	li	a3,513
     638:	f9043603          	ld	a2,-112(s0)
     63c:	f9843583          	ld	a1,-104(s0)
     640:	855a                	mv	a0,s6
     642:	00000097          	auipc	ra,0x0
     646:	c6a080e7          	jalr	-918(ra) # 2ac <redircmd>
     64a:	8b2a                	mv	s6,a0
/home/one/xv6-labs-2020/user/sh.c:394
     64c:	bf61                	j	5e4 <parseredirs+0x5a>
/home/one/xv6-labs-2020/user/sh.c:390
     64e:	4705                	li	a4,1
     650:	60100693          	li	a3,1537
     654:	f9043603          	ld	a2,-112(s0)
     658:	f9843583          	ld	a1,-104(s0)
     65c:	855a                	mv	a0,s6
     65e:	00000097          	auipc	ra,0x0
     662:	c4e080e7          	jalr	-946(ra) # 2ac <redircmd>
     666:	8b2a                	mv	s6,a0
/home/one/xv6-labs-2020/user/sh.c:391
     668:	bfb5                	j	5e4 <parseredirs+0x5a>
/home/one/xv6-labs-2020/user/sh.c:398
     66a:	855a                	mv	a0,s6
     66c:	70a6                	ld	ra,104(sp)
     66e:	7406                	ld	s0,96(sp)
     670:	64e6                	ld	s1,88(sp)
     672:	6946                	ld	s2,80(sp)
     674:	69a6                	ld	s3,72(sp)
     676:	6a06                	ld	s4,64(sp)
     678:	7ae2                	ld	s5,56(sp)
     67a:	7b42                	ld	s6,48(sp)
     67c:	7ba2                	ld	s7,40(sp)
     67e:	7c02                	ld	s8,32(sp)
     680:	6ce2                	ld	s9,24(sp)
     682:	6165                	addi	sp,sp,112
     684:	8082                	ret

0000000000000686 <parseexec>:
parseexec():
/home/one/xv6-labs-2020/user/sh.c:418
     686:	7159                	addi	sp,sp,-112
     688:	f486                	sd	ra,104(sp)
     68a:	f0a2                	sd	s0,96(sp)
     68c:	eca6                	sd	s1,88(sp)
     68e:	e8ca                	sd	s2,80(sp)
     690:	e4ce                	sd	s3,72(sp)
     692:	e0d2                	sd	s4,64(sp)
     694:	fc56                	sd	s5,56(sp)
     696:	f85a                	sd	s6,48(sp)
     698:	f45e                	sd	s7,40(sp)
     69a:	f062                	sd	s8,32(sp)
     69c:	ec66                	sd	s9,24(sp)
     69e:	1880                	addi	s0,sp,112
     6a0:	89aa                	mv	s3,a0
     6a2:	8a2e                	mv	s4,a1
/home/one/xv6-labs-2020/user/sh.c:424
     6a4:	00001617          	auipc	a2,0x1
     6a8:	d0460613          	addi	a2,a2,-764 # 13a8 <malloc+0x18a>
     6ac:	00000097          	auipc	ra,0x0
     6b0:	e74080e7          	jalr	-396(ra) # 520 <peek>
     6b4:	e905                	bnez	a0,6e4 <parseexec+0x5e>
     6b6:	892a                	mv	s2,a0
/home/one/xv6-labs-2020/user/sh.c:427
     6b8:	00000097          	auipc	ra,0x0
     6bc:	bbe080e7          	jalr	-1090(ra) # 276 <execcmd>
     6c0:	8c2a                	mv	s8,a0
/home/one/xv6-labs-2020/user/sh.c:431
     6c2:	8652                	mv	a2,s4
     6c4:	85ce                	mv	a1,s3
     6c6:	00000097          	auipc	ra,0x0
     6ca:	ec4080e7          	jalr	-316(ra) # 58a <parseredirs>
     6ce:	8aaa                	mv	s5,a0
/home/one/xv6-labs-2020/user/sh.c:432
     6d0:	008c0493          	addi	s1,s8,8
     6d4:	00001b17          	auipc	s6,0x1
     6d8:	cf4b0b13          	addi	s6,s6,-780 # 13c8 <malloc+0x1aa>
/home/one/xv6-labs-2020/user/sh.c:435
     6dc:	06100c93          	li	s9,97
/home/one/xv6-labs-2020/user/sh.c:440
     6e0:	4ba9                	li	s7,10
/home/one/xv6-labs-2020/user/sh.c:432
     6e2:	a0b1                	j	72e <parseexec+0xa8>
/home/one/xv6-labs-2020/user/sh.c:425
     6e4:	85d2                	mv	a1,s4
     6e6:	854e                	mv	a0,s3
     6e8:	00000097          	auipc	ra,0x0
     6ec:	1b8080e7          	jalr	440(ra) # 8a0 <parseblock>
     6f0:	8aaa                	mv	s5,a0
/home/one/xv6-labs-2020/user/sh.c:447
     6f2:	8556                	mv	a0,s5
     6f4:	70a6                	ld	ra,104(sp)
     6f6:	7406                	ld	s0,96(sp)
     6f8:	64e6                	ld	s1,88(sp)
     6fa:	6946                	ld	s2,80(sp)
     6fc:	69a6                	ld	s3,72(sp)
     6fe:	6a06                	ld	s4,64(sp)
     700:	7ae2                	ld	s5,56(sp)
     702:	7b42                	ld	s6,48(sp)
     704:	7ba2                	ld	s7,40(sp)
     706:	7c02                	ld	s8,32(sp)
     708:	6ce2                	ld	s9,24(sp)
     70a:	6165                	addi	sp,sp,112
     70c:	8082                	ret
/home/one/xv6-labs-2020/user/sh.c:436
     70e:	00001517          	auipc	a0,0x1
     712:	ca250513          	addi	a0,a0,-862 # 13b0 <malloc+0x192>
     716:	00000097          	auipc	ra,0x0
     71a:	93e080e7          	jalr	-1730(ra) # 54 <panic>
/home/one/xv6-labs-2020/user/sh.c:442
     71e:	8652                	mv	a2,s4
     720:	85ce                	mv	a1,s3
     722:	8556                	mv	a0,s5
     724:	00000097          	auipc	ra,0x0
     728:	e66080e7          	jalr	-410(ra) # 58a <parseredirs>
     72c:	8aaa                	mv	s5,a0
/home/one/xv6-labs-2020/user/sh.c:432
     72e:	865a                	mv	a2,s6
     730:	85d2                	mv	a1,s4
     732:	854e                	mv	a0,s3
     734:	00000097          	auipc	ra,0x0
     738:	dec080e7          	jalr	-532(ra) # 520 <peek>
     73c:	e121                	bnez	a0,77c <parseexec+0xf6>
/home/one/xv6-labs-2020/user/sh.c:433
     73e:	f9040693          	addi	a3,s0,-112
     742:	f9840613          	addi	a2,s0,-104
     746:	85d2                	mv	a1,s4
     748:	854e                	mv	a0,s3
     74a:	00000097          	auipc	ra,0x0
     74e:	c92080e7          	jalr	-878(ra) # 3dc <gettoken>
     752:	c50d                	beqz	a0,77c <parseexec+0xf6>
/home/one/xv6-labs-2020/user/sh.c:435
     754:	fb951de3          	bne	a0,s9,70e <parseexec+0x88>
/home/one/xv6-labs-2020/user/sh.c:437
     758:	f9843783          	ld	a5,-104(s0)
     75c:	e09c                	sd	a5,0(s1)
/home/one/xv6-labs-2020/user/sh.c:438
     75e:	f9043783          	ld	a5,-112(s0)
     762:	e8bc                	sd	a5,80(s1)
/home/one/xv6-labs-2020/user/sh.c:439
     764:	2905                	addiw	s2,s2,1
/home/one/xv6-labs-2020/user/sh.c:440
     766:	04a1                	addi	s1,s1,8
     768:	fb791be3          	bne	s2,s7,71e <parseexec+0x98>
/home/one/xv6-labs-2020/user/sh.c:441
     76c:	00001517          	auipc	a0,0x1
     770:	c4c50513          	addi	a0,a0,-948 # 13b8 <malloc+0x19a>
     774:	00000097          	auipc	ra,0x0
     778:	8e0080e7          	jalr	-1824(ra) # 54 <panic>
/home/one/xv6-labs-2020/user/sh.c:444
     77c:	090e                	slli	s2,s2,0x3
     77e:	9962                	add	s2,s2,s8
     780:	00093423          	sd	zero,8(s2)
/home/one/xv6-labs-2020/user/sh.c:445
     784:	04093c23          	sd	zero,88(s2)
/home/one/xv6-labs-2020/user/sh.c:446
     788:	b7ad                	j	6f2 <parseexec+0x6c>

000000000000078a <parsepipe>:
parsepipe():
/home/one/xv6-labs-2020/user/sh.c:364
     78a:	7179                	addi	sp,sp,-48
     78c:	f406                	sd	ra,40(sp)
     78e:	f022                	sd	s0,32(sp)
     790:	ec26                	sd	s1,24(sp)
     792:	e84a                	sd	s2,16(sp)
     794:	e44e                	sd	s3,8(sp)
     796:	1800                	addi	s0,sp,48
     798:	892a                	mv	s2,a0
     79a:	89ae                	mv	s3,a1
/home/one/xv6-labs-2020/user/sh.c:367
     79c:	00000097          	auipc	ra,0x0
     7a0:	eea080e7          	jalr	-278(ra) # 686 <parseexec>
     7a4:	84aa                	mv	s1,a0
/home/one/xv6-labs-2020/user/sh.c:368
     7a6:	00001617          	auipc	a2,0x1
     7aa:	c2a60613          	addi	a2,a2,-982 # 13d0 <malloc+0x1b2>
     7ae:	85ce                	mv	a1,s3
     7b0:	854a                	mv	a0,s2
     7b2:	00000097          	auipc	ra,0x0
     7b6:	d6e080e7          	jalr	-658(ra) # 520 <peek>
     7ba:	e909                	bnez	a0,7cc <parsepipe+0x42>
/home/one/xv6-labs-2020/user/sh.c:373
     7bc:	8526                	mv	a0,s1
     7be:	70a2                	ld	ra,40(sp)
     7c0:	7402                	ld	s0,32(sp)
     7c2:	64e2                	ld	s1,24(sp)
     7c4:	6942                	ld	s2,16(sp)
     7c6:	69a2                	ld	s3,8(sp)
     7c8:	6145                	addi	sp,sp,48
     7ca:	8082                	ret
/home/one/xv6-labs-2020/user/sh.c:369
     7cc:	4681                	li	a3,0
     7ce:	4601                	li	a2,0
     7d0:	85ce                	mv	a1,s3
     7d2:	854a                	mv	a0,s2
     7d4:	00000097          	auipc	ra,0x0
     7d8:	c08080e7          	jalr	-1016(ra) # 3dc <gettoken>
/home/one/xv6-labs-2020/user/sh.c:370
     7dc:	85ce                	mv	a1,s3
     7de:	854a                	mv	a0,s2
     7e0:	00000097          	auipc	ra,0x0
     7e4:	faa080e7          	jalr	-86(ra) # 78a <parsepipe>
     7e8:	85aa                	mv	a1,a0
     7ea:	8526                	mv	a0,s1
     7ec:	00000097          	auipc	ra,0x0
     7f0:	b28080e7          	jalr	-1240(ra) # 314 <pipecmd>
     7f4:	84aa                	mv	s1,a0
/home/one/xv6-labs-2020/user/sh.c:372
     7f6:	b7d9                	j	7bc <parsepipe+0x32>

00000000000007f8 <parseline>:
parseline():
/home/one/xv6-labs-2020/user/sh.c:347
     7f8:	7179                	addi	sp,sp,-48
     7fa:	f406                	sd	ra,40(sp)
     7fc:	f022                	sd	s0,32(sp)
     7fe:	ec26                	sd	s1,24(sp)
     800:	e84a                	sd	s2,16(sp)
     802:	e44e                	sd	s3,8(sp)
     804:	e052                	sd	s4,0(sp)
     806:	1800                	addi	s0,sp,48
     808:	84aa                	mv	s1,a0
     80a:	892e                	mv	s2,a1
/home/one/xv6-labs-2020/user/sh.c:350
     80c:	00000097          	auipc	ra,0x0
     810:	f7e080e7          	jalr	-130(ra) # 78a <parsepipe>
     814:	89aa                	mv	s3,a0
/home/one/xv6-labs-2020/user/sh.c:351
     816:	00001a17          	auipc	s4,0x1
     81a:	bc2a0a13          	addi	s4,s4,-1086 # 13d8 <malloc+0x1ba>
     81e:	8652                	mv	a2,s4
     820:	85ca                	mv	a1,s2
     822:	8526                	mv	a0,s1
     824:	00000097          	auipc	ra,0x0
     828:	cfc080e7          	jalr	-772(ra) # 520 <peek>
     82c:	c105                	beqz	a0,84c <parseline+0x54>
/home/one/xv6-labs-2020/user/sh.c:352
     82e:	4681                	li	a3,0
     830:	4601                	li	a2,0
     832:	85ca                	mv	a1,s2
     834:	8526                	mv	a0,s1
     836:	00000097          	auipc	ra,0x0
     83a:	ba6080e7          	jalr	-1114(ra) # 3dc <gettoken>
/home/one/xv6-labs-2020/user/sh.c:353
     83e:	854e                	mv	a0,s3
     840:	00000097          	auipc	ra,0x0
     844:	b60080e7          	jalr	-1184(ra) # 3a0 <backcmd>
     848:	89aa                	mv	s3,a0
     84a:	bfd1                	j	81e <parseline+0x26>
/home/one/xv6-labs-2020/user/sh.c:355
     84c:	00001617          	auipc	a2,0x1
     850:	b9460613          	addi	a2,a2,-1132 # 13e0 <malloc+0x1c2>
     854:	85ca                	mv	a1,s2
     856:	8526                	mv	a0,s1
     858:	00000097          	auipc	ra,0x0
     85c:	cc8080e7          	jalr	-824(ra) # 520 <peek>
     860:	e911                	bnez	a0,874 <parseline+0x7c>
/home/one/xv6-labs-2020/user/sh.c:360
     862:	854e                	mv	a0,s3
     864:	70a2                	ld	ra,40(sp)
     866:	7402                	ld	s0,32(sp)
     868:	64e2                	ld	s1,24(sp)
     86a:	6942                	ld	s2,16(sp)
     86c:	69a2                	ld	s3,8(sp)
     86e:	6a02                	ld	s4,0(sp)
     870:	6145                	addi	sp,sp,48
     872:	8082                	ret
/home/one/xv6-labs-2020/user/sh.c:356
     874:	4681                	li	a3,0
     876:	4601                	li	a2,0
     878:	85ca                	mv	a1,s2
     87a:	8526                	mv	a0,s1
     87c:	00000097          	auipc	ra,0x0
     880:	b60080e7          	jalr	-1184(ra) # 3dc <gettoken>
/home/one/xv6-labs-2020/user/sh.c:357
     884:	85ca                	mv	a1,s2
     886:	8526                	mv	a0,s1
     888:	00000097          	auipc	ra,0x0
     88c:	f70080e7          	jalr	-144(ra) # 7f8 <parseline>
     890:	85aa                	mv	a1,a0
     892:	854e                	mv	a0,s3
     894:	00000097          	auipc	ra,0x0
     898:	ac6080e7          	jalr	-1338(ra) # 35a <listcmd>
     89c:	89aa                	mv	s3,a0
/home/one/xv6-labs-2020/user/sh.c:359
     89e:	b7d1                	j	862 <parseline+0x6a>

00000000000008a0 <parseblock>:
parseblock():
/home/one/xv6-labs-2020/user/sh.c:402
     8a0:	7179                	addi	sp,sp,-48
     8a2:	f406                	sd	ra,40(sp)
     8a4:	f022                	sd	s0,32(sp)
     8a6:	ec26                	sd	s1,24(sp)
     8a8:	e84a                	sd	s2,16(sp)
     8aa:	e44e                	sd	s3,8(sp)
     8ac:	1800                	addi	s0,sp,48
     8ae:	84aa                	mv	s1,a0
     8b0:	892e                	mv	s2,a1
/home/one/xv6-labs-2020/user/sh.c:405
     8b2:	00001617          	auipc	a2,0x1
     8b6:	af660613          	addi	a2,a2,-1290 # 13a8 <malloc+0x18a>
     8ba:	00000097          	auipc	ra,0x0
     8be:	c66080e7          	jalr	-922(ra) # 520 <peek>
     8c2:	c12d                	beqz	a0,924 <parseblock+0x84>
/home/one/xv6-labs-2020/user/sh.c:407
     8c4:	4681                	li	a3,0
     8c6:	4601                	li	a2,0
     8c8:	85ca                	mv	a1,s2
     8ca:	8526                	mv	a0,s1
     8cc:	00000097          	auipc	ra,0x0
     8d0:	b10080e7          	jalr	-1264(ra) # 3dc <gettoken>
/home/one/xv6-labs-2020/user/sh.c:408
     8d4:	85ca                	mv	a1,s2
     8d6:	8526                	mv	a0,s1
     8d8:	00000097          	auipc	ra,0x0
     8dc:	f20080e7          	jalr	-224(ra) # 7f8 <parseline>
     8e0:	89aa                	mv	s3,a0
/home/one/xv6-labs-2020/user/sh.c:409
     8e2:	00001617          	auipc	a2,0x1
     8e6:	b1660613          	addi	a2,a2,-1258 # 13f8 <malloc+0x1da>
     8ea:	85ca                	mv	a1,s2
     8ec:	8526                	mv	a0,s1
     8ee:	00000097          	auipc	ra,0x0
     8f2:	c32080e7          	jalr	-974(ra) # 520 <peek>
     8f6:	cd1d                	beqz	a0,934 <parseblock+0x94>
/home/one/xv6-labs-2020/user/sh.c:411
     8f8:	4681                	li	a3,0
     8fa:	4601                	li	a2,0
     8fc:	85ca                	mv	a1,s2
     8fe:	8526                	mv	a0,s1
     900:	00000097          	auipc	ra,0x0
     904:	adc080e7          	jalr	-1316(ra) # 3dc <gettoken>
/home/one/xv6-labs-2020/user/sh.c:412
     908:	864a                	mv	a2,s2
     90a:	85a6                	mv	a1,s1
     90c:	854e                	mv	a0,s3
     90e:	00000097          	auipc	ra,0x0
     912:	c7c080e7          	jalr	-900(ra) # 58a <parseredirs>
/home/one/xv6-labs-2020/user/sh.c:414
     916:	70a2                	ld	ra,40(sp)
     918:	7402                	ld	s0,32(sp)
     91a:	64e2                	ld	s1,24(sp)
     91c:	6942                	ld	s2,16(sp)
     91e:	69a2                	ld	s3,8(sp)
     920:	6145                	addi	sp,sp,48
     922:	8082                	ret
/home/one/xv6-labs-2020/user/sh.c:406
     924:	00001517          	auipc	a0,0x1
     928:	ac450513          	addi	a0,a0,-1340 # 13e8 <malloc+0x1ca>
     92c:	fffff097          	auipc	ra,0xfffff
     930:	728080e7          	jalr	1832(ra) # 54 <panic>
/home/one/xv6-labs-2020/user/sh.c:410
     934:	00001517          	auipc	a0,0x1
     938:	acc50513          	addi	a0,a0,-1332 # 1400 <malloc+0x1e2>
     93c:	fffff097          	auipc	ra,0xfffff
     940:	718080e7          	jalr	1816(ra) # 54 <panic>

0000000000000944 <nulterminate>:
nulterminate():
/home/one/xv6-labs-2020/user/sh.c:452
     944:	1101                	addi	sp,sp,-32
     946:	ec06                	sd	ra,24(sp)
     948:	e822                	sd	s0,16(sp)
     94a:	e426                	sd	s1,8(sp)
     94c:	1000                	addi	s0,sp,32
     94e:	84aa                	mv	s1,a0
/home/one/xv6-labs-2020/user/sh.c:460
     950:	c521                	beqz	a0,998 <nulterminate+0x54>
/home/one/xv6-labs-2020/user/sh.c:463
     952:	4118                	lw	a4,0(a0)
     954:	4795                	li	a5,5
     956:	04e7e163          	bltu	a5,a4,998 <nulterminate+0x54>
     95a:	00056783          	lwu	a5,0(a0)
     95e:	078a                	slli	a5,a5,0x2
     960:	00001717          	auipc	a4,0x1
     964:	9c070713          	addi	a4,a4,-1600 # 1320 <malloc+0x102>
     968:	97ba                	add	a5,a5,a4
     96a:	439c                	lw	a5,0(a5)
     96c:	97ba                	add	a5,a5,a4
     96e:	8782                	jr	a5
/home/one/xv6-labs-2020/user/sh.c:466
     970:	651c                	ld	a5,8(a0)
     972:	c39d                	beqz	a5,998 <nulterminate+0x54>
     974:	01050793          	addi	a5,a0,16
/home/one/xv6-labs-2020/user/sh.c:467 (discriminator 3)
     978:	67b8                	ld	a4,72(a5)
     97a:	00070023          	sb	zero,0(a4)
     97e:	07a1                	addi	a5,a5,8
/home/one/xv6-labs-2020/user/sh.c:466 (discriminator 3)
     980:	ff87b703          	ld	a4,-8(a5)
     984:	fb75                	bnez	a4,978 <nulterminate+0x34>
     986:	a809                	j	998 <nulterminate+0x54>
/home/one/xv6-labs-2020/user/sh.c:472
     988:	6508                	ld	a0,8(a0)
     98a:	00000097          	auipc	ra,0x0
     98e:	fba080e7          	jalr	-70(ra) # 944 <nulterminate>
/home/one/xv6-labs-2020/user/sh.c:473
     992:	6c9c                	ld	a5,24(s1)
     994:	00078023          	sb	zero,0(a5)
/home/one/xv6-labs-2020/user/sh.c:494
     998:	8526                	mv	a0,s1
     99a:	60e2                	ld	ra,24(sp)
     99c:	6442                	ld	s0,16(sp)
     99e:	64a2                	ld	s1,8(sp)
     9a0:	6105                	addi	sp,sp,32
     9a2:	8082                	ret
/home/one/xv6-labs-2020/user/sh.c:478
     9a4:	6508                	ld	a0,8(a0)
     9a6:	00000097          	auipc	ra,0x0
     9aa:	f9e080e7          	jalr	-98(ra) # 944 <nulterminate>
/home/one/xv6-labs-2020/user/sh.c:479
     9ae:	6888                	ld	a0,16(s1)
     9b0:	00000097          	auipc	ra,0x0
     9b4:	f94080e7          	jalr	-108(ra) # 944 <nulterminate>
/home/one/xv6-labs-2020/user/sh.c:480
     9b8:	b7c5                	j	998 <nulterminate+0x54>
/home/one/xv6-labs-2020/user/sh.c:484
     9ba:	6508                	ld	a0,8(a0)
     9bc:	00000097          	auipc	ra,0x0
     9c0:	f88080e7          	jalr	-120(ra) # 944 <nulterminate>
/home/one/xv6-labs-2020/user/sh.c:485
     9c4:	6888                	ld	a0,16(s1)
     9c6:	00000097          	auipc	ra,0x0
     9ca:	f7e080e7          	jalr	-130(ra) # 944 <nulterminate>
/home/one/xv6-labs-2020/user/sh.c:486
     9ce:	b7e9                	j	998 <nulterminate+0x54>
/home/one/xv6-labs-2020/user/sh.c:490
     9d0:	6508                	ld	a0,8(a0)
     9d2:	00000097          	auipc	ra,0x0
     9d6:	f72080e7          	jalr	-142(ra) # 944 <nulterminate>
/home/one/xv6-labs-2020/user/sh.c:491
     9da:	bf7d                	j	998 <nulterminate+0x54>

00000000000009dc <parsecmd>:
parsecmd():
/home/one/xv6-labs-2020/user/sh.c:330
     9dc:	7179                	addi	sp,sp,-48
     9de:	f406                	sd	ra,40(sp)
     9e0:	f022                	sd	s0,32(sp)
     9e2:	ec26                	sd	s1,24(sp)
     9e4:	e84a                	sd	s2,16(sp)
     9e6:	1800                	addi	s0,sp,48
     9e8:	fca43c23          	sd	a0,-40(s0)
/home/one/xv6-labs-2020/user/sh.c:334
     9ec:	84aa                	mv	s1,a0
     9ee:	00000097          	auipc	ra,0x0
     9f2:	1ba080e7          	jalr	442(ra) # ba8 <strlen>
     9f6:	1502                	slli	a0,a0,0x20
     9f8:	9101                	srli	a0,a0,0x20
     9fa:	94aa                	add	s1,s1,a0
/home/one/xv6-labs-2020/user/sh.c:335
     9fc:	85a6                	mv	a1,s1
     9fe:	fd840513          	addi	a0,s0,-40
     a02:	00000097          	auipc	ra,0x0
     a06:	df6080e7          	jalr	-522(ra) # 7f8 <parseline>
     a0a:	892a                	mv	s2,a0
/home/one/xv6-labs-2020/user/sh.c:336
     a0c:	00001617          	auipc	a2,0x1
     a10:	a0c60613          	addi	a2,a2,-1524 # 1418 <malloc+0x1fa>
     a14:	85a6                	mv	a1,s1
     a16:	fd840513          	addi	a0,s0,-40
     a1a:	00000097          	auipc	ra,0x0
     a1e:	b06080e7          	jalr	-1274(ra) # 520 <peek>
/home/one/xv6-labs-2020/user/sh.c:337
     a22:	fd843603          	ld	a2,-40(s0)
     a26:	00961e63          	bne	a2,s1,a42 <parsecmd+0x66>
/home/one/xv6-labs-2020/user/sh.c:341
     a2a:	854a                	mv	a0,s2
     a2c:	00000097          	auipc	ra,0x0
     a30:	f18080e7          	jalr	-232(ra) # 944 <nulterminate>
/home/one/xv6-labs-2020/user/sh.c:343
     a34:	854a                	mv	a0,s2
     a36:	70a2                	ld	ra,40(sp)
     a38:	7402                	ld	s0,32(sp)
     a3a:	64e2                	ld	s1,24(sp)
     a3c:	6942                	ld	s2,16(sp)
     a3e:	6145                	addi	sp,sp,48
     a40:	8082                	ret
/home/one/xv6-labs-2020/user/sh.c:338
     a42:	00001597          	auipc	a1,0x1
     a46:	9de58593          	addi	a1,a1,-1570 # 1420 <malloc+0x202>
     a4a:	4509                	li	a0,2
     a4c:	00000097          	auipc	ra,0x0
     a50:	6e4080e7          	jalr	1764(ra) # 1130 <fprintf>
/home/one/xv6-labs-2020/user/sh.c:339
     a54:	00001517          	auipc	a0,0x1
     a58:	95c50513          	addi	a0,a0,-1700 # 13b0 <malloc+0x192>
     a5c:	fffff097          	auipc	ra,0xfffff
     a60:	5f8080e7          	jalr	1528(ra) # 54 <panic>

0000000000000a64 <main>:
main():
/home/one/xv6-labs-2020/user/sh.c:147
     a64:	7139                	addi	sp,sp,-64
     a66:	fc06                	sd	ra,56(sp)
     a68:	f822                	sd	s0,48(sp)
     a6a:	f426                	sd	s1,40(sp)
     a6c:	f04a                	sd	s2,32(sp)
     a6e:	ec4e                	sd	s3,24(sp)
     a70:	e852                	sd	s4,16(sp)
     a72:	e456                	sd	s5,8(sp)
     a74:	0080                	addi	s0,sp,64
/home/one/xv6-labs-2020/user/sh.c:152
     a76:	00001497          	auipc	s1,0x1
     a7a:	9ba48493          	addi	s1,s1,-1606 # 1430 <malloc+0x212>
     a7e:	4589                	li	a1,2
     a80:	8526                	mv	a0,s1
     a82:	00000097          	auipc	ra,0x0
     a86:	3a6080e7          	jalr	934(ra) # e28 <open>
     a8a:	00054963          	bltz	a0,a9c <main+0x38>
/home/one/xv6-labs-2020/user/sh.c:153
     a8e:	4789                	li	a5,2
     a90:	fea7d7e3          	bge	a5,a0,a7e <main+0x1a>
/home/one/xv6-labs-2020/user/sh.c:154
     a94:	00000097          	auipc	ra,0x0
     a98:	37c080e7          	jalr	892(ra) # e10 <close>
/home/one/xv6-labs-2020/user/sh.c:160
     a9c:	00001497          	auipc	s1,0x1
     aa0:	9e448493          	addi	s1,s1,-1564 # 1480 <buf.1153>
/home/one/xv6-labs-2020/user/sh.c:161
     aa4:	06300913          	li	s2,99
     aa8:	02000993          	li	s3,32
/home/one/xv6-labs-2020/user/sh.c:164
     aac:	00001a17          	auipc	s4,0x1
     ab0:	9d7a0a13          	addi	s4,s4,-1577 # 1483 <buf.1153+0x3>
/home/one/xv6-labs-2020/user/sh.c:165
     ab4:	00001a97          	auipc	s5,0x1
     ab8:	984a8a93          	addi	s5,s5,-1660 # 1438 <malloc+0x21a>
     abc:	a819                	j	ad2 <main+0x6e>
/home/one/xv6-labs-2020/user/sh.c:168
     abe:	fffff097          	auipc	ra,0xfffff
     ac2:	5bc080e7          	jalr	1468(ra) # 7a <fork1>
     ac6:	c925                	beqz	a0,b36 <main+0xd2>
/home/one/xv6-labs-2020/user/sh.c:170
     ac8:	4501                	li	a0,0
     aca:	00000097          	auipc	ra,0x0
     ace:	326080e7          	jalr	806(ra) # df0 <wait>
/home/one/xv6-labs-2020/user/sh.c:160
     ad2:	06400593          	li	a1,100
     ad6:	8526                	mv	a0,s1
     ad8:	fffff097          	auipc	ra,0xfffff
     adc:	528080e7          	jalr	1320(ra) # 0 <getcmd>
     ae0:	06054763          	bltz	a0,b4e <main+0xea>
/home/one/xv6-labs-2020/user/sh.c:161
     ae4:	0004c783          	lbu	a5,0(s1)
     ae8:	fd279be3          	bne	a5,s2,abe <main+0x5a>
/home/one/xv6-labs-2020/user/sh.c:161 (discriminator 1)
     aec:	0014c703          	lbu	a4,1(s1)
     af0:	06400793          	li	a5,100
     af4:	fcf715e3          	bne	a4,a5,abe <main+0x5a>
/home/one/xv6-labs-2020/user/sh.c:161 (discriminator 2)
     af8:	0024c783          	lbu	a5,2(s1)
     afc:	fd3791e3          	bne	a5,s3,abe <main+0x5a>
/home/one/xv6-labs-2020/user/sh.c:163
     b00:	8526                	mv	a0,s1
     b02:	00000097          	auipc	ra,0x0
     b06:	0a6080e7          	jalr	166(ra) # ba8 <strlen>
     b0a:	fff5079b          	addiw	a5,a0,-1
     b0e:	1782                	slli	a5,a5,0x20
     b10:	9381                	srli	a5,a5,0x20
     b12:	97a6                	add	a5,a5,s1
     b14:	00078023          	sb	zero,0(a5)
/home/one/xv6-labs-2020/user/sh.c:164
     b18:	8552                	mv	a0,s4
     b1a:	00000097          	auipc	ra,0x0
     b1e:	33e080e7          	jalr	830(ra) # e58 <chdir>
     b22:	fa0558e3          	bgez	a0,ad2 <main+0x6e>
/home/one/xv6-labs-2020/user/sh.c:165
     b26:	8652                	mv	a2,s4
     b28:	85d6                	mv	a1,s5
     b2a:	4509                	li	a0,2
     b2c:	00000097          	auipc	ra,0x0
     b30:	604080e7          	jalr	1540(ra) # 1130 <fprintf>
     b34:	bf79                	j	ad2 <main+0x6e>
/home/one/xv6-labs-2020/user/sh.c:169
     b36:	00001517          	auipc	a0,0x1
     b3a:	94a50513          	addi	a0,a0,-1718 # 1480 <buf.1153>
     b3e:	00000097          	auipc	ra,0x0
     b42:	e9e080e7          	jalr	-354(ra) # 9dc <parsecmd>
     b46:	fffff097          	auipc	ra,0xfffff
     b4a:	562080e7          	jalr	1378(ra) # a8 <runcmd>
/home/one/xv6-labs-2020/user/sh.c:172
     b4e:	4501                	li	a0,0
     b50:	00000097          	auipc	ra,0x0
     b54:	298080e7          	jalr	664(ra) # de8 <exit>

0000000000000b58 <strcpy>:
strcpy():
/home/one/xv6-labs-2020/user/ulib.c:8
     b58:	1141                	addi	sp,sp,-16
     b5a:	e422                	sd	s0,8(sp)
     b5c:	0800                	addi	s0,sp,16
/home/one/xv6-labs-2020/user/ulib.c:12
     b5e:	87aa                	mv	a5,a0
/home/one/xv6-labs-2020/user/ulib.c:12 (discriminator 1)
     b60:	0585                	addi	a1,a1,1
     b62:	0785                	addi	a5,a5,1
     b64:	fff5c703          	lbu	a4,-1(a1)
     b68:	fee78fa3          	sb	a4,-1(a5)
     b6c:	fb75                	bnez	a4,b60 <strcpy+0x8>
/home/one/xv6-labs-2020/user/ulib.c:15
     b6e:	6422                	ld	s0,8(sp)
     b70:	0141                	addi	sp,sp,16
     b72:	8082                	ret

0000000000000b74 <strcmp>:
strcmp():
/home/one/xv6-labs-2020/user/ulib.c:19
     b74:	1141                	addi	sp,sp,-16
     b76:	e422                	sd	s0,8(sp)
     b78:	0800                	addi	s0,sp,16
/home/one/xv6-labs-2020/user/ulib.c:20
     b7a:	00054783          	lbu	a5,0(a0)
     b7e:	cf91                	beqz	a5,b9a <strcmp+0x26>
     b80:	0005c703          	lbu	a4,0(a1)
     b84:	00f71b63          	bne	a4,a5,b9a <strcmp+0x26>
/home/one/xv6-labs-2020/user/ulib.c:21
     b88:	0505                	addi	a0,a0,1
     b8a:	0585                	addi	a1,a1,1
/home/one/xv6-labs-2020/user/ulib.c:20
     b8c:	00054783          	lbu	a5,0(a0)
     b90:	c789                	beqz	a5,b9a <strcmp+0x26>
/home/one/xv6-labs-2020/user/ulib.c:20 (discriminator 1)
     b92:	0005c703          	lbu	a4,0(a1)
     b96:	fef709e3          	beq	a4,a5,b88 <strcmp+0x14>
/home/one/xv6-labs-2020/user/ulib.c:22
     b9a:	0005c503          	lbu	a0,0(a1)
/home/one/xv6-labs-2020/user/ulib.c:23
     b9e:	40a7853b          	subw	a0,a5,a0
     ba2:	6422                	ld	s0,8(sp)
     ba4:	0141                	addi	sp,sp,16
     ba6:	8082                	ret

0000000000000ba8 <strlen>:
strlen():
/home/one/xv6-labs-2020/user/ulib.c:27
     ba8:	1141                	addi	sp,sp,-16
     baa:	e422                	sd	s0,8(sp)
     bac:	0800                	addi	s0,sp,16
/home/one/xv6-labs-2020/user/ulib.c:30
     bae:	00054783          	lbu	a5,0(a0)
     bb2:	cf91                	beqz	a5,bce <strlen+0x26>
     bb4:	0505                	addi	a0,a0,1
     bb6:	87aa                	mv	a5,a0
     bb8:	4685                	li	a3,1
     bba:	9e89                	subw	a3,a3,a0
/home/one/xv6-labs-2020/user/ulib.c:31 (discriminator 3)
     bbc:	00f6853b          	addw	a0,a3,a5
     bc0:	0785                	addi	a5,a5,1
/home/one/xv6-labs-2020/user/ulib.c:30 (discriminator 3)
     bc2:	fff7c703          	lbu	a4,-1(a5)
     bc6:	fb7d                	bnez	a4,bbc <strlen+0x14>
/home/one/xv6-labs-2020/user/ulib.c:33
     bc8:	6422                	ld	s0,8(sp)
     bca:	0141                	addi	sp,sp,16
     bcc:	8082                	ret
/home/one/xv6-labs-2020/user/ulib.c:30
     bce:	4501                	li	a0,0
     bd0:	bfe5                	j	bc8 <strlen+0x20>

0000000000000bd2 <memset>:
memset():
/home/one/xv6-labs-2020/user/ulib.c:37
     bd2:	1141                	addi	sp,sp,-16
     bd4:	e422                	sd	s0,8(sp)
     bd6:	0800                	addi	s0,sp,16
/home/one/xv6-labs-2020/user/ulib.c:40
     bd8:	ce09                	beqz	a2,bf2 <memset+0x20>
     bda:	87aa                	mv	a5,a0
     bdc:	fff6071b          	addiw	a4,a2,-1
     be0:	1702                	slli	a4,a4,0x20
     be2:	9301                	srli	a4,a4,0x20
     be4:	0705                	addi	a4,a4,1
     be6:	972a                	add	a4,a4,a0
/home/one/xv6-labs-2020/user/ulib.c:41 (discriminator 3)
     be8:	00b78023          	sb	a1,0(a5)
     bec:	0785                	addi	a5,a5,1
/home/one/xv6-labs-2020/user/ulib.c:40 (discriminator 3)
     bee:	fee79de3          	bne	a5,a4,be8 <memset+0x16>
/home/one/xv6-labs-2020/user/ulib.c:44
     bf2:	6422                	ld	s0,8(sp)
     bf4:	0141                	addi	sp,sp,16
     bf6:	8082                	ret

0000000000000bf8 <strchr>:
strchr():
/home/one/xv6-labs-2020/user/ulib.c:48
     bf8:	1141                	addi	sp,sp,-16
     bfa:	e422                	sd	s0,8(sp)
     bfc:	0800                	addi	s0,sp,16
/home/one/xv6-labs-2020/user/ulib.c:49
     bfe:	00054783          	lbu	a5,0(a0)
     c02:	cf91                	beqz	a5,c1e <strchr+0x26>
/home/one/xv6-labs-2020/user/ulib.c:50
     c04:	00f58a63          	beq	a1,a5,c18 <strchr+0x20>
/home/one/xv6-labs-2020/user/ulib.c:49
     c08:	0505                	addi	a0,a0,1
     c0a:	00054783          	lbu	a5,0(a0)
     c0e:	c781                	beqz	a5,c16 <strchr+0x1e>
/home/one/xv6-labs-2020/user/ulib.c:50
     c10:	feb79ce3          	bne	a5,a1,c08 <strchr+0x10>
     c14:	a011                	j	c18 <strchr+0x20>
/home/one/xv6-labs-2020/user/ulib.c:52
     c16:	4501                	li	a0,0
/home/one/xv6-labs-2020/user/ulib.c:53
     c18:	6422                	ld	s0,8(sp)
     c1a:	0141                	addi	sp,sp,16
     c1c:	8082                	ret
/home/one/xv6-labs-2020/user/ulib.c:52
     c1e:	4501                	li	a0,0
     c20:	bfe5                	j	c18 <strchr+0x20>

0000000000000c22 <gets>:
gets():
/home/one/xv6-labs-2020/user/ulib.c:57
     c22:	711d                	addi	sp,sp,-96
     c24:	ec86                	sd	ra,88(sp)
     c26:	e8a2                	sd	s0,80(sp)
     c28:	e4a6                	sd	s1,72(sp)
     c2a:	e0ca                	sd	s2,64(sp)
     c2c:	fc4e                	sd	s3,56(sp)
     c2e:	f852                	sd	s4,48(sp)
     c30:	f456                	sd	s5,40(sp)
     c32:	f05a                	sd	s6,32(sp)
     c34:	ec5e                	sd	s7,24(sp)
     c36:	1080                	addi	s0,sp,96
     c38:	8baa                	mv	s7,a0
     c3a:	8a2e                	mv	s4,a1
/home/one/xv6-labs-2020/user/ulib.c:61
     c3c:	892a                	mv	s2,a0
     c3e:	4981                	li	s3,0
/home/one/xv6-labs-2020/user/ulib.c:66
     c40:	4aa9                	li	s5,10
     c42:	4b35                	li	s6,13
/home/one/xv6-labs-2020/user/ulib.c:61 (discriminator 1)
     c44:	0019849b          	addiw	s1,s3,1
     c48:	0344d863          	bge	s1,s4,c78 <gets+0x56>
/home/one/xv6-labs-2020/user/ulib.c:62
     c4c:	4605                	li	a2,1
     c4e:	faf40593          	addi	a1,s0,-81
     c52:	4501                	li	a0,0
     c54:	00000097          	auipc	ra,0x0
     c58:	1ac080e7          	jalr	428(ra) # e00 <read>
/home/one/xv6-labs-2020/user/ulib.c:63
     c5c:	00a05e63          	blez	a0,c78 <gets+0x56>
/home/one/xv6-labs-2020/user/ulib.c:65
     c60:	faf44783          	lbu	a5,-81(s0)
     c64:	00f90023          	sb	a5,0(s2)
/home/one/xv6-labs-2020/user/ulib.c:66
     c68:	01578763          	beq	a5,s5,c76 <gets+0x54>
     c6c:	0905                	addi	s2,s2,1
/home/one/xv6-labs-2020/user/ulib.c:61 (discriminator 1)
     c6e:	89a6                	mv	s3,s1
/home/one/xv6-labs-2020/user/ulib.c:66 (discriminator 1)
     c70:	fd679ae3          	bne	a5,s6,c44 <gets+0x22>
     c74:	a011                	j	c78 <gets+0x56>
/home/one/xv6-labs-2020/user/ulib.c:61
     c76:	89a6                	mv	s3,s1
/home/one/xv6-labs-2020/user/ulib.c:69
     c78:	99de                	add	s3,s3,s7
     c7a:	00098023          	sb	zero,0(s3)
/home/one/xv6-labs-2020/user/ulib.c:71
     c7e:	855e                	mv	a0,s7
     c80:	60e6                	ld	ra,88(sp)
     c82:	6446                	ld	s0,80(sp)
     c84:	64a6                	ld	s1,72(sp)
     c86:	6906                	ld	s2,64(sp)
     c88:	79e2                	ld	s3,56(sp)
     c8a:	7a42                	ld	s4,48(sp)
     c8c:	7aa2                	ld	s5,40(sp)
     c8e:	7b02                	ld	s6,32(sp)
     c90:	6be2                	ld	s7,24(sp)
     c92:	6125                	addi	sp,sp,96
     c94:	8082                	ret

0000000000000c96 <stat>:
stat():
/home/one/xv6-labs-2020/user/ulib.c:75
     c96:	1101                	addi	sp,sp,-32
     c98:	ec06                	sd	ra,24(sp)
     c9a:	e822                	sd	s0,16(sp)
     c9c:	e426                	sd	s1,8(sp)
     c9e:	e04a                	sd	s2,0(sp)
     ca0:	1000                	addi	s0,sp,32
     ca2:	892e                	mv	s2,a1
/home/one/xv6-labs-2020/user/ulib.c:79
     ca4:	4581                	li	a1,0
     ca6:	00000097          	auipc	ra,0x0
     caa:	182080e7          	jalr	386(ra) # e28 <open>
/home/one/xv6-labs-2020/user/ulib.c:80
     cae:	02054563          	bltz	a0,cd8 <stat+0x42>
     cb2:	84aa                	mv	s1,a0
/home/one/xv6-labs-2020/user/ulib.c:82
     cb4:	85ca                	mv	a1,s2
     cb6:	00000097          	auipc	ra,0x0
     cba:	18a080e7          	jalr	394(ra) # e40 <fstat>
     cbe:	892a                	mv	s2,a0
/home/one/xv6-labs-2020/user/ulib.c:83
     cc0:	8526                	mv	a0,s1
     cc2:	00000097          	auipc	ra,0x0
     cc6:	14e080e7          	jalr	334(ra) # e10 <close>
/home/one/xv6-labs-2020/user/ulib.c:85
     cca:	854a                	mv	a0,s2
     ccc:	60e2                	ld	ra,24(sp)
     cce:	6442                	ld	s0,16(sp)
     cd0:	64a2                	ld	s1,8(sp)
     cd2:	6902                	ld	s2,0(sp)
     cd4:	6105                	addi	sp,sp,32
     cd6:	8082                	ret
/home/one/xv6-labs-2020/user/ulib.c:81
     cd8:	597d                	li	s2,-1
     cda:	bfc5                	j	cca <stat+0x34>

0000000000000cdc <atoi>:
atoi():
/home/one/xv6-labs-2020/user/ulib.c:89
     cdc:	1141                	addi	sp,sp,-16
     cde:	e422                	sd	s0,8(sp)
     ce0:	0800                	addi	s0,sp,16
/home/one/xv6-labs-2020/user/ulib.c:93
     ce2:	00054683          	lbu	a3,0(a0)
     ce6:	fd06879b          	addiw	a5,a3,-48
     cea:	0ff7f793          	andi	a5,a5,255
     cee:	4725                	li	a4,9
     cf0:	02f76963          	bltu	a4,a5,d22 <atoi+0x46>
     cf4:	862a                	mv	a2,a0
/home/one/xv6-labs-2020/user/ulib.c:92
     cf6:	4501                	li	a0,0
/home/one/xv6-labs-2020/user/ulib.c:93
     cf8:	45a5                	li	a1,9
/home/one/xv6-labs-2020/user/ulib.c:94
     cfa:	0605                	addi	a2,a2,1
     cfc:	0025179b          	slliw	a5,a0,0x2
     d00:	9fa9                	addw	a5,a5,a0
     d02:	0017979b          	slliw	a5,a5,0x1
     d06:	9fb5                	addw	a5,a5,a3
     d08:	fd07851b          	addiw	a0,a5,-48
/home/one/xv6-labs-2020/user/ulib.c:93
     d0c:	00064683          	lbu	a3,0(a2)
     d10:	fd06871b          	addiw	a4,a3,-48
     d14:	0ff77713          	andi	a4,a4,255
     d18:	fee5f1e3          	bgeu	a1,a4,cfa <atoi+0x1e>
/home/one/xv6-labs-2020/user/ulib.c:96
     d1c:	6422                	ld	s0,8(sp)
     d1e:	0141                	addi	sp,sp,16
     d20:	8082                	ret
/home/one/xv6-labs-2020/user/ulib.c:92
     d22:	4501                	li	a0,0
     d24:	bfe5                	j	d1c <atoi+0x40>

0000000000000d26 <memmove>:
memmove():
/home/one/xv6-labs-2020/user/ulib.c:100
     d26:	1141                	addi	sp,sp,-16
     d28:	e422                	sd	s0,8(sp)
     d2a:	0800                	addi	s0,sp,16
/home/one/xv6-labs-2020/user/ulib.c:106
     d2c:	02b57663          	bgeu	a0,a1,d58 <memmove+0x32>
/home/one/xv6-labs-2020/user/ulib.c:107
     d30:	02c05163          	blez	a2,d52 <memmove+0x2c>
     d34:	fff6079b          	addiw	a5,a2,-1
     d38:	1782                	slli	a5,a5,0x20
     d3a:	9381                	srli	a5,a5,0x20
     d3c:	0785                	addi	a5,a5,1
     d3e:	97aa                	add	a5,a5,a0
/home/one/xv6-labs-2020/user/ulib.c:104
     d40:	872a                	mv	a4,a0
/home/one/xv6-labs-2020/user/ulib.c:108
     d42:	0585                	addi	a1,a1,1
     d44:	0705                	addi	a4,a4,1
     d46:	fff5c683          	lbu	a3,-1(a1)
     d4a:	fed70fa3          	sb	a3,-1(a4)
/home/one/xv6-labs-2020/user/ulib.c:107
     d4e:	fee79ae3          	bne	a5,a4,d42 <memmove+0x1c>
/home/one/xv6-labs-2020/user/ulib.c:116
     d52:	6422                	ld	s0,8(sp)
     d54:	0141                	addi	sp,sp,16
     d56:	8082                	ret
/home/one/xv6-labs-2020/user/ulib.c:110
     d58:	00c50733          	add	a4,a0,a2
/home/one/xv6-labs-2020/user/ulib.c:111
     d5c:	95b2                	add	a1,a1,a2
/home/one/xv6-labs-2020/user/ulib.c:112
     d5e:	fec05ae3          	blez	a2,d52 <memmove+0x2c>
     d62:	fff6079b          	addiw	a5,a2,-1
     d66:	1782                	slli	a5,a5,0x20
     d68:	9381                	srli	a5,a5,0x20
     d6a:	fff7c793          	not	a5,a5
     d6e:	97ba                	add	a5,a5,a4
/home/one/xv6-labs-2020/user/ulib.c:113
     d70:	15fd                	addi	a1,a1,-1
     d72:	177d                	addi	a4,a4,-1
     d74:	0005c683          	lbu	a3,0(a1)
     d78:	00d70023          	sb	a3,0(a4)
/home/one/xv6-labs-2020/user/ulib.c:112
     d7c:	fef71ae3          	bne	a4,a5,d70 <memmove+0x4a>
     d80:	bfc9                	j	d52 <memmove+0x2c>

0000000000000d82 <memcmp>:
memcmp():
/home/one/xv6-labs-2020/user/ulib.c:120
     d82:	1141                	addi	sp,sp,-16
     d84:	e422                	sd	s0,8(sp)
     d86:	0800                	addi	s0,sp,16
/home/one/xv6-labs-2020/user/ulib.c:122
     d88:	ce15                	beqz	a2,dc4 <memcmp+0x42>
     d8a:	fff6069b          	addiw	a3,a2,-1
/home/one/xv6-labs-2020/user/ulib.c:123
     d8e:	00054783          	lbu	a5,0(a0)
     d92:	0005c703          	lbu	a4,0(a1)
     d96:	02e79063          	bne	a5,a4,db6 <memcmp+0x34>
     d9a:	1682                	slli	a3,a3,0x20
     d9c:	9281                	srli	a3,a3,0x20
     d9e:	0685                	addi	a3,a3,1
     da0:	96aa                	add	a3,a3,a0
/home/one/xv6-labs-2020/user/ulib.c:126
     da2:	0505                	addi	a0,a0,1
/home/one/xv6-labs-2020/user/ulib.c:127
     da4:	0585                	addi	a1,a1,1
/home/one/xv6-labs-2020/user/ulib.c:122
     da6:	00d50d63          	beq	a0,a3,dc0 <memcmp+0x3e>
/home/one/xv6-labs-2020/user/ulib.c:123
     daa:	00054783          	lbu	a5,0(a0)
     dae:	0005c703          	lbu	a4,0(a1)
     db2:	fee788e3          	beq	a5,a4,da2 <memcmp+0x20>
/home/one/xv6-labs-2020/user/ulib.c:124
     db6:	40e7853b          	subw	a0,a5,a4
/home/one/xv6-labs-2020/user/ulib.c:130
     dba:	6422                	ld	s0,8(sp)
     dbc:	0141                	addi	sp,sp,16
     dbe:	8082                	ret
/home/one/xv6-labs-2020/user/ulib.c:129
     dc0:	4501                	li	a0,0
     dc2:	bfe5                	j	dba <memcmp+0x38>
     dc4:	4501                	li	a0,0
     dc6:	bfd5                	j	dba <memcmp+0x38>

0000000000000dc8 <memcpy>:
memcpy():
/home/one/xv6-labs-2020/user/ulib.c:134
     dc8:	1141                	addi	sp,sp,-16
     dca:	e406                	sd	ra,8(sp)
     dcc:	e022                	sd	s0,0(sp)
     dce:	0800                	addi	s0,sp,16
/home/one/xv6-labs-2020/user/ulib.c:135
     dd0:	00000097          	auipc	ra,0x0
     dd4:	f56080e7          	jalr	-170(ra) # d26 <memmove>
/home/one/xv6-labs-2020/user/ulib.c:136
     dd8:	60a2                	ld	ra,8(sp)
     dda:	6402                	ld	s0,0(sp)
     ddc:	0141                	addi	sp,sp,16
     dde:	8082                	ret

0000000000000de0 <fork>:
fork():
/home/one/xv6-labs-2020/user/usys.S:5
     de0:	4885                	li	a7,1
/home/one/xv6-labs-2020/user/usys.S:6
     de2:	00000073          	ecall
/home/one/xv6-labs-2020/user/usys.S:7
     de6:	8082                	ret

0000000000000de8 <exit>:
exit():
/home/one/xv6-labs-2020/user/usys.S:10
     de8:	4889                	li	a7,2
/home/one/xv6-labs-2020/user/usys.S:11
     dea:	00000073          	ecall
/home/one/xv6-labs-2020/user/usys.S:12
     dee:	8082                	ret

0000000000000df0 <wait>:
wait():
/home/one/xv6-labs-2020/user/usys.S:15
     df0:	488d                	li	a7,3
/home/one/xv6-labs-2020/user/usys.S:16
     df2:	00000073          	ecall
/home/one/xv6-labs-2020/user/usys.S:17
     df6:	8082                	ret

0000000000000df8 <pipe>:
pipe():
/home/one/xv6-labs-2020/user/usys.S:20
     df8:	4891                	li	a7,4
/home/one/xv6-labs-2020/user/usys.S:21
     dfa:	00000073          	ecall
/home/one/xv6-labs-2020/user/usys.S:22
     dfe:	8082                	ret

0000000000000e00 <read>:
read():
/home/one/xv6-labs-2020/user/usys.S:25
     e00:	4895                	li	a7,5
/home/one/xv6-labs-2020/user/usys.S:26
     e02:	00000073          	ecall
/home/one/xv6-labs-2020/user/usys.S:27
     e06:	8082                	ret

0000000000000e08 <write>:
write():
/home/one/xv6-labs-2020/user/usys.S:30
     e08:	48c1                	li	a7,16
/home/one/xv6-labs-2020/user/usys.S:31
     e0a:	00000073          	ecall
/home/one/xv6-labs-2020/user/usys.S:32
     e0e:	8082                	ret

0000000000000e10 <close>:
close():
/home/one/xv6-labs-2020/user/usys.S:35
     e10:	48d5                	li	a7,21
/home/one/xv6-labs-2020/user/usys.S:36
     e12:	00000073          	ecall
/home/one/xv6-labs-2020/user/usys.S:37
     e16:	8082                	ret

0000000000000e18 <kill>:
kill():
/home/one/xv6-labs-2020/user/usys.S:40
     e18:	4899                	li	a7,6
/home/one/xv6-labs-2020/user/usys.S:41
     e1a:	00000073          	ecall
/home/one/xv6-labs-2020/user/usys.S:42
     e1e:	8082                	ret

0000000000000e20 <exec>:
exec():
/home/one/xv6-labs-2020/user/usys.S:45
     e20:	489d                	li	a7,7
/home/one/xv6-labs-2020/user/usys.S:46
     e22:	00000073          	ecall
/home/one/xv6-labs-2020/user/usys.S:47
     e26:	8082                	ret

0000000000000e28 <open>:
open():
/home/one/xv6-labs-2020/user/usys.S:50
     e28:	48bd                	li	a7,15
/home/one/xv6-labs-2020/user/usys.S:51
     e2a:	00000073          	ecall
/home/one/xv6-labs-2020/user/usys.S:52
     e2e:	8082                	ret

0000000000000e30 <mknod>:
mknod():
/home/one/xv6-labs-2020/user/usys.S:55
     e30:	48c5                	li	a7,17
/home/one/xv6-labs-2020/user/usys.S:56
     e32:	00000073          	ecall
/home/one/xv6-labs-2020/user/usys.S:57
     e36:	8082                	ret

0000000000000e38 <unlink>:
unlink():
/home/one/xv6-labs-2020/user/usys.S:60
     e38:	48c9                	li	a7,18
/home/one/xv6-labs-2020/user/usys.S:61
     e3a:	00000073          	ecall
/home/one/xv6-labs-2020/user/usys.S:62
     e3e:	8082                	ret

0000000000000e40 <fstat>:
fstat():
/home/one/xv6-labs-2020/user/usys.S:65
     e40:	48a1                	li	a7,8
/home/one/xv6-labs-2020/user/usys.S:66
     e42:	00000073          	ecall
/home/one/xv6-labs-2020/user/usys.S:67
     e46:	8082                	ret

0000000000000e48 <link>:
link():
/home/one/xv6-labs-2020/user/usys.S:70
     e48:	48cd                	li	a7,19
/home/one/xv6-labs-2020/user/usys.S:71
     e4a:	00000073          	ecall
/home/one/xv6-labs-2020/user/usys.S:72
     e4e:	8082                	ret

0000000000000e50 <mkdir>:
mkdir():
/home/one/xv6-labs-2020/user/usys.S:75
     e50:	48d1                	li	a7,20
/home/one/xv6-labs-2020/user/usys.S:76
     e52:	00000073          	ecall
/home/one/xv6-labs-2020/user/usys.S:77
     e56:	8082                	ret

0000000000000e58 <chdir>:
chdir():
/home/one/xv6-labs-2020/user/usys.S:80
     e58:	48a5                	li	a7,9
/home/one/xv6-labs-2020/user/usys.S:81
     e5a:	00000073          	ecall
/home/one/xv6-labs-2020/user/usys.S:82
     e5e:	8082                	ret

0000000000000e60 <dup>:
dup():
/home/one/xv6-labs-2020/user/usys.S:85
     e60:	48a9                	li	a7,10
/home/one/xv6-labs-2020/user/usys.S:86
     e62:	00000073          	ecall
/home/one/xv6-labs-2020/user/usys.S:87
     e66:	8082                	ret

0000000000000e68 <getpid>:
getpid():
/home/one/xv6-labs-2020/user/usys.S:90
     e68:	48ad                	li	a7,11
/home/one/xv6-labs-2020/user/usys.S:91
     e6a:	00000073          	ecall
/home/one/xv6-labs-2020/user/usys.S:92
     e6e:	8082                	ret

0000000000000e70 <sbrk>:
sbrk():
/home/one/xv6-labs-2020/user/usys.S:95
     e70:	48b1                	li	a7,12
/home/one/xv6-labs-2020/user/usys.S:96
     e72:	00000073          	ecall
/home/one/xv6-labs-2020/user/usys.S:97
     e76:	8082                	ret

0000000000000e78 <sleep>:
sleep():
/home/one/xv6-labs-2020/user/usys.S:100
     e78:	48b5                	li	a7,13
/home/one/xv6-labs-2020/user/usys.S:101
     e7a:	00000073          	ecall
/home/one/xv6-labs-2020/user/usys.S:102
     e7e:	8082                	ret

0000000000000e80 <uptime>:
uptime():
/home/one/xv6-labs-2020/user/usys.S:105
     e80:	48b9                	li	a7,14
/home/one/xv6-labs-2020/user/usys.S:106
     e82:	00000073          	ecall
/home/one/xv6-labs-2020/user/usys.S:107
     e86:	8082                	ret

0000000000000e88 <putc>:
putc():
/home/one/xv6-labs-2020/user/printf.c:11
     e88:	1101                	addi	sp,sp,-32
     e8a:	ec06                	sd	ra,24(sp)
     e8c:	e822                	sd	s0,16(sp)
     e8e:	1000                	addi	s0,sp,32
     e90:	feb407a3          	sb	a1,-17(s0)
/home/one/xv6-labs-2020/user/printf.c:12
     e94:	4605                	li	a2,1
     e96:	fef40593          	addi	a1,s0,-17
     e9a:	00000097          	auipc	ra,0x0
     e9e:	f6e080e7          	jalr	-146(ra) # e08 <write>
/home/one/xv6-labs-2020/user/printf.c:13
     ea2:	60e2                	ld	ra,24(sp)
     ea4:	6442                	ld	s0,16(sp)
     ea6:	6105                	addi	sp,sp,32
     ea8:	8082                	ret

0000000000000eaa <printint>:
printint():
/home/one/xv6-labs-2020/user/printf.c:17
     eaa:	7139                	addi	sp,sp,-64
     eac:	fc06                	sd	ra,56(sp)
     eae:	f822                	sd	s0,48(sp)
     eb0:	f426                	sd	s1,40(sp)
     eb2:	f04a                	sd	s2,32(sp)
     eb4:	ec4e                	sd	s3,24(sp)
     eb6:	0080                	addi	s0,sp,64
/home/one/xv6-labs-2020/user/printf.c:23
     eb8:	c299                	beqz	a3,ebe <printint+0x14>
/home/one/xv6-labs-2020/user/printf.c:23 (discriminator 1)
     eba:	0005cd63          	bltz	a1,ed4 <printint+0x2a>
/home/one/xv6-labs-2020/user/printf.c:27
     ebe:	2581                	sext.w	a1,a1
/home/one/xv6-labs-2020/user/printf.c:22
     ec0:	4301                	li	t1,0
     ec2:	fc040713          	addi	a4,s0,-64
/home/one/xv6-labs-2020/user/printf.c:30
     ec6:	4801                	li	a6,0
/home/one/xv6-labs-2020/user/printf.c:32
     ec8:	2601                	sext.w	a2,a2
     eca:	00000897          	auipc	a7,0x0
     ece:	57e88893          	addi	a7,a7,1406 # 1448 <digits>
     ed2:	a039                	j	ee0 <printint+0x36>
/home/one/xv6-labs-2020/user/printf.c:25
     ed4:	40b005bb          	negw	a1,a1
/home/one/xv6-labs-2020/user/printf.c:24
     ed8:	4305                	li	t1,1
/home/one/xv6-labs-2020/user/printf.c:25
     eda:	b7e5                	j	ec2 <printint+0x18>
/home/one/xv6-labs-2020/user/printf.c:33
     edc:	85be                	mv	a1,a5
/home/one/xv6-labs-2020/user/printf.c:32
     ede:	8836                	mv	a6,a3
/home/one/xv6-labs-2020/user/printf.c:32 (discriminator 1)
     ee0:	0018069b          	addiw	a3,a6,1
     ee4:	02c5f7bb          	remuw	a5,a1,a2
     ee8:	1782                	slli	a5,a5,0x20
     eea:	9381                	srli	a5,a5,0x20
     eec:	97c6                	add	a5,a5,a7
     eee:	0007c783          	lbu	a5,0(a5)
     ef2:	00f70023          	sb	a5,0(a4)
     ef6:	0705                	addi	a4,a4,1
/home/one/xv6-labs-2020/user/printf.c:33 (discriminator 1)
     ef8:	02c5d7bb          	divuw	a5,a1,a2
     efc:	fec5f0e3          	bgeu	a1,a2,edc <printint+0x32>
/home/one/xv6-labs-2020/user/printf.c:34
     f00:	00030b63          	beqz	t1,f16 <printint+0x6c>
/home/one/xv6-labs-2020/user/printf.c:35
     f04:	fd040793          	addi	a5,s0,-48
     f08:	96be                	add	a3,a3,a5
     f0a:	02d00793          	li	a5,45
     f0e:	fef68823          	sb	a5,-16(a3)
     f12:	0028069b          	addiw	a3,a6,2
/home/one/xv6-labs-2020/user/printf.c:37
     f16:	02d05963          	blez	a3,f48 <printint+0x9e>
     f1a:	89aa                	mv	s3,a0
     f1c:	fc040793          	addi	a5,s0,-64
     f20:	00d784b3          	add	s1,a5,a3
     f24:	fff78913          	addi	s2,a5,-1
     f28:	9936                	add	s2,s2,a3
     f2a:	36fd                	addiw	a3,a3,-1
     f2c:	1682                	slli	a3,a3,0x20
     f2e:	9281                	srli	a3,a3,0x20
     f30:	40d90933          	sub	s2,s2,a3
/home/one/xv6-labs-2020/user/printf.c:38
     f34:	fff4c583          	lbu	a1,-1(s1)
     f38:	854e                	mv	a0,s3
     f3a:	00000097          	auipc	ra,0x0
     f3e:	f4e080e7          	jalr	-178(ra) # e88 <putc>
     f42:	14fd                	addi	s1,s1,-1
/home/one/xv6-labs-2020/user/printf.c:37
     f44:	ff2498e3          	bne	s1,s2,f34 <printint+0x8a>
/home/one/xv6-labs-2020/user/printf.c:39
     f48:	70e2                	ld	ra,56(sp)
     f4a:	7442                	ld	s0,48(sp)
     f4c:	74a2                	ld	s1,40(sp)
     f4e:	7902                	ld	s2,32(sp)
     f50:	69e2                	ld	s3,24(sp)
     f52:	6121                	addi	sp,sp,64
     f54:	8082                	ret

0000000000000f56 <vprintf>:
vprintf():
/home/one/xv6-labs-2020/user/printf.c:53
     f56:	7119                	addi	sp,sp,-128
     f58:	fc86                	sd	ra,120(sp)
     f5a:	f8a2                	sd	s0,112(sp)
     f5c:	f4a6                	sd	s1,104(sp)
     f5e:	f0ca                	sd	s2,96(sp)
     f60:	ecce                	sd	s3,88(sp)
     f62:	e8d2                	sd	s4,80(sp)
     f64:	e4d6                	sd	s5,72(sp)
     f66:	e0da                	sd	s6,64(sp)
     f68:	fc5e                	sd	s7,56(sp)
     f6a:	f862                	sd	s8,48(sp)
     f6c:	f466                	sd	s9,40(sp)
     f6e:	f06a                	sd	s10,32(sp)
     f70:	ec6e                	sd	s11,24(sp)
     f72:	0100                	addi	s0,sp,128
/home/one/xv6-labs-2020/user/printf.c:58
     f74:	0005c483          	lbu	s1,0(a1)
     f78:	18048d63          	beqz	s1,1112 <vprintf+0x1bc>
     f7c:	8aaa                	mv	s5,a0
     f7e:	8b32                	mv	s6,a2
     f80:	00158913          	addi	s2,a1,1
/home/one/xv6-labs-2020/user/printf.c:57
     f84:	4981                	li	s3,0
/home/one/xv6-labs-2020/user/printf.c:66
     f86:	02500a13          	li	s4,37
/home/one/xv6-labs-2020/user/printf.c:67
     f8a:	06400c13          	li	s8,100
/home/one/xv6-labs-2020/user/printf.c:69
     f8e:	06c00c93          	li	s9,108
/home/one/xv6-labs-2020/user/printf.c:71
     f92:	07800d13          	li	s10,120
/home/one/xv6-labs-2020/user/printf.c:73
     f96:	07000d93          	li	s11,112
printptr():
/home/one/xv6-labs-2020/user/printf.c:47
     f9a:	00000b97          	auipc	s7,0x0
     f9e:	4aeb8b93          	addi	s7,s7,1198 # 1448 <digits>
     fa2:	a839                	j	fc0 <vprintf+0x6a>
vprintf():
/home/one/xv6-labs-2020/user/printf.c:64
     fa4:	85a6                	mv	a1,s1
     fa6:	8556                	mv	a0,s5
     fa8:	00000097          	auipc	ra,0x0
     fac:	ee0080e7          	jalr	-288(ra) # e88 <putc>
     fb0:	a019                	j	fb6 <vprintf+0x60>
/home/one/xv6-labs-2020/user/printf.c:66
     fb2:	01498f63          	beq	s3,s4,fd0 <vprintf+0x7a>
     fb6:	0905                	addi	s2,s2,1
/home/one/xv6-labs-2020/user/printf.c:58 (discriminator 2)
     fb8:	fff94483          	lbu	s1,-1(s2)
     fbc:	14048b63          	beqz	s1,1112 <vprintf+0x1bc>
/home/one/xv6-labs-2020/user/printf.c:59
     fc0:	0004879b          	sext.w	a5,s1
/home/one/xv6-labs-2020/user/printf.c:60
     fc4:	fe0997e3          	bnez	s3,fb2 <vprintf+0x5c>
/home/one/xv6-labs-2020/user/printf.c:61
     fc8:	fd479ee3          	bne	a5,s4,fa4 <vprintf+0x4e>
/home/one/xv6-labs-2020/user/printf.c:62
     fcc:	89be                	mv	s3,a5
     fce:	b7e5                	j	fb6 <vprintf+0x60>
/home/one/xv6-labs-2020/user/printf.c:67
     fd0:	05878063          	beq	a5,s8,1010 <vprintf+0xba>
/home/one/xv6-labs-2020/user/printf.c:69
     fd4:	05978c63          	beq	a5,s9,102c <vprintf+0xd6>
/home/one/xv6-labs-2020/user/printf.c:71
     fd8:	07a78863          	beq	a5,s10,1048 <vprintf+0xf2>
/home/one/xv6-labs-2020/user/printf.c:73
     fdc:	09b78463          	beq	a5,s11,1064 <vprintf+0x10e>
/home/one/xv6-labs-2020/user/printf.c:75
     fe0:	07300713          	li	a4,115
     fe4:	0ce78563          	beq	a5,a4,10ae <vprintf+0x158>
/home/one/xv6-labs-2020/user/printf.c:83
     fe8:	06300713          	li	a4,99
     fec:	0ee78c63          	beq	a5,a4,10e4 <vprintf+0x18e>
/home/one/xv6-labs-2020/user/printf.c:85
     ff0:	11478663          	beq	a5,s4,10fc <vprintf+0x1a6>
/home/one/xv6-labs-2020/user/printf.c:89
     ff4:	85d2                	mv	a1,s4
     ff6:	8556                	mv	a0,s5
     ff8:	00000097          	auipc	ra,0x0
     ffc:	e90080e7          	jalr	-368(ra) # e88 <putc>
/home/one/xv6-labs-2020/user/printf.c:90
    1000:	85a6                	mv	a1,s1
    1002:	8556                	mv	a0,s5
    1004:	00000097          	auipc	ra,0x0
    1008:	e84080e7          	jalr	-380(ra) # e88 <putc>
/home/one/xv6-labs-2020/user/printf.c:92
    100c:	4981                	li	s3,0
    100e:	b765                	j	fb6 <vprintf+0x60>
/home/one/xv6-labs-2020/user/printf.c:68
    1010:	008b0493          	addi	s1,s6,8
    1014:	4685                	li	a3,1
    1016:	4629                	li	a2,10
    1018:	000b2583          	lw	a1,0(s6)
    101c:	8556                	mv	a0,s5
    101e:	00000097          	auipc	ra,0x0
    1022:	e8c080e7          	jalr	-372(ra) # eaa <printint>
    1026:	8b26                	mv	s6,s1
/home/one/xv6-labs-2020/user/printf.c:92
    1028:	4981                	li	s3,0
    102a:	b771                	j	fb6 <vprintf+0x60>
/home/one/xv6-labs-2020/user/printf.c:70
    102c:	008b0493          	addi	s1,s6,8
    1030:	4681                	li	a3,0
    1032:	4629                	li	a2,10
    1034:	000b2583          	lw	a1,0(s6)
    1038:	8556                	mv	a0,s5
    103a:	00000097          	auipc	ra,0x0
    103e:	e70080e7          	jalr	-400(ra) # eaa <printint>
    1042:	8b26                	mv	s6,s1
/home/one/xv6-labs-2020/user/printf.c:92
    1044:	4981                	li	s3,0
    1046:	bf85                	j	fb6 <vprintf+0x60>
/home/one/xv6-labs-2020/user/printf.c:72
    1048:	008b0493          	addi	s1,s6,8
    104c:	4681                	li	a3,0
    104e:	4641                	li	a2,16
    1050:	000b2583          	lw	a1,0(s6)
    1054:	8556                	mv	a0,s5
    1056:	00000097          	auipc	ra,0x0
    105a:	e54080e7          	jalr	-428(ra) # eaa <printint>
    105e:	8b26                	mv	s6,s1
/home/one/xv6-labs-2020/user/printf.c:92
    1060:	4981                	li	s3,0
    1062:	bf91                	j	fb6 <vprintf+0x60>
/home/one/xv6-labs-2020/user/printf.c:74
    1064:	008b0793          	addi	a5,s6,8
    1068:	f8f43423          	sd	a5,-120(s0)
    106c:	000b3983          	ld	s3,0(s6)
printptr():
/home/one/xv6-labs-2020/user/printf.c:44
    1070:	03000593          	li	a1,48
    1074:	8556                	mv	a0,s5
    1076:	00000097          	auipc	ra,0x0
    107a:	e12080e7          	jalr	-494(ra) # e88 <putc>
/home/one/xv6-labs-2020/user/printf.c:45
    107e:	85ea                	mv	a1,s10
    1080:	8556                	mv	a0,s5
    1082:	00000097          	auipc	ra,0x0
    1086:	e06080e7          	jalr	-506(ra) # e88 <putc>
    108a:	44c1                	li	s1,16
/home/one/xv6-labs-2020/user/printf.c:47
    108c:	03c9d793          	srli	a5,s3,0x3c
    1090:	97de                	add	a5,a5,s7
    1092:	0007c583          	lbu	a1,0(a5)
    1096:	8556                	mv	a0,s5
    1098:	00000097          	auipc	ra,0x0
    109c:	df0080e7          	jalr	-528(ra) # e88 <putc>
/home/one/xv6-labs-2020/user/printf.c:46
    10a0:	0992                	slli	s3,s3,0x4
    10a2:	34fd                	addiw	s1,s1,-1
    10a4:	f4e5                	bnez	s1,108c <vprintf+0x136>
vprintf():
/home/one/xv6-labs-2020/user/printf.c:74
    10a6:	f8843b03          	ld	s6,-120(s0)
/home/one/xv6-labs-2020/user/printf.c:92
    10aa:	4981                	li	s3,0
    10ac:	b729                	j	fb6 <vprintf+0x60>
/home/one/xv6-labs-2020/user/printf.c:76
    10ae:	008b0993          	addi	s3,s6,8
    10b2:	000b3483          	ld	s1,0(s6)
/home/one/xv6-labs-2020/user/printf.c:77
    10b6:	c085                	beqz	s1,10d6 <vprintf+0x180>
/home/one/xv6-labs-2020/user/printf.c:79
    10b8:	0004c583          	lbu	a1,0(s1)
    10bc:	c9a1                	beqz	a1,110c <vprintf+0x1b6>
/home/one/xv6-labs-2020/user/printf.c:80
    10be:	8556                	mv	a0,s5
    10c0:	00000097          	auipc	ra,0x0
    10c4:	dc8080e7          	jalr	-568(ra) # e88 <putc>
/home/one/xv6-labs-2020/user/printf.c:81
    10c8:	0485                	addi	s1,s1,1
/home/one/xv6-labs-2020/user/printf.c:79
    10ca:	0004c583          	lbu	a1,0(s1)
    10ce:	f9e5                	bnez	a1,10be <vprintf+0x168>
/home/one/xv6-labs-2020/user/printf.c:76
    10d0:	8b4e                	mv	s6,s3
/home/one/xv6-labs-2020/user/printf.c:92
    10d2:	4981                	li	s3,0
    10d4:	b5cd                	j	fb6 <vprintf+0x60>
/home/one/xv6-labs-2020/user/printf.c:78
    10d6:	00000497          	auipc	s1,0x0
    10da:	38a48493          	addi	s1,s1,906 # 1460 <digits+0x18>
/home/one/xv6-labs-2020/user/printf.c:79
    10de:	02800593          	li	a1,40
    10e2:	bff1                	j	10be <vprintf+0x168>
/home/one/xv6-labs-2020/user/printf.c:84
    10e4:	008b0493          	addi	s1,s6,8
    10e8:	000b4583          	lbu	a1,0(s6)
    10ec:	8556                	mv	a0,s5
    10ee:	00000097          	auipc	ra,0x0
    10f2:	d9a080e7          	jalr	-614(ra) # e88 <putc>
    10f6:	8b26                	mv	s6,s1
/home/one/xv6-labs-2020/user/printf.c:92
    10f8:	4981                	li	s3,0
    10fa:	bd75                	j	fb6 <vprintf+0x60>
/home/one/xv6-labs-2020/user/printf.c:86
    10fc:	85d2                	mv	a1,s4
    10fe:	8556                	mv	a0,s5
    1100:	00000097          	auipc	ra,0x0
    1104:	d88080e7          	jalr	-632(ra) # e88 <putc>
/home/one/xv6-labs-2020/user/printf.c:92
    1108:	4981                	li	s3,0
    110a:	b575                	j	fb6 <vprintf+0x60>
/home/one/xv6-labs-2020/user/printf.c:76
    110c:	8b4e                	mv	s6,s3
/home/one/xv6-labs-2020/user/printf.c:92
    110e:	4981                	li	s3,0
    1110:	b55d                	j	fb6 <vprintf+0x60>
/home/one/xv6-labs-2020/user/printf.c:95
    1112:	70e6                	ld	ra,120(sp)
    1114:	7446                	ld	s0,112(sp)
    1116:	74a6                	ld	s1,104(sp)
    1118:	7906                	ld	s2,96(sp)
    111a:	69e6                	ld	s3,88(sp)
    111c:	6a46                	ld	s4,80(sp)
    111e:	6aa6                	ld	s5,72(sp)
    1120:	6b06                	ld	s6,64(sp)
    1122:	7be2                	ld	s7,56(sp)
    1124:	7c42                	ld	s8,48(sp)
    1126:	7ca2                	ld	s9,40(sp)
    1128:	7d02                	ld	s10,32(sp)
    112a:	6de2                	ld	s11,24(sp)
    112c:	6109                	addi	sp,sp,128
    112e:	8082                	ret

0000000000001130 <fprintf>:
fprintf():
/home/one/xv6-labs-2020/user/printf.c:99
    1130:	715d                	addi	sp,sp,-80
    1132:	ec06                	sd	ra,24(sp)
    1134:	e822                	sd	s0,16(sp)
    1136:	1000                	addi	s0,sp,32
    1138:	e010                	sd	a2,0(s0)
    113a:	e414                	sd	a3,8(s0)
    113c:	e818                	sd	a4,16(s0)
    113e:	ec1c                	sd	a5,24(s0)
    1140:	03043023          	sd	a6,32(s0)
    1144:	03143423          	sd	a7,40(s0)
/home/one/xv6-labs-2020/user/printf.c:102
    1148:	fe843423          	sd	s0,-24(s0)
/home/one/xv6-labs-2020/user/printf.c:103
    114c:	8622                	mv	a2,s0
    114e:	00000097          	auipc	ra,0x0
    1152:	e08080e7          	jalr	-504(ra) # f56 <vprintf>
/home/one/xv6-labs-2020/user/printf.c:104
    1156:	60e2                	ld	ra,24(sp)
    1158:	6442                	ld	s0,16(sp)
    115a:	6161                	addi	sp,sp,80
    115c:	8082                	ret

000000000000115e <printf>:
printf():
/home/one/xv6-labs-2020/user/printf.c:108
    115e:	711d                	addi	sp,sp,-96
    1160:	ec06                	sd	ra,24(sp)
    1162:	e822                	sd	s0,16(sp)
    1164:	1000                	addi	s0,sp,32
    1166:	e40c                	sd	a1,8(s0)
    1168:	e810                	sd	a2,16(s0)
    116a:	ec14                	sd	a3,24(s0)
    116c:	f018                	sd	a4,32(s0)
    116e:	f41c                	sd	a5,40(s0)
    1170:	03043823          	sd	a6,48(s0)
    1174:	03143c23          	sd	a7,56(s0)
/home/one/xv6-labs-2020/user/printf.c:111
    1178:	00840613          	addi	a2,s0,8
    117c:	fec43423          	sd	a2,-24(s0)
/home/one/xv6-labs-2020/user/printf.c:112
    1180:	85aa                	mv	a1,a0
    1182:	4505                	li	a0,1
    1184:	00000097          	auipc	ra,0x0
    1188:	dd2080e7          	jalr	-558(ra) # f56 <vprintf>
/home/one/xv6-labs-2020/user/printf.c:113
    118c:	60e2                	ld	ra,24(sp)
    118e:	6442                	ld	s0,16(sp)
    1190:	6125                	addi	sp,sp,96
    1192:	8082                	ret

0000000000001194 <free>:
free():
/home/one/xv6-labs-2020/user/umalloc.c:26
    1194:	1141                	addi	sp,sp,-16
    1196:	e422                	sd	s0,8(sp)
    1198:	0800                	addi	s0,sp,16
/home/one/xv6-labs-2020/user/umalloc.c:29
    119a:	ff050693          	addi	a3,a0,-16
/home/one/xv6-labs-2020/user/umalloc.c:30
    119e:	00000797          	auipc	a5,0x0
    11a2:	2da78793          	addi	a5,a5,730 # 1478 <freep>
    11a6:	639c                	ld	a5,0(a5)
    11a8:	a805                	j	11d8 <free+0x44>
/home/one/xv6-labs-2020/user/umalloc.c:34
    11aa:	4618                	lw	a4,8(a2)
    11ac:	9db9                	addw	a1,a1,a4
    11ae:	feb52c23          	sw	a1,-8(a0)
/home/one/xv6-labs-2020/user/umalloc.c:35
    11b2:	6398                	ld	a4,0(a5)
    11b4:	6318                	ld	a4,0(a4)
    11b6:	fee53823          	sd	a4,-16(a0)
    11ba:	a091                	j	11fe <free+0x6a>
/home/one/xv6-labs-2020/user/umalloc.c:39
    11bc:	ff852703          	lw	a4,-8(a0)
    11c0:	9e39                	addw	a2,a2,a4
    11c2:	c790                	sw	a2,8(a5)
/home/one/xv6-labs-2020/user/umalloc.c:40
    11c4:	ff053703          	ld	a4,-16(a0)
    11c8:	e398                	sd	a4,0(a5)
    11ca:	a099                	j	1210 <free+0x7c>
/home/one/xv6-labs-2020/user/umalloc.c:31
    11cc:	6398                	ld	a4,0(a5)
    11ce:	00e7e463          	bltu	a5,a4,11d6 <free+0x42>
/home/one/xv6-labs-2020/user/umalloc.c:31 (discriminator 2)
    11d2:	00e6ea63          	bltu	a3,a4,11e6 <free+0x52>
/home/one/xv6-labs-2020/user/umalloc.c:26 (discriminator 1)
    11d6:	87ba                	mv	a5,a4
/home/one/xv6-labs-2020/user/umalloc.c:30 (discriminator 1)
    11d8:	fed7fae3          	bgeu	a5,a3,11cc <free+0x38>
/home/one/xv6-labs-2020/user/umalloc.c:30 (discriminator 3)
    11dc:	6398                	ld	a4,0(a5)
    11de:	00e6e463          	bltu	a3,a4,11e6 <free+0x52>
/home/one/xv6-labs-2020/user/umalloc.c:31
    11e2:	fee7eae3          	bltu	a5,a4,11d6 <free+0x42>
/home/one/xv6-labs-2020/user/umalloc.c:33
    11e6:	ff852583          	lw	a1,-8(a0)
    11ea:	6390                	ld	a2,0(a5)
    11ec:	02059713          	slli	a4,a1,0x20
    11f0:	9301                	srli	a4,a4,0x20
    11f2:	0712                	slli	a4,a4,0x4
    11f4:	9736                	add	a4,a4,a3
    11f6:	fae60ae3          	beq	a2,a4,11aa <free+0x16>
/home/one/xv6-labs-2020/user/umalloc.c:37
    11fa:	fec53823          	sd	a2,-16(a0)
/home/one/xv6-labs-2020/user/umalloc.c:38
    11fe:	4790                	lw	a2,8(a5)
    1200:	02061713          	slli	a4,a2,0x20
    1204:	9301                	srli	a4,a4,0x20
    1206:	0712                	slli	a4,a4,0x4
    1208:	973e                	add	a4,a4,a5
    120a:	fae689e3          	beq	a3,a4,11bc <free+0x28>
/home/one/xv6-labs-2020/user/umalloc.c:42
    120e:	e394                	sd	a3,0(a5)
/home/one/xv6-labs-2020/user/umalloc.c:43
    1210:	00000717          	auipc	a4,0x0
    1214:	26f73423          	sd	a5,616(a4) # 1478 <freep>
/home/one/xv6-labs-2020/user/umalloc.c:44
    1218:	6422                	ld	s0,8(sp)
    121a:	0141                	addi	sp,sp,16
    121c:	8082                	ret

000000000000121e <malloc>:
malloc():
/home/one/xv6-labs-2020/user/umalloc.c:65
    121e:	7139                	addi	sp,sp,-64
    1220:	fc06                	sd	ra,56(sp)
    1222:	f822                	sd	s0,48(sp)
    1224:	f426                	sd	s1,40(sp)
    1226:	f04a                	sd	s2,32(sp)
    1228:	ec4e                	sd	s3,24(sp)
    122a:	e852                	sd	s4,16(sp)
    122c:	e456                	sd	s5,8(sp)
    122e:	e05a                	sd	s6,0(sp)
    1230:	0080                	addi	s0,sp,64
/home/one/xv6-labs-2020/user/umalloc.c:69
    1232:	02051993          	slli	s3,a0,0x20
    1236:	0209d993          	srli	s3,s3,0x20
    123a:	09bd                	addi	s3,s3,15
    123c:	0049d993          	srli	s3,s3,0x4
    1240:	2985                	addiw	s3,s3,1
    1242:	0009891b          	sext.w	s2,s3
/home/one/xv6-labs-2020/user/umalloc.c:70
    1246:	00000797          	auipc	a5,0x0
    124a:	23278793          	addi	a5,a5,562 # 1478 <freep>
    124e:	6388                	ld	a0,0(a5)
    1250:	c515                	beqz	a0,127c <malloc+0x5e>
/home/one/xv6-labs-2020/user/umalloc.c:74
    1252:	611c                	ld	a5,0(a0)
/home/one/xv6-labs-2020/user/umalloc.c:75
    1254:	4798                	lw	a4,8(a5)
    1256:	03277f63          	bgeu	a4,s2,1294 <malloc+0x76>
    125a:	8a4e                	mv	s4,s3
    125c:	0009871b          	sext.w	a4,s3
    1260:	6685                	lui	a3,0x1
    1262:	00d77363          	bgeu	a4,a3,1268 <malloc+0x4a>
    1266:	6a05                	lui	s4,0x1
    1268:	000a0a9b          	sext.w	s5,s4
morecore():
/home/one/xv6-labs-2020/user/umalloc.c:54
    126c:	004a1a1b          	slliw	s4,s4,0x4
malloc():
/home/one/xv6-labs-2020/user/umalloc.c:86
    1270:	00000497          	auipc	s1,0x0
    1274:	20848493          	addi	s1,s1,520 # 1478 <freep>
morecore():
/home/one/xv6-labs-2020/user/umalloc.c:55
    1278:	5b7d                	li	s6,-1
    127a:	a885                	j	12ea <malloc+0xcc>
malloc():
/home/one/xv6-labs-2020/user/umalloc.c:71
    127c:	00000797          	auipc	a5,0x0
    1280:	26c78793          	addi	a5,a5,620 # 14e8 <base>
    1284:	00000717          	auipc	a4,0x0
    1288:	1ef73a23          	sd	a5,500(a4) # 1478 <freep>
    128c:	e39c                	sd	a5,0(a5)
/home/one/xv6-labs-2020/user/umalloc.c:72
    128e:	0007a423          	sw	zero,8(a5)
/home/one/xv6-labs-2020/user/umalloc.c:75
    1292:	b7e1                	j	125a <malloc+0x3c>
/home/one/xv6-labs-2020/user/umalloc.c:76
    1294:	02e90b63          	beq	s2,a4,12ca <malloc+0xac>
/home/one/xv6-labs-2020/user/umalloc.c:79
    1298:	4137073b          	subw	a4,a4,s3
    129c:	c798                	sw	a4,8(a5)
/home/one/xv6-labs-2020/user/umalloc.c:80
    129e:	1702                	slli	a4,a4,0x20
    12a0:	9301                	srli	a4,a4,0x20
    12a2:	0712                	slli	a4,a4,0x4
    12a4:	97ba                	add	a5,a5,a4
/home/one/xv6-labs-2020/user/umalloc.c:81
    12a6:	0137a423          	sw	s3,8(a5)
/home/one/xv6-labs-2020/user/umalloc.c:83
    12aa:	00000717          	auipc	a4,0x0
    12ae:	1ca73723          	sd	a0,462(a4) # 1478 <freep>
/home/one/xv6-labs-2020/user/umalloc.c:84
    12b2:	01078513          	addi	a0,a5,16
/home/one/xv6-labs-2020/user/umalloc.c:90
    12b6:	70e2                	ld	ra,56(sp)
    12b8:	7442                	ld	s0,48(sp)
    12ba:	74a2                	ld	s1,40(sp)
    12bc:	7902                	ld	s2,32(sp)
    12be:	69e2                	ld	s3,24(sp)
    12c0:	6a42                	ld	s4,16(sp)
    12c2:	6aa2                	ld	s5,8(sp)
    12c4:	6b02                	ld	s6,0(sp)
    12c6:	6121                	addi	sp,sp,64
    12c8:	8082                	ret
/home/one/xv6-labs-2020/user/umalloc.c:77
    12ca:	6398                	ld	a4,0(a5)
    12cc:	e118                	sd	a4,0(a0)
    12ce:	bff1                	j	12aa <malloc+0x8c>
morecore():
/home/one/xv6-labs-2020/user/umalloc.c:58
    12d0:	01552423          	sw	s5,8(a0)
/home/one/xv6-labs-2020/user/umalloc.c:59
    12d4:	0541                	addi	a0,a0,16
    12d6:	00000097          	auipc	ra,0x0
    12da:	ebe080e7          	jalr	-322(ra) # 1194 <free>
/home/one/xv6-labs-2020/user/umalloc.c:60
    12de:	6088                	ld	a0,0(s1)
malloc():
/home/one/xv6-labs-2020/user/umalloc.c:87
    12e0:	d979                	beqz	a0,12b6 <malloc+0x98>
/home/one/xv6-labs-2020/user/umalloc.c:74
    12e2:	611c                	ld	a5,0(a0)
/home/one/xv6-labs-2020/user/umalloc.c:75
    12e4:	4798                	lw	a4,8(a5)
    12e6:	fb2777e3          	bgeu	a4,s2,1294 <malloc+0x76>
/home/one/xv6-labs-2020/user/umalloc.c:86
    12ea:	6098                	ld	a4,0(s1)
    12ec:	853e                	mv	a0,a5
    12ee:	fef71ae3          	bne	a4,a5,12e2 <malloc+0xc4>
morecore():
/home/one/xv6-labs-2020/user/umalloc.c:54
    12f2:	8552                	mv	a0,s4
    12f4:	00000097          	auipc	ra,0x0
    12f8:	b7c080e7          	jalr	-1156(ra) # e70 <sbrk>
/home/one/xv6-labs-2020/user/umalloc.c:55
    12fc:	fd651ae3          	bne	a0,s6,12d0 <malloc+0xb2>
malloc():
/home/one/xv6-labs-2020/user/umalloc.c:88
    1300:	4501                	li	a0,0
    1302:	bf55                	j	12b6 <malloc+0x98>

Disassembly of section .rodata:

0000000000001308 <digits-0x140>:
    1308:	edd6                	sd	s5,216(sp)
    130a:	ffff                	0xffff
    130c:	ede6                	sd	s9,216(sp)
    130e:	ffff                	0xffff
    1310:	ee1e                	sd	t2,280(sp)
    1312:	ffff                	0xffff
    1314:	ee88                	sd	a0,24(a3)
    1316:	ffff                	0xffff
    1318:	ee60                	sd	s0,216(a2)
    131a:	ffff                	0xffff
    131c:	ef58                	sd	a4,152(a4)
    131e:	ffff                	0xffff
    1320:	f678                	sd	a4,232(a2)
    1322:	ffff                	0xffff
    1324:	f650                	sd	a2,168(a2)
    1326:	ffff                	0xffff
    1328:	f668                	sd	a0,232(a2)
    132a:	ffff                	0xffff
    132c:	f684                	sd	s1,40(a3)
    132e:	ffff                	0xffff
    1330:	f69a                	sd	t1,360(sp)
    1332:	ffff                	0xffff
    1334:	f6b0                	sd	a2,104(a3)
    1336:	ffff                	0xffff
    1338:	2024                	fld	fs1,64(s0)
    133a:	0000                	unimp
    133c:	0000                	unimp
    133e:	0000                	unimp
    1340:	7325                	lui	t1,0xfffe9
    1342:	000a                	c.slli	zero,0x2
    1344:	0000                	unimp
    1346:	0000                	unimp
    1348:	6f66                	ld	t5,88(sp)
    134a:	6b72                	ld	s6,280(sp)
    134c:	0000                	unimp
    134e:	0000                	unimp
    1350:	7572                	ld	a0,312(sp)
    1352:	636e                	ld	t1,216(sp)
    1354:	646d                	lui	s0,0x1b
    1356:	0000                	unimp
    1358:	7865                	lui	a6,0xffff9
    135a:	6365                	lui	t1,0x19
    135c:	2520                	fld	fs0,72(a0)
    135e:	61662073          	csrs	0x616,a2
    1362:	6c69                	lui	s8,0x1a
    1364:	6465                	lui	s0,0x19
    1366:	000a                	c.slli	zero,0x2
    1368:	6e65706f          	j	58a4e <__global_pointer$+0x56de6>
    136c:	2520                	fld	fs0,72(a0)
    136e:	61662073          	csrs	0x616,a2
    1372:	6c69                	lui	s8,0x1a
    1374:	6465                	lui	s0,0x19
    1376:	000a                	c.slli	zero,0x2
    1378:	6970                	ld	a2,208(a0)
    137a:	6570                	ld	a2,200(a0)
    137c:	0000                	unimp
    137e:	0000                	unimp
    1380:	696d                	lui	s2,0x1b
    1382:	6e697373          	csrrci	t1,0x6e6,18
    1386:	69662067          	0x69662067
    138a:	656c                	ld	a1,200(a0)
    138c:	6620                	ld	s0,72(a2)
    138e:	7220726f          	jal	tp,8ab0 <__global_pointer$+0x6e48>
    1392:	6465                	lui	s0,0x19
    1394:	7269                	lui	tp,0xffffa
    1396:	6365                	lui	t1,0x19
    1398:	6974                	ld	a3,208(a0)
    139a:	00006e6f          	jal	t3,739a <__global_pointer$+0x5732>
    139e:	0000                	unimp
    13a0:	3e3c                	fld	fa5,120(a2)
    13a2:	0000                	unimp
    13a4:	0000                	unimp
    13a6:	0000                	unimp
    13a8:	0028                	addi	a0,sp,8
    13aa:	0000                	unimp
    13ac:	0000                	unimp
    13ae:	0000                	unimp
    13b0:	746e7973          	csrrci	s2,0x746,28
    13b4:	7861                	lui	a6,0xffff8
    13b6:	0000                	unimp
    13b8:	6f74                	ld	a3,216(a4)
    13ba:	616d206f          	j	d39d0 <__global_pointer$+0xd1d68>
    13be:	796e                	ld	s2,248(sp)
    13c0:	6120                	ld	s0,64(a0)
    13c2:	6772                	ld	a4,280(sp)
    13c4:	00000073          	ecall
    13c8:	297c                	fld	fa5,208(a0)
    13ca:	3b26                	fld	fs6,104(sp)
    13cc:	0000                	unimp
    13ce:	0000                	unimp
    13d0:	007c                	addi	a5,sp,12
    13d2:	0000                	unimp
    13d4:	0000                	unimp
    13d6:	0000                	unimp
    13d8:	0026                	c.slli	zero,0x9
    13da:	0000                	unimp
    13dc:	0000                	unimp
    13de:	0000                	unimp
    13e0:	0000003b          	addw	zero,zero,zero
    13e4:	0000                	unimp
    13e6:	0000                	unimp
    13e8:	6170                	ld	a2,192(a0)
    13ea:	7372                	ld	t1,312(sp)
    13ec:	6265                	lui	tp,0x19
    13ee:	6f6c                	ld	a1,216(a4)
    13f0:	00006b63          	bltu	zero,zero,1406 <malloc+0x1e8>
    13f4:	0000                	unimp
    13f6:	0000                	unimp
    13f8:	0029                	c.nop	10
    13fa:	0000                	unimp
    13fc:	0000                	unimp
    13fe:	0000                	unimp
    1400:	746e7973          	csrrci	s2,0x746,28
    1404:	7861                	lui	a6,0xffff8
    1406:	2d20                	fld	fs0,88(a0)
    1408:	6d20                	ld	s0,88(a0)
    140a:	7369                	lui	t1,0xffffa
    140c:	676e6973          	csrrsi	s2,0x676,28
    1410:	2920                	fld	fs0,80(a0)
	...
    141e:	0000                	unimp
    1420:	656c                	ld	a1,200(a0)
    1422:	7466                	ld	s0,120(sp)
    1424:	7265766f          	jal	a2,58b4a <__global_pointer$+0x56ee2>
    1428:	25203a73          	csrrc	s4,0x252,zero
    142c:	00000a73          	0xa73
    1430:	736e6f63          	bltu	t3,s6,1b6e <__BSS_END__+0x676>
    1434:	00656c6f          	jal	s8,5743a <__global_pointer$+0x557d2>
    1438:	6e6e6163          	bltu	t3,t1,1b1a <__BSS_END__+0x622>
    143c:	6320746f          	jal	s0,8a6e <__global_pointer$+0x6e06>
    1440:	2064                	fld	fs1,192(s0)
    1442:	7325                	lui	t1,0xfffe9
    1444:	000a                	c.slli	zero,0x2
	...

0000000000001448 <digits>:
/home/one/xv6-labs-2020/user/printf.c:7
    1448:	3130                	fld	fa2,96(a0)
    144a:	3332                	fld	ft6,296(sp)
    144c:	3534                	fld	fa3,104(a0)
    144e:	3736                	fld	fa4,360(sp)
    1450:	3938                	fld	fa4,112(a0)
    1452:	4241                	li	tp,16
    1454:	46454443          	fmadd.q	fs0,fa0,ft4,fs0,rmm
	...
    1460:	6e28                	ld	a0,88(a2)
    1462:	6c75                	lui	s8,0x1d
    1464:	296c                	fld	fa1,208(a0)
	...

Disassembly of section .sdata:

0000000000001468 <symbols>:
__SDATA_BEGIN__():
    1468:	7c3c                	ld	a5,120(s0)
    146a:	263e                	fld	fa2,456(sp)
    146c:	0029283b          	0x29283b

0000000000001470 <whitespace>:
/home/one/xv6-labs-2020/user/sh.c:263
    1470:	0920                	addi	s0,sp,152
    1472:	0a0d                	addi	s4,s4,3
    1474:	          	0xb

Disassembly of section .sbss:

0000000000001478 <freep>:
	...

Disassembly of section .bss:

0000000000001480 <buf.1153>:
	...

00000000000014e8 <base>:
	...

Disassembly of section .comment:

0000000000000000 <.comment>:
getcmd():
/home/one/xv6-labs-2020/user/sh.c:136
   0:	3a434347          	fmsub.d	ft6,ft6,ft4,ft7,rmm
   4:	2820                	fld	fs0,80(s0)
   6:	69466953          	0x69466953
   a:	6576                	ld	a0,344(sp)
   c:	4720                	lw	s0,72(a4)
   e:	38204343          	fmadd.s	ft6,ft0,ft2,ft7,rmm
/home/one/xv6-labs-2020/user/sh.c:137
  12:	332e                	fld	ft6,232(sp)
  14:	302e                	fld	ft0,232(sp)
  16:	322d                	addiw	tp,tp,-21
  18:	3230                	fld	fa2,96(a2)
  1a:	2e30                	fld	fa2,88(a2)
  1c:	3430                	fld	fa2,104(s0)
  1e:	302e                	fld	ft0,232(sp)
  20:	2029                	0x2029
/home/one/xv6-labs-2020/user/sh.c:138
  22:	2e38                	fld	fa4,88(a2)
  24:	00302e33          	sgtz	t3,gp

Disassembly of section .riscv.attributes:

0000000000000000 <.riscv.attributes>:
/home/one/xv6-labs-2020/user/sh.c:136
   0:	3441                	addiw	s0,s0,-16
   2:	0000                	unimp
   4:	7200                	ld	s0,32(a2)
   6:	7369                	lui	t1,0xffffa
   8:	01007663          	bgeu	zero,a6,14 <getcmd+0x14>
   c:	002a                	c.slli	zero,0xa
   e:	0000                	unimp
/home/one/xv6-labs-2020/user/sh.c:137
  10:	1004                	addi	s1,sp,32
  12:	7205                	lui	tp,0xfffe1
  14:	3676                	fld	fa2,376(sp)
  16:	6934                	ld	a3,80(a0)
  18:	7032                	0x7032
  1a:	5f30                	lw	a2,120(a4)
  1c:	326d                	addiw	tp,tp,-5
  1e:	3070                	fld	fa2,224(s0)
  20:	615f 7032 5f30      	0x5f307032615f
/home/one/xv6-labs-2020/user/sh.c:138
  26:	3266                	fld	ft4,120(sp)
  28:	3070                	fld	fa2,224(s0)
  2a:	645f 7032 5f30      	0x5f307032645f
/home/one/xv6-labs-2020/user/sh.c:139
  30:	30703263          	0x30703263
	...

Disassembly of section .debug_aranges:

0000000000000000 <.debug_aranges>:
/home/one/xv6-labs-2020/user/sh.c:136
   0:	002c                	addi	a1,sp,8
   2:	0000                	unimp
   4:	0002                	c.slli64	zero
   6:	0000                	unimp
   8:	0000                	unimp
   a:	0008                	0x8
	...
/home/one/xv6-labs-2020/user/sh.c:137
  18:	0b58                	addi	a4,sp,404
	...
/home/one/xv6-labs-2020/user/sh.c:138
  2e:	0000                	unimp
/home/one/xv6-labs-2020/user/sh.c:139
  30:	002c                	addi	a1,sp,8
  32:	0000                	unimp
  34:	0002                	c.slli64	zero
  36:	15cc                	addi	a1,sp,740
  38:	0000                	unimp
  3a:	0008                	0x8
/home/one/xv6-labs-2020/user/sh.c:140
  3c:	0000                	unimp
  3e:	0000                	unimp
  40:	0b58                	addi	a4,sp,404
  42:	0000                	unimp
/home/one/xv6-labs-2020/user/sh.c:143
  44:	0000                	unimp
  46:	0000                	unimp
  48:	0288                	addi	a0,sp,320
	...
panic():
/home/one/xv6-labs-2020/user/sh.c:178
  5e:	0000                	unimp
  60:	002c                	addi	a1,sp,8
  62:	0000                	unimp
  64:	0002                	c.slli64	zero
  66:	1b18                	addi	a4,sp,432
  68:	0000                	unimp
  6a:	0008                	0x8
  6c:	0000                	unimp
  6e:	0000                	unimp
/home/one/xv6-labs-2020/user/sh.c:179
  70:	0de0                	addi	s0,sp,732
  72:	0000                	unimp
  74:	0000                	unimp
  76:	0000                	unimp
  78:	00a8                	addi	a0,sp,72
	...
fork1():
/home/one/xv6-labs-2020/user/sh.c:188
  8e:	0000                	unimp
/home/one/xv6-labs-2020/user/sh.c:191
  90:	002c                	addi	a1,sp,8
  92:	0000                	unimp
  94:	0002                	c.slli64	zero
  96:	1b46                	slli	s6,s6,0x31
/home/one/xv6-labs-2020/user/sh.c:189
  98:	0000                	unimp
  9a:	0008                	0x8
  9c:	0000                	unimp
  9e:	0000                	unimp
  a0:	0e88                	addi	a0,sp,848
  a2:	0000                	unimp
  a4:	0000                	unimp
  a6:	0000                	unimp
runcmd():
/home/one/xv6-labs-2020/user/sh.c:59
  a8:	030c                	addi	a1,sp,384
	...
/home/one/xv6-labs-2020/user/sh.c:70
  be:	0000                	unimp
  c0:	002c                	addi	a1,sp,8
  c2:	0000                	unimp
  c4:	0002                	c.slli64	zero
  c6:	204d                	0x204d
  c8:	0000                	unimp
  ca:	0008                	0x8
  cc:	0000                	unimp
  ce:	0000                	unimp
  d0:	1194                	addi	a3,sp,224
  d2:	0000                	unimp
/home/one/xv6-labs-2020/user/sh.c:68
  d4:	0000                	unimp
  d6:	0000                	unimp
  d8:	0170                	addi	a2,sp,140
	...

Disassembly of section .debug_info:

0000000000000000 <.debug_info>:
getcmd():
/home/one/xv6-labs-2020/user/sh.c:136
       0:	15c8                	addi	a0,sp,740
       2:	0000                	unimp
       4:	0004                	0x4
       6:	0000                	unimp
       8:	0000                	unimp
       a:	0108                	addi	a0,sp,128
       c:	015e                	slli	sp,sp,0x17
       e:	0000                	unimp
/home/one/xv6-labs-2020/user/sh.c:137
      10:	690c                	ld	a1,16(a0)
      12:	0000                	unimp
      14:	2f00                	fld	fs0,24(a4)
      16:	0001                	nop
	...
      20:	5800                	lw	s0,48(s0)
/home/one/xv6-labs-2020/user/sh.c:138
      22:	0000000b          	0xb
      26:	0000                	unimp
      28:	0000                	unimp
      2a:	0000                	unimp
      2c:	0200                	addi	s0,sp,256
      2e:	0704                	addi	s1,sp,896
/home/one/xv6-labs-2020/user/sh.c:139
      30:	0098                	addi	a4,sp,64
      32:	0000                	unimp
      34:	0202                	c.slli64	tp
      36:	0000aa07          	flw	fs4,0(ra)
      3a:	0200                	addi	s0,sp,256
/home/one/xv6-labs-2020/user/sh.c:140
      3c:	0801                	addi	a6,a6,0
      3e:	0000007b          	0x7b
      42:	0802                	c.slli64	a6
/home/one/xv6-labs-2020/user/sh.c:143
      44:	00009307          	0x9307
      48:	0300                	addi	s0,sp,384
      4a:	00646d63          	bltu	s0,t1,64 <panic+0x10>
      4e:	0104                	addi	s1,sp,128
      50:	0810                	addi	a2,sp,16
      52:	0064                	addi	s1,sp,12
panic():
/home/one/xv6-labs-2020/user/sh.c:177
      54:	0000                	unimp
      56:	4704                	lw	s1,8(a4)
      58:	0001                	nop
      5a:	0100                	addi	s0,sp,128
/home/one/xv6-labs-2020/user/sh.c:178
      5c:	0711                	addi	a4,a4,4
      5e:	0064                	addi	s1,sp,12
      60:	0000                	unimp
      62:	0000                	unimp
      64:	0405                	addi	s0,s0,1
      66:	6905                	lui	s2,0x1
      68:	746e                	ld	s0,248(sp)
      6a:	0600                	addi	s0,sp,768
      6c:	0054                	addi	a3,sp,4
      6e:	0000                	unimp
/home/one/xv6-labs-2020/user/sh.c:179
      70:	01a8                	addi	a0,sp,200
      72:	0814                	addi	a3,sp,16
      74:	00a0                	addi	s0,sp,72
      76:	0000                	unimp
      78:	4704                	lw	s1,8(a4)
fork1():
/home/one/xv6-labs-2020/user/sh.c:184
      7a:	0001                	nop
      7c:	0100                	addi	s0,sp,128
      7e:	0715                	addi	a4,a4,5
      80:	0064                	addi	s1,sp,12
/home/one/xv6-labs-2020/user/sh.c:187
      82:	0000                	unimp
      84:	0400                	addi	s0,sp,512
      86:	0000020b          	0x20b
/home/one/xv6-labs-2020/user/sh.c:188
      8a:	1601                	addi	a2,a2,-32
      8c:	a009                	j	8e <fork1+0x14>
      8e:	0000                	unimp
/home/one/xv6-labs-2020/user/sh.c:191
      90:	0800                	addi	s0,sp,16
      92:	0a04                	addi	s1,sp,272
      94:	0002                	c.slli64	zero
      96:	0100                	addi	s0,sp,128
/home/one/xv6-labs-2020/user/sh.c:189
      98:	00a00917          	auipc	s2,0xa00
      9c:	0000                	unimp
      9e:	0058                	addi	a4,sp,4
      a0:	0000b007          	fld	ft0,0(ra)
      a4:	b000                	fsd	fs0,32(s0)
      a6:	0000                	unimp
runcmd():
/home/one/xv6-labs-2020/user/sh.c:59
      a8:	0800                	addi	s0,sp,16
      aa:	0042                	c.slli	zero,0x10
      ac:	0000                	unimp
      ae:	0009                	c.nop	2
      b0:	0809                	addi	a6,a6,2
/home/one/xv6-labs-2020/user/sh.c:67
      b2:	00b6                	slli	ra,ra,0xd
      b4:	0000                	unimp
/home/one/xv6-labs-2020/user/sh.c:70
      b6:	0102                	c.slli64	sp
      b8:	8408                	0x8408
      ba:	0000                	unimp
      bc:	0600                	addi	s0,sp,768
      be:	0210                	addi	a2,sp,256
      c0:	0000                	unimp
      c2:	0128                	addi	a0,sp,136
      c4:	081a                	slli	a6,a6,0x6
      c6:	0118                	addi	a4,sp,128
      c8:	0000                	unimp
      ca:	4704                	lw	s1,8(a4)
      cc:	0001                	nop
      ce:	0100                	addi	s0,sp,128
      d0:	0064071b          	addiw	a4,s0,6
/home/one/xv6-labs-2020/user/sh.c:68
      d4:	0000                	unimp
      d6:	0a00                	addi	s0,sp,272
      d8:	00646d63          	bltu	s0,t1,f2 <runcmd+0x4a>
      dc:	1c01                	addi	s8,s8,-32
/home/one/xv6-labs-2020/user/sh.c:72
      de:	0001180f          	0x1180f
      e2:	0800                	addi	s0,sp,16
      e4:	0504                	addi	s1,sp,640
      e6:	0002                	c.slli64	zero
      e8:	0100                	addi	s0,sp,128
      ea:	091d                	addi	s2,s2,7
      ec:	00b0                	addi	a2,sp,72
/home/one/xv6-labs-2020/user/sh.c:76
      ee:	0000                	unimp
      f0:	0410                	addi	a2,sp,512
/home/one/xv6-labs-2020/user/sh.c:79
      f2:	0204                	addi	s1,sp,256
      f4:	0000                	unimp
      f6:	1e01                	addi	t3,t3,-32
      f8:	b009                	j	fffffffffffff8fa <__global_pointer$+0xffffffffffffdc92>
      fa:	0000                	unimp
      fc:	1800                	addi	s0,sp,48
/home/one/xv6-labs-2020/user/sh.c:80
      fe:	0904                	addi	s1,sp,144
     100:	0001                	nop
     102:	0100                	addi	s0,sp,128
     104:	071f 0064 0000      	0x64071f
     10a:	0a20                	addi	s0,sp,280
     10c:	6466                	ld	s0,88(sp)
     10e:	0100                	addi	s0,sp,128
     110:	0720                	addi	s0,sp,904
/home/one/xv6-labs-2020/user/sh.c:131
     112:	0064                	addi	s1,sp,12
     114:	0000                	unimp
     116:	0024                	addi	s1,sp,8
     118:	0809                	addi	a6,a6,2
     11a:	0049                	c.nop	18
/home/one/xv6-labs-2020/user/sh.c:77
     11c:	0000                	unimp
     11e:	fa06                	sd	ra,304(sp)
     120:	0000                	unimp
     122:	1800                	addi	s0,sp,48
     124:	2301                	sext.w	t1,t1
/home/one/xv6-labs-2020/user/sh.c:85
     126:	5308                	lw	a0,32(a4)
     128:	0001                	nop
     12a:	0400                	addi	s0,sp,512
     12c:	00000147          	fmsub.s	ft2,ft0,ft0,ft0,rne
/home/one/xv6-labs-2020/user/sh.c:86
     130:	2401                	sext.w	s0,s0
     132:	00006407          	0x6407
     136:	0000                	unimp
     138:	4004                	lw	s1,0(s0)
     13a:	0000                	unimp
     13c:	0100                	addi	s0,sp,128
     13e:	0f25                	addi	t5,t5,9
/home/one/xv6-labs-2020/user/sh.c:90
     140:	0118                	addi	a4,sp,128
     142:	0000                	unimp
     144:	0408                	addi	a0,sp,512
     146:	00f4                	addi	a3,sp,76
     148:	0000                	unimp
/home/one/xv6-labs-2020/user/sh.c:87
     14a:	2601                	sext.w	a2,a2
     14c:	0001180f          	0x1180f
     150:	1000                	addi	s0,sp,32
     152:	0600                	addi	s0,sp,768
     154:	0045                	c.nop	17
     156:	0000                	unimp
     158:	0118                	addi	a4,sp,128
     15a:	0829                	addi	a6,a6,10
     15c:	0188                	addi	a0,sp,192
/home/one/xv6-labs-2020/user/sh.c:88
     15e:	0000                	unimp
     160:	4704                	lw	s1,8(a4)
     162:	0001                	nop
     164:	0100                	addi	s0,sp,128
     166:	072a                	slli	a4,a4,0xa
/home/one/xv6-labs-2020/user/sh.c:95
     168:	0064                	addi	s1,sp,12
     16a:	0000                	unimp
     16c:	0400                	addi	s0,sp,512
     16e:	0040                	addi	s0,sp,4
     170:	0000                	unimp
/home/one/xv6-labs-2020/user/sh.c:97
     172:	2b01                	sext.w	s6,s6
     174:	0001180f          	0x1180f
     178:	0800                	addi	s0,sp,16
     17a:	f404                	sd	s1,40(s0)
/home/one/xv6-labs-2020/user/sh.c:98
     17c:	0000                	unimp
     17e:	0100                	addi	s0,sp,128
     180:	0f2c                	addi	a1,sp,920
     182:	0118                	addi	a4,sp,128
     184:	0000                	unimp
/home/one/xv6-labs-2020/user/sh.c:96
     186:	0010                	0x10
     188:	1506                	slli	a0,a0,0x21
     18a:	0000                	unimp
     18c:	1000                	addi	s0,sp,32
     18e:	2f01                	sext.w	t5,t5
/home/one/xv6-labs-2020/user/sh.c:103
     190:	b008                	fsd	fa0,32(s0)
     192:	0001                	nop
     194:	0400                	addi	s0,sp,512
     196:	00000147          	fmsub.s	ft2,ft0,ft0,ft0,rne
     19a:	3001                	0x3001
     19c:	00006407          	0x6407
/home/one/xv6-labs-2020/user/sh.c:105
     1a0:	0000                	unimp
     1a2:	630a                	ld	t1,128(sp)
     1a4:	646d                	lui	s0,0x1b
     1a6:	0100                	addi	s0,sp,128
     1a8:	0f31                	addi	t5,t5,12
/home/one/xv6-labs-2020/user/sh.c:112
     1aa:	0118                	addi	a4,sp,128
     1ac:	0000                	unimp
     1ae:	0008                	0x8
     1b0:	0000b607          	fld	fa2,0(ra)
/home/one/xv6-labs-2020/user/sh.c:119
     1b4:	c000                	sw	s0,0(s0)
     1b6:	0001                	nop
     1b8:	0800                	addi	s0,sp,16
     1ba:	0042                	c.slli	zero,0x10
     1bc:	0000                	unimp
     1be:	0005                	c.nop	1
/home/one/xv6-labs-2020/user/sh.c:120
     1c0:	0000290b          	0x290b
     1c4:	0100                	addi	s0,sp,128
     1c6:	b0060107          	0xb0060107
     1ca:	0001                	nop
/home/one/xv6-labs-2020/user/sh.c:121
     1cc:	0900                	addi	s0,sp,144
     1ce:	00147003          	0x147003
     1d2:	0000                	unimp
     1d4:	0000                	unimp
/home/one/xv6-labs-2020/user/sh.c:122
     1d6:	0700                	addi	s0,sp,896
     1d8:	00b6                	slli	ra,ra,0xd
     1da:	0000                	unimp
     1dc:	000001e7          	jalr	gp,zero # 0 <getcmd>
/home/one/xv6-labs-2020/user/sh.c:123
     1e0:	4208                	lw	a0,0(a2)
/home/one/xv6-labs-2020/user/sh.c:104
     1e2:	0000                	unimp
     1e4:	0700                	addi	s0,sp,896
     1e6:	0b00                	addi	s0,sp,400
     1e8:	00000073          	ecall
     1ec:	0801                	addi	a6,a6,0
     1ee:	0601                	addi	a2,a2,0
     1f0:	000001d7          	0x1d7
/home/one/xv6-labs-2020/user/sh.c:106
     1f4:	0309                	addi	t1,t1,2
     1f6:	1468                	addi	a0,sp,556
     1f8:	0000                	unimp
     1fa:	0000                	unimp
/home/one/xv6-labs-2020/user/sh.c:107
     1fc:	0000                	unimp
     1fe:	510c                	lw	a1,32(a0)
     200:	0001                	nop
     202:	0100                	addi	s0,sp,128
     204:	180101c3          	fmadd.s	ft3,ft2,ft0,ft3,rne
/home/one/xv6-labs-2020/user/sh.c:108
     208:	0001                	nop
     20a:	4400                	lw	s0,8(s0)
     20c:	0009                	c.nop	2
     20e:	0000                	unimp
     210:	0000                	unimp
     212:	9800                	0x9800
/home/one/xv6-labs-2020/user/sh.c:109
     214:	0000                	unimp
     216:	0000                	unimp
     218:	0000                	unimp
     21a:	0100                	addi	s0,sp,128
     21c:	df9c                	sw	a5,56(a5)
     21e:	0002                	c.slli64	zero
/home/one/xv6-labs-2020/user/sh.c:110
     220:	0d00                	addi	s0,sp,656
     222:	00646d63          	bltu	s0,t1,23c <runcmd+0x194>
     226:	c301                	beqz	a4,226 <runcmd+0x17e>
     228:	1a01                	addi	s4,s4,-32
/home/one/xv6-labs-2020/user/sh.c:113
     22a:	0118                	addi	a4,sp,128
     22c:	0000                	unimp
     22e:	0000                	unimp
     230:	0000                	unimp
/home/one/xv6-labs-2020/user/sh.c:114
     232:	690e                	ld	s2,192(sp)
     234:	0100                	addi	s0,sp,128
     236:	01c5                	addi	gp,gp,17
     238:	00006407          	0x6407
     23c:	5c00                	lw	s0,56(s0)
/home/one/xv6-labs-2020/user/sh.c:115
     23e:	0000                	unimp
     240:	0f00                	addi	s0,sp,912
     242:	00d9                	addi	ra,ra,22
     244:	0000                	unimp
     246:	c601                	beqz	a2,24e <runcmd+0x1a6>
     248:	1301                	addi	t1,t1,-32
/home/one/xv6-labs-2020/user/sh.c:116
     24a:	02df 0000 5901      	0x5901000002df
     250:	fd10                	sd	a2,56(a0)
     252:	0000                	unimp
     254:	0100                	addi	s0,sp,128
/home/one/xv6-labs-2020/user/sh.c:117
     256:	e51301c7          	0xe51301c7
     25a:	0002                	c.slli64	zero
     25c:	1100                	addi	s0,sp,160
     25e:	0000                	unimp
/home/one/xv6-labs-2020/user/sh.c:127
     260:	0000                	unimp
     262:	c801                	beqz	s0,272 <runcmd+0x1ca>
     264:	1301                	addi	t1,t1,-32
     266:	000002eb          	0x2eb
     26a:	0080                	addi	s0,sp,64
/home/one/xv6-labs-2020/user/sh.c:128
     26c:	0000                	unimp
     26e:	ff11                	bnez	a4,18a <runcmd+0xe2>
     270:	0001                	nop
     272:	0100                	addi	s0,sp,128
     274:	01c9                	addi	gp,gp,18
execcmd():
/home/one/xv6-labs-2020/user/sh.c:198
     276:	0002f113          	andi	sp,t0,0
     27a:	a300                	fsd	fs0,0(a4)
     27c:	0000                	unimp
     27e:	1100                	addi	s0,sp,160
/home/one/xv6-labs-2020/user/sh.c:201
     280:	0214                	addi	a3,sp,256
     282:	0000                	unimp
     284:	ca01                	beqz	a2,294 <execcmd+0x1e>
     286:	1401                	addi	s0,s0,-32
     288:	000002f7          	0x2f7
     28c:	00c6                	slli	ra,ra,0x11
/home/one/xv6-labs-2020/user/sh.c:202
     28e:	0000                	unimp
     290:	9212                	add	tp,tp,tp
     292:	0009                	c.nop	2
     294:	0000                	unimp
     296:	0000                	unimp
     298:	fe00                	sd	s0,56(a2)
     29a:	0001                	nop
/home/one/xv6-labs-2020/user/sh.c:203
     29c:	1200                	addi	s0,sp,288
     29e:	09ae                	slli	s3,s3,0xb
/home/one/xv6-labs-2020/user/sh.c:205
     2a0:	0000                	unimp
     2a2:	0000                	unimp
     2a4:	0000                	unimp
     2a6:	01fe                	slli	gp,gp,0x1f
     2a8:	0000                	unimp
     2aa:	b812                	fsd	ft4,48(sp)
redircmd():
/home/one/xv6-labs-2020/user/sh.c:209
     2ac:	0009                	c.nop	2
     2ae:	0000                	unimp
     2b0:	0000                	unimp
     2b2:	fe00                	sd	s0,56(a2)
     2b4:	0001                	nop
     2b6:	1200                	addi	s0,sp,288
     2b8:	09c4                	addi	s1,sp,212
     2ba:	0000                	unimp
     2bc:	0000                	unimp
     2be:	0000                	unimp
     2c0:	01fe                	slli	gp,gp,0x1f
     2c2:	0000                	unimp
     2c4:	ce12                	sw	tp,28(sp)
     2c6:	0009                	c.nop	2
     2c8:	0000                	unimp
/home/one/xv6-labs-2020/user/sh.c:212
     2ca:	0000                	unimp
     2cc:	fe00                	sd	s0,56(a2)
     2ce:	0001                	nop
     2d0:	1200                	addi	s0,sp,288
     2d2:	09da                	slli	s3,s3,0x16
     2d4:	0000                	unimp
     2d6:	0000                	unimp
/home/one/xv6-labs-2020/user/sh.c:213
     2d8:	0000                	unimp
     2da:	01fe                	slli	gp,gp,0x1f
     2dc:	0000                	unimp
     2de:	0900                	addi	s0,sp,144
     2e0:	8808                	0x8808
     2e2:	0001                	nop
     2e4:	0900                	addi	s0,sp,144
/home/one/xv6-labs-2020/user/sh.c:214
     2e6:	6b08                	ld	a0,16(a4)
     2e8:	0000                	unimp
/home/one/xv6-labs-2020/user/sh.c:215
     2ea:	0900                	addi	s0,sp,144
     2ec:	5308                	lw	a0,32(a4)
/home/one/xv6-labs-2020/user/sh.c:216
     2ee:	0001                	nop
     2f0:	0900                	addi	s0,sp,144
/home/one/xv6-labs-2020/user/sh.c:217
     2f2:	1e08                	addi	a0,sp,816
     2f4:	0001                	nop
/home/one/xv6-labs-2020/user/sh.c:218
     2f6:	0900                	addi	s0,sp,144
     2f8:	bd08                	fsd	fa0,56(a0)
/home/one/xv6-labs-2020/user/sh.c:219
     2fa:	0000                	unimp
     2fc:	0c00                	addi	s0,sp,528
/home/one/xv6-labs-2020/user/sh.c:221
     2fe:	0219                	addi	tp,tp,6
     300:	0000                	unimp
     302:	a101                	j	702 <parseexec+0x7c>
     304:	0101                	addi	sp,sp,0
     306:	0118                	addi	a4,sp,128
     308:	0000                	unimp
     30a:	0686                	slli	a3,a3,0x1
     30c:	0000                	unimp
     30e:	0000                	unimp
     310:	0000                	unimp
     312:	0104                	addi	s1,sp,128
pipecmd():
/home/one/xv6-labs-2020/user/sh.c:225
     314:	0000                	unimp
     316:	0000                	unimp
     318:	0000                	unimp
     31a:	9c01                	subw	s0,s0,s0
     31c:	04cc                	addi	a1,sp,580
     31e:	0000                	unimp
     320:	700d                	c.lui	zero,0xfffe3
     322:	a1010073          	0xa1010073
/home/one/xv6-labs-2020/user/sh.c:228
     326:	1201                	addi	tp,tp,-32
     328:	04cc                	addi	a1,sp,580
     32a:	0000                	unimp
     32c:	00e9                	addi	ra,ra,26
     32e:	0000                	unimp
     330:	650d                	lui	a0,0x3
/home/one/xv6-labs-2020/user/sh.c:229
     332:	a1010073          	0xa1010073
     336:	1c01                	addi	s8,s8,-32
     338:	00b0                	addi	a2,sp,72
     33a:	0000                	unimp
     33c:	0148                	addi	a0,sp,132
/home/one/xv6-labs-2020/user/sh.c:230
     33e:	0000                	unimp
     340:	01007113          	andi	sp,zero,16
/home/one/xv6-labs-2020/user/sh.c:231
     344:	b00901a3          	sb	zero,-1277(s2) # 9ffb9b <__global_pointer$+0x9fdf33>
/home/one/xv6-labs-2020/user/sh.c:232
     348:	0000                	unimp
/home/one/xv6-labs-2020/user/sh.c:234
     34a:	0300                	addi	s0,sp,384
     34c:	9891                	andi	s1,s1,-28
     34e:	137f                	0x137f
     350:	7165                	addi	sp,sp,-400
     352:	0100                	addi	s0,sp,128
     354:	b00d01a3          	sb	zero,-1277(s10)
     358:	0000                	unimp
listcmd():
/home/one/xv6-labs-2020/user/sh.c:238
     35a:	0300                	addi	s0,sp,384
     35c:	9091                	srli	s1,s1,0x24
     35e:	0e7f                	0xe7f
     360:	6f74                	ld	a3,216(a4)
     362:	a401006b          	0xa401006b
     366:	0701                	addi	a4,a4,0
     368:	0064                	addi	s1,sp,12
     36a:	0000                	unimp
/home/one/xv6-labs-2020/user/sh.c:241
     36c:	000001a7          	0x1a7
     370:	1c11                	addi	s8,s8,-28
     372:	0001                	nop
     374:	0100                	addi	s0,sp,128
     376:	01a4                	addi	s1,sp,200
/home/one/xv6-labs-2020/user/sh.c:242
     378:	640c                	ld	a1,8(s0)
     37a:	0000                	unimp
     37c:	f000                	sd	s0,32(s0)
     37e:	0001                	nop
     380:	0e00                	addi	s0,sp,784
     382:	00646d63          	bltu	s0,t1,39c <listcmd+0x42>
/home/one/xv6-labs-2020/user/sh.c:243
     386:	a501                	j	986 <nulterminate+0x42>
/home/one/xv6-labs-2020/user/sh.c:244
     388:	1301                	addi	t1,t1,-32
     38a:	02e5                	addi	t0,t0,25
/home/one/xv6-labs-2020/user/sh.c:245
     38c:	0000                	unimp
     38e:	024d                	addi	tp,tp,19
/home/one/xv6-labs-2020/user/sh.c:247
     390:	0000                	unimp
     392:	720e                	ld	tp,224(sp)
     394:	7465                	lui	s0,0xffff9
     396:	0100                	addi	s0,sp,128
     398:	01a6                	slli	gp,gp,0x9
     39a:	0001180f          	0x1180f
     39e:	9600                	0x9600
backcmd():
/home/one/xv6-labs-2020/user/sh.c:251
     3a0:	0002                	c.slli64	zero
     3a2:	1400                	addi	s0,sp,544
     3a4:	06b4                	addi	a3,sp,840
     3a6:	0000                	unimp
     3a8:	0000                	unimp
     3aa:	0000                	unimp
     3ac:	00000b2b          	0xb2b
/home/one/xv6-labs-2020/user/sh.c:254
     3b0:	03ce                	slli	t2,t2,0x13
     3b2:	0000                	unimp
     3b4:	0115                	addi	sp,sp,5
     3b6:	025a                	slli	tp,tp,0x16
     3b8:	01150083          	lb	ra,17(a0) # 3011 <__global_pointer$+0x13a9>
/home/one/xv6-labs-2020/user/sh.c:255
     3bc:	0084025b          	0x84025b
     3c0:	0115                	addi	sp,sp,5
     3c2:	095c                	addi	a5,sp,148
     3c4:	0013a803          	lw	a6,1(t2)
/home/one/xv6-labs-2020/user/sh.c:256
     3c8:	0000                	unimp
/home/one/xv6-labs-2020/user/sh.c:257
     3ca:	0000                	unimp
     3cc:	0000                	unimp
/home/one/xv6-labs-2020/user/sh.c:259
     3ce:	c012                	sw	tp,0(sp)
     3d0:	0006                	c.slli	zero,0x1
     3d2:	0000                	unimp
     3d4:	0000                	unimp
     3d6:	db00                	sw	s0,48(a4)
     3d8:	000e                	c.slli	zero,0x3
     3da:	1400                	addi	s0,sp,544
gettoken():
/home/one/xv6-labs-2020/user/sh.c:268
     3dc:	06ce                	slli	a3,a3,0x13
     3de:	0000                	unimp
     3e0:	0000                	unimp
     3e2:	0000                	unimp
     3e4:	0649                	addi	a2,a2,18
     3e6:	0000                	unimp
     3e8:	03ff                	0x3ff
     3ea:	0000                	unimp
     3ec:	0115                	addi	sp,sp,5
     3ee:	025a                	slli	tp,tp,0x16
     3f0:	0088                	addi	a0,sp,64
     3f2:	0115                	addi	sp,sp,5
     3f4:	0083025b          	0x83025b
/home/one/xv6-labs-2020/user/sh.c:272
     3f8:	0115                	addi	sp,sp,5
/home/one/xv6-labs-2020/user/sh.c:273
     3fa:	025c                	addi	a5,sp,260
     3fc:	0084                	addi	s1,sp,64
     3fe:	1400                	addi	s0,sp,544
     400:	06f0                	addi	a2,sp,844
     402:	0000                	unimp
     404:	0000                	unimp
/home/one/xv6-labs-2020/user/sh.c:273 (discriminator 1)
     406:	0000                	unimp
     408:	04d2                	slli	s1,s1,0x14
     40a:	0000                	unimp
     40c:	041d                	addi	s0,s0,7
     40e:	0000                	unimp
     410:	0115                	addi	sp,sp,5
     412:	025a                	slli	tp,tp,0x16
     414:	01150083          	lb	ra,17(a0)
/home/one/xv6-labs-2020/user/sh.c:273
     418:	0084025b          	0x84025b
/home/one/xv6-labs-2020/user/sh.c:275
     41c:	1400                	addi	s0,sp,544
     41e:	071e                	slli	a4,a4,0x7
/home/one/xv6-labs-2020/user/sh.c:276
     420:	0000                	unimp
     422:	0000                	unimp
/home/one/xv6-labs-2020/user/sh.c:277
     424:	0000                	unimp
     426:	0fa0                	addi	s0,sp,984
     428:	0000                	unimp
     42a:	043c                	addi	a5,sp,520
/home/one/xv6-labs-2020/user/sh.c:278
     42c:	0000                	unimp
     42e:	0115                	addi	sp,sp,5
     430:	095a                	slli	s2,s2,0x16
     432:	0013b003          	ld	zero,1(t2)
     436:	0000                	unimp
     438:	0000                	unimp
     43a:	0000                	unimp
     43c:	2c14                	fld	fa3,24(s0)
/home/one/xv6-labs-2020/user/sh.c:302
     43e:	00000007          	0x7
/home/one/xv6-labs-2020/user/sh.c:303
     442:	0000                	unimp
     444:	4900                	lw	s0,16(a0)
/home/one/xv6-labs-2020/user/sh.c:305
     446:	0006                	c.slli	zero,0x1
     448:	6000                	ld	s0,0(s0)
     44a:	0004                	0x4
     44c:	1500                	addi	s0,sp,672
     44e:	5a01                	li	s4,-32
     450:	8502                	jr	a0
/home/one/xv6-labs-2020/user/sh.c:305 (discriminator 1)
     452:	1500                	addi	s0,sp,672
     454:	5b01                	li	s6,-32
     456:	8302                	jr	t1
     458:	1500                	addi	s0,sp,672
     45a:	5c01                	li	s8,-32
     45c:	8402                	jr	s0
     45e:	0000                	unimp
     460:	3c14                	fld	fa3,56(s0)
/home/one/xv6-labs-2020/user/sh.c:306
     462:	00000007          	0x7
/home/one/xv6-labs-2020/user/sh.c:305
     466:	0000                	unimp
/home/one/xv6-labs-2020/user/sh.c:307
     468:	2b00                	fld	fs0,16(a4)
     46a:	8400000b          	0x8400000b
/home/one/xv6-labs-2020/user/sh.c:309
     46e:	0004                	0x4
     470:	1500                	addi	s0,sp,672
     472:	5a01                	li	s4,-32
     474:	8302                	jr	t1
     476:	1500                	addi	s0,sp,672
     478:	5b01                	li	s6,-32
     47a:	8402                	jr	s0
     47c:	1500                	addi	s0,sp,672
     47e:	5c01                	li	s8,-32
     480:	8602                	jr	a2
/home/one/xv6-labs-2020/user/sh.c:278
     482:	0000                	unimp
     484:	5214                	lw	a3,32(a2)
     486:	00000007          	0x7
/home/one/xv6-labs-2020/user/sh.c:298
     48a:	0000                	unimp
     48c:	bb00                	fsd	fs0,48(a4)
     48e:	b000000b          	0xb000000b
     492:	0004                	0x4
     494:	1500                	addi	s0,sp,672
     496:	5a01                	li	s4,-32
     498:	8302                	jr	t1
     49a:	1500                	addi	s0,sp,672
     49c:	5b01                	li	s6,-32
/home/one/xv6-labs-2020/user/sh.c:298 (discriminator 1)
     49e:	8402                	jr	s0
     4a0:	1500                	addi	s0,sp,672
     4a2:	5c01                	li	s8,-32
     4a4:	7f987803          	0x7f987803
     4a8:	0115                	addi	sp,sp,5
     4aa:	035d                	addi	t1,t1,23
     4ac:	9078                	0x9078
/home/one/xv6-labs-2020/user/sh.c:298 (discriminator 2)
     4ae:	007f                	0x7f
     4b0:	7c16                	ld	s8,352(sp)
     4b2:	00000007          	0x7
     4b6:	0000                	unimp
     4b8:	a000                	fsd	fs0,0(s0)
     4ba:	1500000f          	0x1500000f
/home/one/xv6-labs-2020/user/sh.c:299
     4be:	5a01                	li	s4,-32
/home/one/xv6-labs-2020/user/sh.c:298
     4c0:	0309                	addi	t1,t1,2
     4c2:	13b8                	addi	a4,sp,488
	...
/home/one/xv6-labs-2020/user/sh.c:302
     4cc:	0809                	addi	a6,a6,2
/home/one/xv6-labs-2020/user/sh.c:278
     4ce:	00b0                	addi	a2,sp,72
     4d0:	0000                	unimp
     4d2:	cc0c                	sw	a1,24(s0)
     4d4:	0000                	unimp
     4d6:	0100                	addi	s0,sp,128
     4d8:	0191                	addi	gp,gp,4
     4da:	1801                	addi	a6,a6,-32
     4dc:	0001                	nop
     4de:	a000                	fsd	fs0,0(s0)
     4e0:	0008                	0x8
     4e2:	0000                	unimp
     4e4:	0000                	unimp
     4e6:	a400                	fsd	fs0,8(s0)
/home/one/xv6-labs-2020/user/sh.c:287
     4e8:	0000                	unimp
/home/one/xv6-labs-2020/user/sh.c:288
     4ea:	0000                	unimp
/home/one/xv6-labs-2020/user/sh.c:278
     4ec:	0000                	unimp
     4ee:	0100                	addi	s0,sp,128
     4f0:	499c                	lw	a5,16(a1)
     4f2:	0006                	c.slli	zero,0x1
     4f4:	0d00                	addi	s0,sp,656
/home/one/xv6-labs-2020/user/sh.c:290
     4f6:	7370                	ld	a2,224(a4)
     4f8:	0100                	addi	s0,sp,128
/home/one/xv6-labs-2020/user/sh.c:291
     4fa:	0191                	addi	gp,gp,4
     4fc:	0004cc13          	xori	s8,s1,0
     500:	1800                	addi	s0,sp,48
/home/one/xv6-labs-2020/user/sh.c:293
     502:	0d000003          	lb	zero,208(zero) # d0 <runcmd+0x28>
/home/one/xv6-labs-2020/user/sh.c:292
     506:	7365                	lui	t1,0xffff9
/home/one/xv6-labs-2020/user/sh.c:291
     508:	0100                	addi	s0,sp,128
     50a:	0191                	addi	gp,gp,4
/home/one/xv6-labs-2020/user/sh.c:290
     50c:	b01d                	j	fffffffffffffd32 <__global_pointer$+0xffffffffffffe0ca>
/home/one/xv6-labs-2020/user/sh.c:277
     50e:	0000                	unimp
     510:	7700                	ld	s0,40(a4)
     512:	0e000003          	lb	zero,224(zero) # e0 <runcmd+0x38>
/home/one/xv6-labs-2020/user/sh.c:297
     516:	00646d63          	bltu	s0,t1,530 <peek+0x10>
     51a:	9301                	srli	a4,a4,0x20
     51c:	0f01                	addi	t5,t5,0
     51e:	0118                	addi	a4,sp,128
peek():
/home/one/xv6-labs-2020/user/sh.c:313
     520:	0000                	unimp
     522:	03d6                	slli	t2,t2,0x15
     524:	0000                	unimp
     526:	c214                	sw	a3,0(a2)
     528:	0008                	0x8
     52a:	0000                	unimp
     52c:	0000                	unimp
     52e:	2b00                	fld	fs0,16(a4)
     530:	5100000b          	0x5100000b
     534:	0005                	c.nop	1
     536:	1500                	addi	s0,sp,672
/home/one/xv6-labs-2020/user/sh.c:316
     538:	5a01                	li	s4,-32
/home/one/xv6-labs-2020/user/sh.c:317
     53a:	7902                	ld	s2,32(sp)
     53c:	1500                	addi	s0,sp,672
     53e:	5b01                	li	s6,-32
     540:	8202                	jr	tp
     542:	1500                	addi	s0,sp,672
     544:	5c01                	li	s8,-32
/home/one/xv6-labs-2020/user/sh.c:317 (discriminator 1)
     546:	0309                	addi	t1,t1,2
     548:	13a8                	addi	a0,sp,488
     54a:	0000                	unimp
     54c:	0000                	unimp
     54e:	0000                	unimp
     550:	1400                	addi	s0,sp,544
     552:	08d4                	addi	a3,sp,84
     554:	0000                	unimp
/home/one/xv6-labs-2020/user/sh.c:318
     556:	0000                	unimp
/home/one/xv6-labs-2020/user/sh.c:317
     558:	0000                	unimp
     55a:	00000bbb          	addw	s7,zero,zero
/home/one/xv6-labs-2020/user/sh.c:319
     55e:	0579                	addi	a0,a0,30
/home/one/xv6-labs-2020/user/sh.c:320
     560:	0000                	unimp
     562:	0115                	addi	sp,sp,5
     564:	025a                	slli	tp,tp,0x16
     566:	0079                	c.nop	30
/home/one/xv6-labs-2020/user/sh.c:321 (discriminator 6)
     568:	0115                	addi	sp,sp,5
     56a:	0082025b          	0x82025b
     56e:	0115                	addi	sp,sp,5
     570:	015c                	addi	a5,sp,132
     572:	1530                	addi	a2,sp,680
     574:	5d01                	li	s10,-32
     576:	3001                	0x3001
     578:	1400                	addi	s0,sp,544
/home/one/xv6-labs-2020/user/sh.c:320 (discriminator 1)
     57a:	08e0                	addi	s0,sp,92
     57c:	0000                	unimp
     57e:	0000                	unimp
     580:	0000                	unimp
     582:	000008c3          	fmadd.s	fa7,ft0,ft0,ft0,rne
     586:	00000597          	auipc	a1,0x0
parseredirs():
/home/one/xv6-labs-2020/user/sh.c:377
     58a:	0115                	addi	sp,sp,5
     58c:	025a                	slli	tp,tp,0x16
     58e:	0079                	c.nop	30
     590:	0115                	addi	sp,sp,5
     592:	0082025b          	0x82025b
     596:	1400                	addi	s0,sp,544
     598:	08f6                	slli	a7,a7,0x1d
     59a:	0000                	unimp
     59c:	0000                	unimp
     59e:	0000                	unimp
     5a0:	00000b2b          	0xb2b
     5a4:	05c2                	slli	a1,a1,0x10
     5a6:	0000                	unimp
     5a8:	0115                	addi	sp,sp,5
/home/one/xv6-labs-2020/user/sh.c:381
     5aa:	025a                	slli	tp,tp,0x16
     5ac:	0079                	c.nop	30
     5ae:	0115                	addi	sp,sp,5
     5b0:	0082025b          	0x82025b
/home/one/xv6-labs-2020/user/sh.c:383
     5b4:	0115                	addi	sp,sp,5
/home/one/xv6-labs-2020/user/sh.c:385
     5b6:	095c                	addi	a5,sp,148
     5b8:	0013f803          	0x13f803
/home/one/xv6-labs-2020/user/sh.c:384
     5bc:	0000                	unimp
     5be:	0000                	unimp
     5c0:	0000                	unimp
     5c2:	0814                	addi	a3,sp,16
     5c4:	0009                	c.nop	2
     5c6:	0000                	unimp
     5c8:	0000                	unimp
     5ca:	bb00                	fsd	fs0,48(a4)
/home/one/xv6-labs-2020/user/sh.c:387
     5cc:	ea00000b          	0xea00000b
     5d0:	0005                	c.nop	1
     5d2:	1500                	addi	s0,sp,672
     5d4:	5a01                	li	s4,-32
     5d6:	7902                	ld	s2,32(sp)
     5d8:	1500                	addi	s0,sp,672
     5da:	5b01                	li	s6,-32
     5dc:	8202                	jr	tp
     5de:	1500                	addi	s0,sp,672
     5e0:	5c01                	li	s8,-32
     5e2:	3001                	0x3001
/home/one/xv6-labs-2020/user/sh.c:385
     5e4:	0115                	addi	sp,sp,5
     5e6:	015d                	addi	sp,sp,23
     5e8:	0030                	addi	a2,sp,8
     5ea:	1614                	addi	a3,sp,800
/home/one/xv6-labs-2020/user/sh.c:381
     5ec:	0009                	c.nop	2
     5ee:	0000                	unimp
     5f0:	0000                	unimp
     5f2:	4900                	lw	s0,16(a0)
     5f4:	0006                	c.slli	zero,0x1
     5f6:	0e00                	addi	s0,sp,784
     5f8:	0006                	c.slli	zero,0x1
     5fa:	1500                	addi	s0,sp,672
/home/one/xv6-labs-2020/user/sh.c:382
     5fc:	5a01                	li	s4,-32
     5fe:	8302                	jr	t1
     600:	1500                	addi	s0,sp,672
     602:	5b01                	li	s6,-32
     604:	7902                	ld	s2,32(sp)
     606:	1500                	addi	s0,sp,672
     608:	5c01                	li	s8,-32
     60a:	8202                	jr	tp
     60c:	0000                	unimp
/home/one/xv6-labs-2020/user/sh.c:383
     60e:	3414                	fld	fa3,40(s0)
     610:	0009                	c.nop	2
     612:	0000                	unimp
     614:	0000                	unimp
     616:	a000                	fsd	fs0,0(s0)
     618:	2d00000f          	0x2d00000f
     61c:	0006                	c.slli	zero,0x1
     61e:	1500                	addi	s0,sp,672
     620:	5a01                	li	s4,-32
     622:	0309                	addi	t1,t1,2
     624:	13e8                	addi	a0,sp,492
/home/one/xv6-labs-2020/user/sh.c:385
     626:	0000                	unimp
     628:	0000                	unimp
     62a:	0000                	unimp
     62c:	1600                	addi	s0,sp,800
     62e:	0944                	addi	s1,sp,148
     630:	0000                	unimp
/home/one/xv6-labs-2020/user/sh.c:393
     632:	0000                	unimp
     634:	0000                	unimp
     636:	0fa0                	addi	s0,sp,984
     638:	0000                	unimp
     63a:	0115                	addi	sp,sp,5
     63c:	095a                	slli	s2,s2,0x16
     63e:	00140003          	lb	zero,1(s0) # ffffffffffff9001 <__global_pointer$+0xffffffffffff7399>
     642:	0000                	unimp
     644:	0000                	unimp
     646:	0000                	unimp
     648:	0c00                	addi	s0,sp,528
     64a:	001d                	c.nop	7
/home/one/xv6-labs-2020/user/sh.c:394
     64c:	0000                	unimp
/home/one/xv6-labs-2020/user/sh.c:390
     64e:	7801                	lui	a6,0xfffe0
     650:	0101                	addi	sp,sp,0
     652:	0118                	addi	a4,sp,128
     654:	0000                	unimp
     656:	058a                	slli	a1,a1,0x2
     658:	0000                	unimp
     65a:	0000                	unimp
     65c:	0000                	unimp
     65e:	00fc                	addi	a5,sp,76
     660:	0000                	unimp
     662:	0000                	unimp
     664:	0000                	unimp
     666:	9c01                	subw	s0,s0,s0
/home/one/xv6-labs-2020/user/sh.c:391
     668:	000007cb          	fnmsub.s	fa5,ft0,ft0,ft0,rne
/home/one/xv6-labs-2020/user/sh.c:398
     66c:	630d                	lui	t1,0x3
     66e:	646d                	lui	s0,0x1b
     670:	0100                	addi	s0,sp,128
     672:	0178                	addi	a4,sp,140
     674:	1819                	addi	a6,a6,-26
     676:	0001                	nop
     678:	3200                	fld	fs0,32(a2)
     67a:	0004                	0x4
     67c:	0d00                	addi	s0,sp,656
     67e:	7370                	ld	a2,224(a4)
     680:	0100                	addi	s0,sp,128
     682:	0178                	addi	a4,sp,140
     684:	cc25                	beqz	s0,6fc <parseexec+0x76>
parseexec():
/home/one/xv6-labs-2020/user/sh.c:418
     686:	0004                	0x4
     688:	ed00                	sd	s0,24(a0)
     68a:	0004                	0x4
     68c:	0d00                	addi	s0,sp,656
     68e:	7365                	lui	t1,0xffff9
     690:	0100                	addi	s0,sp,128
     692:	0178                	addi	a4,sp,140
     694:	0000b02f          	amoadd.d	zero,zero,(ra)
     698:	3900                	fld	fs0,48(a0)
     69a:	0005                	c.nop	1
     69c:	0e00                	addi	s0,sp,784
     69e:	6f74                	ld	a3,216(a4)
     6a0:	7a01006b          	0x7a01006b
/home/one/xv6-labs-2020/user/sh.c:424
     6a4:	0701                	addi	a4,a4,0
     6a6:	0064                	addi	s1,sp,12
     6a8:	0000                	unimp
     6aa:	0585                	addi	a1,a1,1
     6ac:	0000                	unimp
     6ae:	01007113          	andi	sp,zero,16
     6b2:	b009017b          	0xb009017b
     6b6:	0000                	unimp
/home/one/xv6-labs-2020/user/sh.c:427
     6b8:	0300                	addi	s0,sp,384
     6ba:	9891                	andi	s1,s1,-28
     6bc:	137f                	0x137f
     6be:	7165                	addi	sp,sp,-400
     6c0:	0100                	addi	s0,sp,128
/home/one/xv6-labs-2020/user/sh.c:431
     6c2:	b00d017b          	0xb00d017b
     6c6:	0000                	unimp
     6c8:	0300                	addi	s0,sp,384
     6ca:	9091                	srli	s1,s1,0x24
     6cc:	147f                	0x147f
     6ce:	05cc                	addi	a1,sp,708
/home/one/xv6-labs-2020/user/sh.c:432
     6d0:	0000                	unimp
     6d2:	0000                	unimp
     6d4:	0000                	unimp
     6d6:	0fa0                	addi	s0,sp,984
     6d8:	0000                	unimp
     6da:	06ec                	addi	a1,sp,844
/home/one/xv6-labs-2020/user/sh.c:435
     6dc:	0000                	unimp
     6de:	0115                	addi	sp,sp,5
/home/one/xv6-labs-2020/user/sh.c:440
     6e0:	095a                	slli	s2,s2,0x16
/home/one/xv6-labs-2020/user/sh.c:432
     6e2:	00138003          	lb	zero,1(t2)
/home/one/xv6-labs-2020/user/sh.c:425
     6e6:	0000                	unimp
     6e8:	0000                	unimp
     6ea:	0000                	unimp
     6ec:	e214                	sd	a3,0(a2)
     6ee:	0005                	c.nop	1
     6f0:	0000                	unimp
/home/one/xv6-labs-2020/user/sh.c:447
     6f2:	0000                	unimp
     6f4:	2200                	fld	fs0,0(a2)
     6f6:	000e                	c.slli	zero,0x3
     6f8:	0e00                	addi	s0,sp,784
     6fa:	15000007          	0x15000007
     6fe:	5a01                	li	s4,-32
     700:	8602                	jr	a2
     702:	1500                	addi	s0,sp,672
     704:	5d01                	li	s10,-32
     706:	3001                	0x3001
     708:	0115                	addi	sp,sp,5
     70a:	015e                	slli	sp,sp,0x17
     70c:	0030                	addi	a2,sp,8
/home/one/xv6-labs-2020/user/sh.c:436
     70e:	fa14                	sd	a3,48(a2)
     710:	0005                	c.nop	1
     712:	0000                	unimp
     714:	0000                	unimp
     716:	2b00                	fld	fs0,16(a4)
     718:	3200000b          	0x3200000b
     71c:	15000007          	0x15000007
/home/one/xv6-labs-2020/user/sh.c:442
     720:	5a01                	li	s4,-32
     722:	8302                	jr	t1
     724:	1500                	addi	s0,sp,672
     726:	5b01                	li	s6,-32
     728:	8202                	jr	tp
     72a:	1500                	addi	s0,sp,672
     72c:	5c01                	li	s8,-32
/home/one/xv6-labs-2020/user/sh.c:432
     72e:	8702                	jr	a4
     730:	0000                	unimp
     732:	0c14                	addi	a3,sp,528
     734:	0006                	c.slli	zero,0x1
     736:	0000                	unimp
     738:	0000                	unimp
     73a:	bb00                	fsd	fs0,48(a4)
     73c:	5a00000b          	0x5a00000b
/home/one/xv6-labs-2020/user/sh.c:433
     740:	15000007          	0x15000007
     744:	5a01                	li	s4,-32
     746:	8302                	jr	t1
     748:	1500                	addi	s0,sp,672
     74a:	5b01                	li	s6,-32
     74c:	8202                	jr	tp
     74e:	1500                	addi	s0,sp,672
     750:	5c01                	li	s8,-32
     752:	3001                	0x3001
/home/one/xv6-labs-2020/user/sh.c:435
     754:	0115                	addi	sp,sp,5
     756:	015d                	addi	sp,sp,23
/home/one/xv6-labs-2020/user/sh.c:437
     758:	0030                	addi	a2,sp,8
     75a:	2214                	fld	fa3,0(a2)
     75c:	0006                	c.slli	zero,0x1
/home/one/xv6-labs-2020/user/sh.c:438
     75e:	0000                	unimp
     760:	0000                	unimp
     762:	bb00                	fsd	fs0,48(a4)
/home/one/xv6-labs-2020/user/sh.c:439
     764:	8600000b          	0x8600000b
/home/one/xv6-labs-2020/user/sh.c:440
     768:	15000007          	0x15000007
/home/one/xv6-labs-2020/user/sh.c:441
     76c:	5a01                	li	s4,-32
     76e:	8302                	jr	t1
     770:	1500                	addi	s0,sp,672
     772:	5b01                	li	s6,-32
     774:	8202                	jr	tp
     776:	1500                	addi	s0,sp,672
     778:	5c01                	li	s8,-32
     77a:	7f987803          	0x7f987803
/home/one/xv6-labs-2020/user/sh.c:444
     77e:	0115                	addi	sp,sp,5
     780:	035d                	addi	t1,t1,23
     782:	9078                	0x9078
/home/one/xv6-labs-2020/user/sh.c:445
     784:	007f                	0x7f
     786:	4a14                	lw	a3,16(a2)
/home/one/xv6-labs-2020/user/sh.c:446
     788:	0006                	c.slli	zero,0x1
parsepipe():
/home/one/xv6-labs-2020/user/sh.c:364
     78a:	0000                	unimp
     78c:	0000                	unimp
     78e:	2200                	fld	fs0,0(a2)
     790:	000e                	c.slli	zero,0x3
     792:	aa00                	fsd	fs0,16(a2)
     794:	15000007          	0x15000007
     798:	5a01                	li	s4,-32
     79a:	8602                	jr	a2
/home/one/xv6-labs-2020/user/sh.c:367
     79c:	1500                	addi	s0,sp,672
     79e:	5d01                	li	s10,-32
     7a0:	02010a03          	lb	s4,32(sp)
     7a4:	0115                	addi	sp,sp,5
/home/one/xv6-labs-2020/user/sh.c:368
     7a6:	015e                	slli	sp,sp,0x17
     7a8:	0031                	c.nop	12
     7aa:	6616                	ld	a2,320(sp)
     7ac:	0006                	c.slli	zero,0x1
     7ae:	0000                	unimp
     7b0:	0000                	unimp
     7b2:	2200                	fld	fs0,0(a2)
     7b4:	000e                	c.slli	zero,0x3
     7b6:	1500                	addi	s0,sp,672
     7b8:	5a01                	li	s4,-32
     7ba:	8602                	jr	a2
/home/one/xv6-labs-2020/user/sh.c:373
     7bc:	1500                	addi	s0,sp,672
     7be:	5d01                	li	s10,-32
     7c0:	06010a03          	lb	s4,96(sp)
     7c4:	0115                	addi	sp,sp,5
     7c6:	015e                	slli	sp,sp,0x17
     7c8:	0031                	c.nop	12
     7ca:	0c00                	addi	s0,sp,528
/home/one/xv6-labs-2020/user/sh.c:369
     7cc:	00c2                	slli	ra,ra,0x10
     7ce:	0000                	unimp
     7d0:	6b01                	0x6b01
     7d2:	0101                	addi	sp,sp,0
     7d4:	0118                	addi	a4,sp,128
     7d6:	0000                	unimp
     7d8:	078a                	slli	a5,a5,0x2
     7da:	0000                	unimp
/home/one/xv6-labs-2020/user/sh.c:370
     7dc:	0000                	unimp
     7de:	0000                	unimp
     7e0:	006e                	c.slli	zero,0x1b
     7e2:	0000                	unimp
     7e4:	0000                	unimp
     7e6:	0000                	unimp
     7e8:	9c01                	subw	s0,s0,s0
     7ea:	000008c3          	fmadd.s	fa7,ft0,ft0,ft0,rne
     7ee:	700d                	c.lui	zero,0xfffe3
     7f0:	6b010073          	0x6b010073
     7f4:	1201                	addi	tp,tp,-32
/home/one/xv6-labs-2020/user/sh.c:372
     7f6:	04cc                	addi	a1,sp,580
parseline():
/home/one/xv6-labs-2020/user/sh.c:347
     7f8:	0000                	unimp
     7fa:	000005bb          	addw	a1,zero,zero
     7fe:	650d                	lui	a0,0x3
     800:	6b010073          	0x6b010073
     804:	1c01                	addi	s8,s8,-32
     806:	00b0                	addi	a2,sp,72
     808:	0000                	unimp
     80a:	061a                	slli	a2,a2,0x6
/home/one/xv6-labs-2020/user/sh.c:350
     80c:	0000                	unimp
     80e:	630e                	ld	t1,192(sp)
     810:	646d                	lui	s0,0x1b
     812:	0100                	addi	s0,sp,128
     814:	016d                	addi	sp,sp,27
/home/one/xv6-labs-2020/user/sh.c:351
     816:	0001180f          	0x1180f
     81a:	7900                	ld	s0,48(a0)
     81c:	0006                	c.slli	zero,0x1
     81e:	1400                	addi	s0,sp,544
     820:	07a4                	addi	s1,sp,968
     822:	0000                	unimp
     824:	0000                	unimp
     826:	0000                	unimp
     828:	02fd                	addi	t0,t0,31
     82a:	0000                	unimp
     82c:	083d                	addi	a6,a6,15
/home/one/xv6-labs-2020/user/sh.c:352
     82e:	0000                	unimp
     830:	0115                	addi	sp,sp,5
     832:	025a                	slli	tp,tp,0x16
     834:	0082                	c.slli64	ra
     836:	0115                	addi	sp,sp,5
     838:	0083025b          	0x83025b
     83c:	1400                	addi	s0,sp,544
/home/one/xv6-labs-2020/user/sh.c:353
     83e:	07ba                	slli	a5,a5,0xe
     840:	0000                	unimp
     842:	0000                	unimp
     844:	0000                	unimp
     846:	00000b2b          	0xb2b
     84a:	0868                	addi	a0,sp,28
/home/one/xv6-labs-2020/user/sh.c:355
     84c:	0000                	unimp
     84e:	0115                	addi	sp,sp,5
     850:	025a                	slli	tp,tp,0x16
     852:	0082                	c.slli64	ra
     854:	0115                	addi	sp,sp,5
     856:	0083025b          	0x83025b
     85a:	0115                	addi	sp,sp,5
     85c:	095c                	addi	a5,sp,148
     85e:	0013d003          	lhu	zero,1(t2)
/home/one/xv6-labs-2020/user/sh.c:360
     862:	0000                	unimp
     864:	0000                	unimp
     866:	0000                	unimp
     868:	dc14                	sw	a3,56(s0)
     86a:	00000007          	0x7
     86e:	0000                	unimp
     870:	bb00                	fsd	fs0,48(a4)
     872:	9000000b          	0x9000000b
/home/one/xv6-labs-2020/user/sh.c:356
     876:	0008                	0x8
     878:	1500                	addi	s0,sp,672
     87a:	5a01                	li	s4,-32
     87c:	8202                	jr	tp
     87e:	1500                	addi	s0,sp,672
     880:	5b01                	li	s6,-32
     882:	8302                	jr	t1
/home/one/xv6-labs-2020/user/sh.c:357
     884:	1500                	addi	s0,sp,672
     886:	5c01                	li	s8,-32
     888:	3001                	0x3001
     88a:	0115                	addi	sp,sp,5
     88c:	015d                	addi	sp,sp,23
     88e:	0030                	addi	a2,sp,8
     890:	e814                	sd	a3,16(s0)
     892:	00000007          	0x7
     896:	0000                	unimp
     898:	cb00                	sw	s0,16(a4)
     89a:	ae000007          	0xae000007
/home/one/xv6-labs-2020/user/sh.c:359
     89e:	0008                	0x8
parseblock():
/home/one/xv6-labs-2020/user/sh.c:402
     8a0:	1500                	addi	s0,sp,672
     8a2:	5a01                	li	s4,-32
     8a4:	8202                	jr	tp
     8a6:	1500                	addi	s0,sp,672
     8a8:	5b01                	li	s6,-32
     8aa:	8302                	jr	t1
     8ac:	0000                	unimp
     8ae:	f416                	sd	t0,40(sp)
     8b0:	00000007          	0x7
/home/one/xv6-labs-2020/user/sh.c:405
     8b4:	0000                	unimp
     8b6:	9a00                	0x9a00
     8b8:	000d                	c.nop	3
     8ba:	1500                	addi	s0,sp,672
     8bc:	5a01                	li	s4,-32
     8be:	7902                	ld	s2,32(sp)
     8c0:	0000                	unimp
     8c2:	0c00                	addi	s0,sp,528
/home/one/xv6-labs-2020/user/sh.c:407
     8c4:	022a                	slli	tp,tp,0xa
     8c6:	0000                	unimp
     8c8:	5a01                	li	s4,-32
     8ca:	0101                	addi	sp,sp,0
     8cc:	0118                	addi	a4,sp,128
     8ce:	0000                	unimp
     8d0:	07f8                	addi	a4,sp,972
     8d2:	0000                	unimp
/home/one/xv6-labs-2020/user/sh.c:408
     8d4:	0000                	unimp
     8d6:	0000                	unimp
     8d8:	00a8                	addi	a0,sp,72
     8da:	0000                	unimp
     8dc:	0000                	unimp
     8de:	0000                	unimp
     8e0:	9c01                	subw	s0,s0,s0
/home/one/xv6-labs-2020/user/sh.c:409
     8e2:	0a1f 0000 700d      	0x700d00000a1f
     8e8:	5a010073          	0x5a010073
     8ec:	1201                	addi	tp,tp,-32
     8ee:	04cc                	addi	a1,sp,580
     8f0:	0000                	unimp
     8f2:	06c2                	slli	a3,a3,0x10
     8f4:	0000                	unimp
     8f6:	650d                	lui	a0,0x3
/home/one/xv6-labs-2020/user/sh.c:411
     8f8:	5a010073          	0x5a010073
     8fc:	1c01                	addi	s8,s8,-32
     8fe:	00b0                	addi	a2,sp,72
     900:	0000                	unimp
     902:	0721                	addi	a4,a4,8
     904:	0000                	unimp
     906:	630e                	ld	t1,192(sp)
/home/one/xv6-labs-2020/user/sh.c:412
     908:	646d                	lui	s0,0x1b
     90a:	0100                	addi	s0,sp,128
     90c:	015c                	addi	a5,sp,132
     90e:	0001180f          	0x1180f
     912:	8000                	0x8000
     914:	14000007          	0x14000007
/home/one/xv6-labs-2020/user/sh.c:414
     918:	0814                	addi	a3,sp,16
     91a:	0000                	unimp
     91c:	0000                	unimp
     91e:	0000                	unimp
     920:	000007cb          	fnmsub.s	fa5,ft0,ft0,ft0,rne
/home/one/xv6-labs-2020/user/sh.c:406
     924:	0935                	addi	s2,s2,13
     926:	0000                	unimp
     928:	0115                	addi	sp,sp,5
     92a:	025a                	slli	tp,tp,0x16
     92c:	0079                	c.nop	30
     92e:	0115                	addi	sp,sp,5
     930:	0082025b          	0x82025b
/home/one/xv6-labs-2020/user/sh.c:410
     934:	1400                	addi	s0,sp,544
     936:	082c                	addi	a1,sp,24
     938:	0000                	unimp
     93a:	0000                	unimp
     93c:	0000                	unimp
     93e:	00000b2b          	0xb2b
     942:	0959                	addi	s2,s2,22
nulterminate():
/home/one/xv6-labs-2020/user/sh.c:452
     944:	0000                	unimp
     946:	0115                	addi	sp,sp,5
     948:	025a                	slli	tp,tp,0x16
     94a:	0079                	c.nop	30
     94c:	0115                	addi	sp,sp,5
     94e:	0082025b          	0x82025b
/home/one/xv6-labs-2020/user/sh.c:463
     952:	0115                	addi	sp,sp,5
     954:	025c                	addi	a5,sp,260
     956:	0084                	addi	s1,sp,64
     958:	1400                	addi	s0,sp,544
     95a:	083e                	slli	a6,a6,0xf
     95c:	0000                	unimp
     95e:	0000                	unimp
     960:	0000                	unimp
     962:	00000bbb          	addw	s7,zero,zero
     966:	0981                	addi	s3,s3,0
     968:	0000                	unimp
     96a:	0115                	addi	sp,sp,5
     96c:	025a                	slli	tp,tp,0x16
     96e:	0079                	c.nop	30
/home/one/xv6-labs-2020/user/sh.c:466
     970:	0115                	addi	sp,sp,5
     972:	0082025b          	0x82025b
     976:	0115                	addi	sp,sp,5
/home/one/xv6-labs-2020/user/sh.c:467 (discriminator 3)
     978:	015c                	addi	a5,sp,132
     97a:	1530                	addi	a2,sp,680
     97c:	5d01                	li	s10,-32
     97e:	3001                	0x3001
/home/one/xv6-labs-2020/user/sh.c:466 (discriminator 3)
     980:	1400                	addi	s0,sp,544
     982:	0848                	addi	a0,sp,20
     984:	0000                	unimp
     986:	0000                	unimp
/home/one/xv6-labs-2020/user/sh.c:472
     988:	0000                	unimp
     98a:	0c9a                	slli	s9,s9,0x6
     98c:	0000                	unimp
     98e:	0999                	addi	s3,s3,6
     990:	0000                	unimp
/home/one/xv6-labs-2020/user/sh.c:473
     992:	0115                	addi	sp,sp,5
     994:	025a                	slli	tp,tp,0x16
     996:	14000083          	lb	ra,320(zero) # 140 <runcmd+0x98>
/home/one/xv6-labs-2020/user/sh.c:494
     99a:	0860                	addi	s0,sp,28
     99c:	0000                	unimp
     99e:	0000                	unimp
     9a0:	0000                	unimp
     9a2:	00000b2b          	0xb2b
/home/one/xv6-labs-2020/user/sh.c:478
     9a6:	09c4                	addi	s1,sp,212
     9a8:	0000                	unimp
     9aa:	0115                	addi	sp,sp,5
     9ac:	025a                	slli	tp,tp,0x16
/home/one/xv6-labs-2020/user/sh.c:479
     9ae:	0079                	c.nop	30
     9b0:	0115                	addi	sp,sp,5
     9b2:	0082025b          	0x82025b
     9b6:	0115                	addi	sp,sp,5
/home/one/xv6-labs-2020/user/sh.c:480
     9b8:	095c                	addi	a5,sp,148
/home/one/xv6-labs-2020/user/sh.c:484
     9ba:	0013e003          	lwu	zero,1(t2)
     9be:	0000                	unimp
     9c0:	0000                	unimp
     9c2:	0000                	unimp
/home/one/xv6-labs-2020/user/sh.c:485
     9c4:	8414                	0x8414
     9c6:	0008                	0x8
     9c8:	0000                	unimp
     9ca:	0000                	unimp
     9cc:	bb00                	fsd	fs0,48(a4)
/home/one/xv6-labs-2020/user/sh.c:486
     9ce:	ec00000b          	0xec00000b
/home/one/xv6-labs-2020/user/sh.c:490
     9d2:	0009                	c.nop	2
     9d4:	1500                	addi	s0,sp,672
     9d6:	5a01                	li	s4,-32
     9d8:	7902                	ld	s2,32(sp)
/home/one/xv6-labs-2020/user/sh.c:491
     9da:	1500                	addi	s0,sp,672
parsecmd():
/home/one/xv6-labs-2020/user/sh.c:330
     9dc:	5b01                	li	s6,-32
     9de:	8202                	jr	tp
     9e0:	1500                	addi	s0,sp,672
     9e2:	5c01                	li	s8,-32
     9e4:	3001                	0x3001
     9e6:	0115                	addi	sp,sp,5
     9e8:	015d                	addi	sp,sp,23
     9ea:	0030                	addi	a2,sp,8
/home/one/xv6-labs-2020/user/sh.c:334
     9ec:	9014                	0x9014
     9ee:	0008                	0x8
     9f0:	0000                	unimp
     9f2:	0000                	unimp
     9f4:	c300                	sw	s0,0(a4)
     9f6:	0008                	0x8
     9f8:	0a00                	addi	s0,sp,272
     9fa:	000a                	c.slli	zero,0x2
/home/one/xv6-labs-2020/user/sh.c:335
     9fc:	1500                	addi	s0,sp,672
     9fe:	5a01                	li	s4,-32
     a00:	7902                	ld	s2,32(sp)
     a02:	1500                	addi	s0,sp,672
     a04:	5b01                	li	s6,-32
     a06:	8202                	jr	tp
     a08:	0000                	unimp
     a0a:	9c16                	add	s8,s8,t0
/home/one/xv6-labs-2020/user/sh.c:336
     a0c:	0008                	0x8
     a0e:	0000                	unimp
     a10:	0000                	unimp
     a12:	1200                	addi	s0,sp,288
     a14:	000d                	c.nop	3
     a16:	1500                	addi	s0,sp,672
     a18:	5a01                	li	s4,-32
     a1a:	8302                	jr	t1
     a1c:	0000                	unimp
     a1e:	0c00                	addi	s0,sp,528
     a20:	0005                	c.nop	1
/home/one/xv6-labs-2020/user/sh.c:337
     a22:	0000                	unimp
     a24:	4901                	li	s2,0
     a26:	0101                	addi	sp,sp,0
     a28:	0118                	addi	a4,sp,128
/home/one/xv6-labs-2020/user/sh.c:341
     a2a:	0000                	unimp
     a2c:	09dc                	addi	a5,sp,212
     a2e:	0000                	unimp
     a30:	0000                	unimp
     a32:	0000                	unimp
/home/one/xv6-labs-2020/user/sh.c:343
     a34:	0088                	addi	a0,sp,64
     a36:	0000                	unimp
     a38:	0000                	unimp
     a3a:	0000                	unimp
     a3c:	9c01                	subw	s0,s0,s0
     a3e:	00000b2b          	0xb2b
/home/one/xv6-labs-2020/user/sh.c:338
     a42:	730d                	lui	t1,0xfffe3
     a44:	0100                	addi	s0,sp,128
     a46:	0149                	addi	sp,sp,18
     a48:	b010                	fsd	fa2,32(s0)
     a4a:	0000                	unimp
     a4c:	1500                	addi	s0,sp,672
     a4e:	0008                	0x8
     a50:	0e00                	addi	s0,sp,784
     a52:	7365                	lui	t1,0xffff9
/home/one/xv6-labs-2020/user/sh.c:339
     a54:	0100                	addi	s0,sp,128
     a56:	b009014b          	fnmsub.s	ft2,fs2,ft0,fs6,rne
     a5a:	0000                	unimp
     a5c:	3800                	fld	fs0,48(s0)
     a5e:	0008                	0x8
     a60:	0e00                	addi	s0,sp,784
     a62:	00646d63          	bltu	s0,t1,a7c <main+0x18>
main():
/home/one/xv6-labs-2020/user/sh.c:147
     a66:	4c01                	li	s8,0
     a68:	0f01                	addi	t5,t5,0
     a6a:	0118                	addi	a4,sp,128
     a6c:	0000                	unimp
     a6e:	086e                	slli	a6,a6,0x1b
     a70:	0000                	unimp
     a72:	f614                	sd	a3,40(a2)
     a74:	0009                	c.nop	2
/home/one/xv6-labs-2020/user/sh.c:152
     a76:	0000                	unimp
     a78:	0000                	unimp
     a7a:	1700                	addi	s0,sp,928
     a7c:	0015                	c.nop	5
     a7e:	8a00                	0x8a00
     a80:	000a                	c.slli	zero,0x2
     a82:	1500                	addi	s0,sp,672
     a84:	5a01                	li	s4,-32
     a86:	7902                	ld	s2,32(sp)
     a88:	0000                	unimp
     a8a:	0a14                	addi	a3,sp,272
     a8c:	000a                	c.slli	zero,0x2
/home/one/xv6-labs-2020/user/sh.c:153
     a8e:	0000                	unimp
     a90:	0000                	unimp
     a92:	c300                	sw	s0,0(a4)
/home/one/xv6-labs-2020/user/sh.c:154
     a94:	0008                	0x8
     a96:	a800                	fsd	fs0,16(s0)
     a98:	000a                	c.slli	zero,0x2
     a9a:	1500                	addi	s0,sp,672
/home/one/xv6-labs-2020/user/sh.c:160
     a9c:	5a01                	li	s4,-32
     a9e:	7802                	ld	a6,32(sp)
     aa0:	1558                	addi	a4,sp,676
     aa2:	5b01                	li	s6,-32
/home/one/xv6-labs-2020/user/sh.c:161
     aa4:	7902                	ld	s2,32(sp)
     aa6:	0000                	unimp
     aa8:	2214                	fld	fa3,0(a2)
     aaa:	000a                	c.slli	zero,0x2
/home/one/xv6-labs-2020/user/sh.c:164
     aac:	0000                	unimp
     aae:	0000                	unimp
     ab0:	2b00                	fld	fs0,16(a4)
     ab2:	d300000b          	0xd300000b
/home/one/xv6-labs-2020/user/sh.c:165
     ab6:	000a                	c.slli	zero,0x2
     ab8:	1500                	addi	s0,sp,672
     aba:	5a01                	li	s4,-32
     abc:	7802                	ld	a6,32(sp)
/home/one/xv6-labs-2020/user/sh.c:168
     abe:	1558                	addi	a4,sp,676
     ac0:	5b01                	li	s6,-32
     ac2:	7902                	ld	s2,32(sp)
     ac4:	1500                	addi	s0,sp,672
     ac6:	5c01                	li	s8,-32
/home/one/xv6-labs-2020/user/sh.c:170
     ac8:	0309                	addi	t1,t1,2
     aca:	1418                	addi	a4,sp,544
     acc:	0000                	unimp
     ace:	0000                	unimp
     ad0:	0000                	unimp
/home/one/xv6-labs-2020/user/sh.c:160
     ad2:	1400                	addi	s0,sp,544
     ad4:	0a34                	addi	a3,sp,280
     ad6:	0000                	unimp
     ad8:	0000                	unimp
     ada:	0000                	unimp
     adc:	01fe                	slli	gp,gp,0x1f
     ade:	0000                	unimp
     ae0:	00000aeb          	0xaeb
/home/one/xv6-labs-2020/user/sh.c:161
     ae4:	0115                	addi	sp,sp,5
     ae6:	025a                	slli	tp,tp,0x16
     ae8:	0082                	c.slli64	ra
     aea:	1400                	addi	s0,sp,544
/home/one/xv6-labs-2020/user/sh.c:161 (discriminator 1)
     aec:	0a54                	addi	a3,sp,276
     aee:	0000                	unimp
     af0:	0000                	unimp
     af2:	0000                	unimp
     af4:	00001523          	sh	zero,10(zero) # a <getcmd+0xa>
/home/one/xv6-labs-2020/user/sh.c:161 (discriminator 2)
     af8:	00000b0f          	0xb0f
     afc:	0115                	addi	sp,sp,5
     afe:	015a                	slli	sp,sp,0x16
/home/one/xv6-labs-2020/user/sh.c:163
     b00:	1532                	slli	a0,a0,0x2c
     b02:	5b01                	li	s6,-32
     b04:	0309                	addi	t1,t1,2
     b06:	1420                	addi	s0,sp,552
     b08:	0000                	unimp
     b0a:	0000                	unimp
     b0c:	0000                	unimp
     b0e:	1600                	addi	s0,sp,800
     b10:	0a64                	addi	s1,sp,284
     b12:	0000                	unimp
     b14:	0000                	unimp
     b16:	0000                	unimp
/home/one/xv6-labs-2020/user/sh.c:164
     b18:	0fa0                	addi	s0,sp,984
     b1a:	0000                	unimp
     b1c:	0115                	addi	sp,sp,5
     b1e:	095a                	slli	s2,s2,0x16
     b20:	0013b003          	ld	zero,1(t2)
     b24:	0000                	unimp
/home/one/xv6-labs-2020/user/sh.c:165
     b26:	0000                	unimp
     b28:	0000                	unimp
     b2a:	0c00                	addi	s0,sp,528
     b2c:	00bd                	addi	ra,ra,15
     b2e:	0000                	unimp
     b30:	3801                	addiw	a6,a6,-32
     b32:	0101                	addi	sp,sp,0
     b34:	0064                	addi	s1,sp,12
/home/one/xv6-labs-2020/user/sh.c:169
     b36:	0000                	unimp
     b38:	0520                	addi	s0,sp,648
     b3a:	0000                	unimp
     b3c:	0000                	unimp
     b3e:	0000                	unimp
     b40:	006a                	c.slli	zero,0x1a
     b42:	0000                	unimp
     b44:	0000                	unimp
     b46:	0000                	unimp
     b48:	9c01                	subw	s0,s0,s0
     b4a:	00000bbb          	addw	s7,zero,zero
/home/one/xv6-labs-2020/user/sh.c:172
     b4e:	700d                	c.lui	zero,0xfffe3
     b50:	38010073          	0x38010073
     b54:	0d01                	addi	s10,s10,0
     b56:	04cc                	addi	a1,sp,580
strcpy():
/home/one/xv6-labs-2020/user/ulib.c:8
     b58:	0000                	unimp
     b5a:	08ca                	slli	a7,a7,0x12
     b5c:	0000                	unimp
/home/one/xv6-labs-2020/user/ulib.c:12
     b5e:	650d                	lui	a0,0x3
/home/one/xv6-labs-2020/user/ulib.c:12 (discriminator 1)
     b60:	38010073          	0x38010073
     b64:	1701                	addi	a4,a4,-32
     b66:	00b0                	addi	a2,sp,72
     b68:	0000                	unimp
     b6a:	0929                	addi	s2,s2,10
     b6c:	0000                	unimp
/home/one/xv6-labs-2020/user/ulib.c:15
     b6e:	00011717          	auipc	a4,0x11
     b72:	0100                	addi	s0,sp,128
strcmp():
/home/one/xv6-labs-2020/user/ulib.c:19
     b74:	0138                	addi	a4,sp,136
     b76:	b021                	j	37e <listcmd+0x24>
     b78:	0000                	unimp
/home/one/xv6-labs-2020/user/ulib.c:20
     b7a:	8800                	0x8800
     b7c:	0009                	c.nop	2
     b7e:	0e00                	addi	s0,sp,784
     b80:	3a010073          	0x3a010073
     b84:	0901                	addi	s2,s2,0
     b86:	00b0                	addi	a2,sp,72
/home/one/xv6-labs-2020/user/ulib.c:21
     b88:	0000                	unimp
     b8a:	000009e7          	jalr	s3,zero # 0 <getcmd>
/home/one/xv6-labs-2020/user/ulib.c:20
     b8e:	5414                	lw	a3,40(s0)
     b90:	0005                	c.nop	1
/home/one/xv6-labs-2020/user/ulib.c:20 (discriminator 1)
     b92:	0000                	unimp
     b94:	0000                	unimp
     b96:	2f00                	fld	fs0,24(a4)
     b98:	0015                	c.nop	5
/home/one/xv6-labs-2020/user/ulib.c:22
     b9a:	a600                	fsd	fs0,8(a2)
     b9c:	1500000b          	0x1500000b
/home/one/xv6-labs-2020/user/ulib.c:23
     ba0:	5a01                	li	s4,-32
     ba2:	8302                	jr	t1
     ba4:	0000                	unimp
     ba6:	8416                	mv	s0,t0
strlen():
/home/one/xv6-labs-2020/user/ulib.c:27
     ba8:	0005                	c.nop	1
     baa:	0000                	unimp
     bac:	0000                	unimp
/home/one/xv6-labs-2020/user/ulib.c:30
     bae:	2f00                	fld	fs0,24(a4)
     bb0:	0015                	c.nop	5
     bb2:	1500                	addi	s0,sp,672
     bb4:	5a01                	li	s4,-32
     bb6:	8502                	jr	a0
     bb8:	0000                	unimp
     bba:	0c00                	addi	s0,sp,528
/home/one/xv6-labs-2020/user/ulib.c:31 (discriminator 3)
     bbc:	010e                	slli	sp,sp,0x3
     bbe:	0000                	unimp
     bc0:	0b01                	addi	s6,s6,0
/home/one/xv6-labs-2020/user/ulib.c:30 (discriminator 3)
     bc2:	0101                	addi	sp,sp,0
     bc4:	0064                	addi	s1,sp,12
     bc6:	0000                	unimp
/home/one/xv6-labs-2020/user/ulib.c:33
     bc8:	03dc                	addi	a5,sp,452
     bca:	0000                	unimp
     bcc:	0000                	unimp
/home/one/xv6-labs-2020/user/ulib.c:30
     bce:	0000                	unimp
     bd0:	0144                	addi	s1,sp,132
memset():
/home/one/xv6-labs-2020/user/ulib.c:37
     bd2:	0000                	unimp
     bd4:	0000                	unimp
     bd6:	0000                	unimp
/home/one/xv6-labs-2020/user/ulib.c:40
     bd8:	9c01                	subw	s0,s0,s0
     bda:	0c9a                	slli	s9,s9,0x6
     bdc:	0000                	unimp
     bde:	700d                	c.lui	zero,0xfffe3
     be0:	0b010073          	0xb010073
     be4:	1101                	addi	sp,sp,-32
     be6:	04cc                	addi	a1,sp,580
/home/one/xv6-labs-2020/user/ulib.c:41 (discriminator 3)
     be8:	0000                	unimp
     bea:	0a1d                	addi	s4,s4,7
     bec:	0000                	unimp
/home/one/xv6-labs-2020/user/ulib.c:40 (discriminator 3)
     bee:	650d                	lui	a0,0x3
     bf0:	0b010073          	0xb010073
/home/one/xv6-labs-2020/user/ulib.c:44
     bf4:	1b01                	addi	s6,s6,-32
     bf6:	00b0                	addi	a2,sp,72
strchr():
/home/one/xv6-labs-2020/user/ulib.c:48
     bf8:	0000                	unimp
     bfa:	0a7c                	addi	a5,sp,284
     bfc:	0000                	unimp
/home/one/xv6-labs-2020/user/ulib.c:49
     bfe:	710d                	addi	sp,sp,-352
     c00:	0100                	addi	s0,sp,128
     c02:	cc26010b          	0xcc26010b
/home/one/xv6-labs-2020/user/ulib.c:50
     c06:	0004                	0x4
/home/one/xv6-labs-2020/user/ulib.c:49
     c08:	db00                	sw	s0,48(a4)
     c0a:	000a                	c.slli	zero,0x2
     c0c:	0d00                	addi	s0,sp,656
     c0e:	7165                	addi	sp,sp,-400
/home/one/xv6-labs-2020/user/ulib.c:50
     c10:	0100                	addi	s0,sp,128
     c12:	cc30010b          	0xcc30010b
/home/one/xv6-labs-2020/user/ulib.c:52
     c16:	0004                	0x4
/home/one/xv6-labs-2020/user/ulib.c:53
     c18:	2700                	fld	fs0,8(a4)
     c1a:	0e00000b          	0xe00000b
/home/one/xv6-labs-2020/user/ulib.c:52
     c1e:	0d010073          	0xd010073
gets():
/home/one/xv6-labs-2020/user/ulib.c:57
     c22:	0901                	addi	s2,s2,0
     c24:	00b0                	addi	a2,sp,72
     c26:	0000                	unimp
     c28:	0b86                	slli	s7,s7,0x1
     c2a:	0000                	unimp
     c2c:	720e                	ld	tp,224(sp)
     c2e:	7465                	lui	s0,0xffff9
     c30:	0100                	addi	s0,sp,128
     c32:	010e                	slli	sp,sp,0x3
     c34:	00006407          	0x6407
     c38:	3300                	fld	fs0,32(a4)
     c3a:	000c                	0xc
/home/one/xv6-labs-2020/user/ulib.c:61
     c3c:	1400                	addi	s0,sp,544
     c3e:	0414                	addi	a3,sp,512
/home/one/xv6-labs-2020/user/ulib.c:66
     c40:	0000                	unimp
     c42:	0000                	unimp
/home/one/xv6-labs-2020/user/ulib.c:61 (discriminator 1)
     c44:	0000                	unimp
     c46:	0000152f          	0x152f
     c4a:	0c55                	addi	s8,s8,21
/home/one/xv6-labs-2020/user/ulib.c:62
     c4c:	0000                	unimp
     c4e:	0115                	addi	sp,sp,5
     c50:	025a                	slli	tp,tp,0x16
     c52:	14000083          	lb	ra,320(zero) # 140 <runcmd+0x98>
     c56:	0460                	addi	s0,sp,524
     c58:	0000                	unimp
     c5a:	0000                	unimp
/home/one/xv6-labs-2020/user/ulib.c:63
     c5c:	0000                	unimp
     c5e:	0000152f          	0x152f
/home/one/xv6-labs-2020/user/ulib.c:65
     c62:	0c6d                	addi	s8,s8,27
     c64:	0000                	unimp
     c66:	0115                	addi	sp,sp,5
/home/one/xv6-labs-2020/user/ulib.c:66
     c68:	025a                	slli	tp,tp,0x16
     c6a:	14000083          	lb	ra,320(zero) # 140 <runcmd+0x98>
/home/one/xv6-labs-2020/user/ulib.c:61 (discriminator 1)
     c6e:	04ac                	addi	a1,sp,584
/home/one/xv6-labs-2020/user/ulib.c:66 (discriminator 1)
     c70:	0000                	unimp
     c72:	0000                	unimp
     c74:	0000                	unimp
/home/one/xv6-labs-2020/user/ulib.c:61
     c76:	0000152f          	0x152f
/home/one/xv6-labs-2020/user/ulib.c:69
     c7a:	0c85                	addi	s9,s9,1
     c7c:	0000                	unimp
/home/one/xv6-labs-2020/user/ulib.c:71
     c7e:	0115                	addi	sp,sp,5
     c80:	025a                	slli	tp,tp,0x16
     c82:	16000083          	lb	ra,352(zero) # 160 <runcmd+0xb8>
     c86:	04bc                	addi	a5,sp,584
     c88:	0000                	unimp
     c8a:	0000                	unimp
     c8c:	0000                	unimp
     c8e:	0000152f          	0x152f
     c92:	0115                	addi	sp,sp,5
     c94:	025a                	slli	tp,tp,0x16
stat():
/home/one/xv6-labs-2020/user/ulib.c:75
     c96:	0085                	addi	ra,ra,1
     c98:	0000                	unimp
     c9a:	1518                	addi	a4,sp,672
     c9c:	0000                	unimp
     c9e:	0100                	addi	s0,sp,128
     ca0:	01fa                	slli	gp,gp,0x1e
     ca2:	0118                	addi	a4,sp,128
/home/one/xv6-labs-2020/user/ulib.c:79
     ca4:	0000                	unimp
     ca6:	03a0                	addi	s0,sp,456
     ca8:	0000                	unimp
     caa:	0000                	unimp
     cac:	0000                	unimp
/home/one/xv6-labs-2020/user/ulib.c:80
     cae:	003c                	addi	a5,sp,8
     cb0:	0000                	unimp
     cb2:	0000                	unimp
/home/one/xv6-labs-2020/user/ulib.c:82
     cb4:	0000                	unimp
     cb6:	9c01                	subw	s0,s0,s0
     cb8:	0d12                	slli	s10,s10,0x4
     cba:	0000                	unimp
     cbc:	d719                	beqz	a4,bca <strlen+0x22>
     cbe:	0000                	unimp
/home/one/xv6-labs-2020/user/ulib.c:83
     cc0:	0100                	addi	s0,sp,128
     cc2:	15fa                	slli	a1,a1,0x3e
     cc4:	0118                	addi	a4,sp,128
     cc6:	0000                	unimp
     cc8:	0cdf 0000 631a      	0x631a00000cdf
/home/one/xv6-labs-2020/user/ulib.c:85
     cce:	646d                	lui	s0,0x1b
     cd0:	0100                	addi	s0,sp,128
     cd2:	13fc                	addi	a5,sp,492
     cd4:	02df 0000 0d29      	0xd29000002df
/home/one/xv6-labs-2020/user/ulib.c:81
     cda:	0000                	unimp
atoi():
/home/one/xv6-labs-2020/user/ulib.c:89
     cdc:	b814                	fsd	fa3,48(s0)
     cde:	00000003          	lb	zero,0(zero) # 0 <getcmd>
/home/one/xv6-labs-2020/user/ulib.c:93
     ce2:	0000                	unimp
     ce4:	3b00                	fld	fs0,48(a4)
     ce6:	0015                	c.nop	5
     ce8:	f300                	sd	s0,32(a4)
     cea:	000c                	0xc
     cec:	1500                	addi	s0,sp,672
     cee:	5a01                	li	s4,-32
     cf0:	4001                	c.li	zero,0
     cf2:	1600                	addi	s0,sp,800
     cf4:	03c6                	slli	t2,t2,0x11
/home/one/xv6-labs-2020/user/ulib.c:92
     cf6:	0000                	unimp
/home/one/xv6-labs-2020/user/ulib.c:93
     cf8:	0000                	unimp
/home/one/xv6-labs-2020/user/ulib.c:94
     cfa:	0000                	unimp
     cfc:	00001547          	fmsub.s	fa0,ft0,ft0,ft0,rtz
     d00:	0115                	addi	sp,sp,5
     d02:	025a                	slli	tp,tp,0x16
     d04:	0079                	c.nop	30
     d06:	0115                	addi	sp,sp,5
     d08:	1530015b          	0x1530015b
/home/one/xv6-labs-2020/user/ulib.c:93
     d0c:	5c01                	li	s8,-32
     d0e:	4001                	c.li	zero,0
     d10:	0000                	unimp
     d12:	4518                	lw	a4,8(a0)
     d14:	0000                	unimp
     d16:	0100                	addi	s0,sp,128
     d18:	01ed                	addi	gp,gp,27
     d1a:	0118                	addi	a4,sp,128
/home/one/xv6-labs-2020/user/ulib.c:96
     d1c:	0000                	unimp
     d1e:	035a                	slli	t1,t1,0x16
     d20:	0000                	unimp
/home/one/xv6-labs-2020/user/ulib.c:92
     d22:	0000                	unimp
     d24:	0000                	unimp
memmove():
/home/one/xv6-labs-2020/user/ulib.c:100
     d26:	0046                	c.slli	zero,0x11
     d28:	0000                	unimp
     d2a:	0000                	unimp
/home/one/xv6-labs-2020/user/ulib.c:106
     d2c:	0000                	unimp
     d2e:	9c01                	subw	s0,s0,s0
/home/one/xv6-labs-2020/user/ulib.c:107
     d30:	0d9a                	slli	s11,s11,0x6
     d32:	0000                	unimp
     d34:	4019                	c.li	zero,6
     d36:	0000                	unimp
     d38:	0100                	addi	s0,sp,128
     d3a:	15ed                	addi	a1,a1,-5
     d3c:	0118                	addi	a4,sp,128
     d3e:	0000                	unimp
/home/one/xv6-labs-2020/user/ulib.c:104
     d40:	0d5f 0000 f419      	0xf41900000d5f
/home/one/xv6-labs-2020/user/ulib.c:108
     d46:	0000                	unimp
     d48:	0100                	addi	s0,sp,128
     d4a:	27ed                	addiw	a5,a5,27
     d4c:	0118                	addi	a4,sp,128
/home/one/xv6-labs-2020/user/ulib.c:107
     d4e:	0000                	unimp
     d50:	0da9                	addi	s11,s11,10
/home/one/xv6-labs-2020/user/ulib.c:116
     d52:	0000                	unimp
     d54:	631a                	ld	t1,384(sp)
     d56:	646d                	lui	s0,0x1b
/home/one/xv6-labs-2020/user/ulib.c:110
     d58:	0100                	addi	s0,sp,128
     d5a:	02eb13ef          	jal	t2,b1d88 <__global_pointer$+0xb0120>
/home/one/xv6-labs-2020/user/ulib.c:112
     d5e:	0000                	unimp
     d60:	00000df3          	0xdf3
     d64:	7614                	ld	a3,40(a2)
     d66:	00000003          	lb	zero,0(zero) # 0 <getcmd>
     d6a:	0000                	unimp
     d6c:	3b00                	fld	fs0,48(a4)
     d6e:	0015                	c.nop	5
/home/one/xv6-labs-2020/user/ulib.c:113
     d70:	7b00                	ld	s0,48(a4)
     d72:	000d                	c.nop	3
     d74:	1500                	addi	s0,sp,672
     d76:	5a01                	li	s4,-32
     d78:	4801                	li	a6,0
     d7a:	1600                	addi	s0,sp,800
/home/one/xv6-labs-2020/user/ulib.c:112
     d7c:	0384                	addi	s1,sp,448
     d7e:	0000                	unimp
     d80:	0000                	unimp
memcmp():
/home/one/xv6-labs-2020/user/ulib.c:120
     d82:	0000                	unimp
     d84:	00001547          	fmsub.s	fa0,ft0,ft0,ft0,rtz
/home/one/xv6-labs-2020/user/ulib.c:122
     d88:	0115                	addi	sp,sp,5
     d8a:	025a                	slli	tp,tp,0x16
     d8c:	0079                	c.nop	30
/home/one/xv6-labs-2020/user/ulib.c:123
     d8e:	0115                	addi	sp,sp,5
     d90:	1530015b          	0x1530015b
     d94:	5c01                	li	s8,-32
     d96:	4801                	li	a6,0
     d98:	0000                	unimp
     d9a:	fa18                	sd	a4,48(a2)
     d9c:	0000                	unimp
     d9e:	0100                	addi	s0,sp,128
     da0:	01e0                	addi	s0,sp,204
/home/one/xv6-labs-2020/user/ulib.c:126
     da2:	0118                	addi	a4,sp,128
/home/one/xv6-labs-2020/user/ulib.c:127
     da4:	0000                	unimp
/home/one/xv6-labs-2020/user/ulib.c:122
     da6:	0314                	addi	a3,sp,384
     da8:	0000                	unimp
/home/one/xv6-labs-2020/user/ulib.c:123
     daa:	0000                	unimp
     dac:	0000                	unimp
     dae:	0046                	c.slli	zero,0x11
     db0:	0000                	unimp
     db2:	0000                	unimp
     db4:	0000                	unimp
/home/one/xv6-labs-2020/user/ulib.c:124
     db6:	9c01                	subw	s0,s0,s0
     db8:	0e22                	slli	t3,t3,0x8
/home/one/xv6-labs-2020/user/ulib.c:130
     dba:	0000                	unimp
     dbc:	4019                	c.li	zero,6
     dbe:	0000                	unimp
/home/one/xv6-labs-2020/user/ulib.c:129
     dc0:	0100                	addi	s0,sp,128
     dc2:	15e0                	addi	s0,sp,748
     dc4:	0118                	addi	a4,sp,128
     dc6:	0000                	unimp
memcpy():
/home/one/xv6-labs-2020/user/ulib.c:134
     dc8:	0e29                	addi	t3,t3,10
     dca:	0000                	unimp
     dcc:	f419                	bnez	s0,cda <stat+0x44>
     dce:	0000                	unimp
/home/one/xv6-labs-2020/user/ulib.c:135
     dd0:	0100                	addi	s0,sp,128
     dd2:	27e0                	fld	fs0,200(a5)
     dd4:	0118                	addi	a4,sp,128
     dd6:	0000                	unimp
/home/one/xv6-labs-2020/user/ulib.c:136
     dd8:	00000e73          	0xe73
     ddc:	631a                	ld	t1,384(sp)
     dde:	646d                	lui	s0,0x1b
/home/one/xv6-labs-2020/user/usys.S:5
     de0:	0100                	addi	s0,sp,128
/home/one/xv6-labs-2020/user/usys.S:6
     de2:	13e2                	slli	t2,t2,0x38
     de4:	02f1                	addi	t0,t0,28
/home/one/xv6-labs-2020/user/usys.S:7
     de6:	0000                	unimp
/home/one/xv6-labs-2020/user/usys.S:10
     de8:	0ebd                	addi	t4,t4,15
/home/one/xv6-labs-2020/user/usys.S:11
     dea:	0000                	unimp
     dec:	3014                	fld	fa3,32(s0)
/home/one/xv6-labs-2020/user/usys.S:12
     dee:	00000003          	lb	zero,0(zero) # 0 <getcmd>
/home/one/xv6-labs-2020/user/usys.S:16
     df2:	0000                	unimp
     df4:	3b00                	fld	fs0,48(a4)
/home/one/xv6-labs-2020/user/usys.S:17
     df6:	0015                	c.nop	5
/home/one/xv6-labs-2020/user/usys.S:20
     df8:	0300                	addi	s0,sp,384
/home/one/xv6-labs-2020/user/usys.S:21
     dfa:	000e                	c.slli	zero,0x3
     dfc:	1500                	addi	s0,sp,672
/home/one/xv6-labs-2020/user/usys.S:22
     dfe:	5a01                	li	s4,-32
/home/one/xv6-labs-2020/user/usys.S:25
     e00:	4801                	li	a6,0
/home/one/xv6-labs-2020/user/usys.S:26
     e02:	1600                	addi	s0,sp,800
     e04:	033e                	slli	t1,t1,0xf
/home/one/xv6-labs-2020/user/usys.S:27
     e06:	0000                	unimp
/home/one/xv6-labs-2020/user/usys.S:30
     e08:	0000                	unimp
/home/one/xv6-labs-2020/user/usys.S:31
     e0a:	0000                	unimp
     e0c:	00001547          	fmsub.s	fa0,ft0,ft0,ft0,rtz
/home/one/xv6-labs-2020/user/usys.S:35
     e10:	0115                	addi	sp,sp,5
/home/one/xv6-labs-2020/user/usys.S:36
     e12:	025a                	slli	tp,tp,0x16
     e14:	0079                	c.nop	30
/home/one/xv6-labs-2020/user/usys.S:37
     e16:	0115                	addi	sp,sp,5
/home/one/xv6-labs-2020/user/usys.S:40
     e18:	1530015b          	0x1530015b
/home/one/xv6-labs-2020/user/usys.S:41
     e1c:	5c01                	li	s8,-32
/home/one/xv6-labs-2020/user/usys.S:42
     e1e:	4801                	li	a6,0
/home/one/xv6-labs-2020/user/usys.S:45
     e20:	0000                	unimp
/home/one/xv6-labs-2020/user/usys.S:46
     e22:	1018                	addi	a4,sp,32
     e24:	0002                	c.slli64	zero
/home/one/xv6-labs-2020/user/usys.S:47
     e26:	0100                	addi	s0,sp,128
/home/one/xv6-labs-2020/user/usys.S:50
     e28:	01d0                	addi	a2,sp,196
/home/one/xv6-labs-2020/user/usys.S:51
     e2a:	0118                	addi	a4,sp,128
     e2c:	0000                	unimp
/home/one/xv6-labs-2020/user/usys.S:52
     e2e:	02ac                	addi	a1,sp,328
/home/one/xv6-labs-2020/user/usys.S:55
     e30:	0000                	unimp
/home/one/xv6-labs-2020/user/usys.S:56
     e32:	0000                	unimp
     e34:	0000                	unimp
/home/one/xv6-labs-2020/user/usys.S:57
     e36:	0068                	addi	a0,sp,12
/home/one/xv6-labs-2020/user/usys.S:60
     e38:	0000                	unimp
/home/one/xv6-labs-2020/user/usys.S:61
     e3a:	0000                	unimp
     e3c:	0000                	unimp
/home/one/xv6-labs-2020/user/usys.S:62
     e3e:	9c01                	subw	s0,s0,s0
/home/one/xv6-labs-2020/user/usys.S:65
     e40:	00000edb          	0xedb
/home/one/xv6-labs-2020/user/usys.S:66
     e44:	d719                	beqz	a4,d52 <memmove+0x2c>
/home/one/xv6-labs-2020/user/usys.S:67
     e46:	0000                	unimp
/home/one/xv6-labs-2020/user/usys.S:70
     e48:	0100                	addi	s0,sp,128
/home/one/xv6-labs-2020/user/usys.S:71
     e4a:	16d0                	addi	a2,sp,868
     e4c:	0118                	addi	a4,sp,128
/home/one/xv6-labs-2020/user/usys.S:72
     e4e:	0000                	unimp
/home/one/xv6-labs-2020/user/usys.S:75
     e50:	00000ef3          	0xef3
/home/one/xv6-labs-2020/user/usys.S:76
     e54:	0519                	addi	a0,a0,6
/home/one/xv6-labs-2020/user/usys.S:77
     e56:	0002                	c.slli64	zero
/home/one/xv6-labs-2020/user/usys.S:80
     e58:	0100                	addi	s0,sp,128
/home/one/xv6-labs-2020/user/usys.S:81
     e5a:	24d0                	fld	fa2,136(s1)
     e5c:	00b0                	addi	a2,sp,72
/home/one/xv6-labs-2020/user/usys.S:82
     e5e:	0000                	unimp
/home/one/xv6-labs-2020/user/usys.S:85
     e60:	0f3d                	addi	t5,t5,15
/home/one/xv6-labs-2020/user/usys.S:86
     e62:	0000                	unimp
     e64:	0419                	addi	s0,s0,6
/home/one/xv6-labs-2020/user/usys.S:87
     e66:	0002                	c.slli64	zero
/home/one/xv6-labs-2020/user/usys.S:90
     e68:	0100                	addi	s0,sp,128
/home/one/xv6-labs-2020/user/usys.S:91
     e6a:	30d0                	fld	fa2,160(s1)
     e6c:	00b0                	addi	a2,sp,72
/home/one/xv6-labs-2020/user/usys.S:92
     e6e:	0000                	unimp
/home/one/xv6-labs-2020/user/usys.S:95
     e70:	00000f87          	0xf87
/home/one/xv6-labs-2020/user/usys.S:96
     e74:	0919                	addi	s2,s2,6
/home/one/xv6-labs-2020/user/usys.S:97
     e76:	0001                	nop
/home/one/xv6-labs-2020/user/usys.S:100
     e78:	0100                	addi	s0,sp,128
/home/one/xv6-labs-2020/user/usys.S:101
     e7a:	3bd0                	fld	fa2,176(a5)
     e7c:	0064                	addi	s1,sp,12
/home/one/xv6-labs-2020/user/usys.S:102
     e7e:	0000                	unimp
/home/one/xv6-labs-2020/user/usys.S:105
     e80:	0fd1                	addi	t6,t6,20
/home/one/xv6-labs-2020/user/usys.S:106
     e82:	0000                	unimp
     e84:	0064661b          	0x64661b
putc():
/home/one/xv6-labs-2020/user/printf.c:11
     e88:	d001                	beqz	s0,d88 <memcmp+0x6>
     e8a:	6445                	lui	s0,0x11
     e8c:	0000                	unimp
     e8e:	0a00                	addi	s0,sp,272
     e90:	0010                	0x10
     e92:	1a00                	addi	s0,sp,304
/home/one/xv6-labs-2020/user/printf.c:12
     e94:	00646d63          	bltu	s0,t1,eae <printint+0x4>
     e98:	d201                	beqz	a2,d98 <memcmp+0x16>
     e9a:	f714                	sd	a3,40(a4)
     e9c:	0002                	c.slli64	zero
     e9e:	4300                	lw	s0,0(a4)
     ea0:	0010                	0x10
/home/one/xv6-labs-2020/user/printf.c:13
     ea2:	1400                	addi	s0,sp,544
     ea4:	02d6                	slli	t0,t0,0x15
     ea6:	0000                	unimp
     ea8:	0000                	unimp
printint():
/home/one/xv6-labs-2020/user/printf.c:17
     eaa:	0000                	unimp
     eac:	0000153b          	sllw	a0,zero,zero
     eb0:	00000ebb          	addw	t4,zero,zero
     eb4:	0115                	addi	sp,sp,5
     eb6:	025a                	slli	tp,tp,0x16
/home/one/xv6-labs-2020/user/printf.c:23
     eb8:	2808                	fld	fa0,16(s0)
/home/one/xv6-labs-2020/user/printf.c:23 (discriminator 1)
     eba:	1600                	addi	s0,sp,800
     ebc:	02e6                	slli	t0,t0,0x19
/home/one/xv6-labs-2020/user/printf.c:27
     ebe:	0000                	unimp
/home/one/xv6-labs-2020/user/printf.c:22
     ec0:	0000                	unimp
     ec2:	0000                	unimp
     ec4:	00001547          	fmsub.s	fa0,ft0,ft0,ft0,rtz
/home/one/xv6-labs-2020/user/printf.c:32
     ec8:	0115                	addi	sp,sp,5
     eca:	025a                	slli	tp,tp,0x16
     ecc:	0079                	c.nop	30
     ece:	0115                	addi	sp,sp,5
     ed0:	1530015b          	0x1530015b
/home/one/xv6-labs-2020/user/printf.c:25
     ed4:	5c01                	li	s8,-32
     ed6:	0802                	c.slli64	a6
/home/one/xv6-labs-2020/user/printf.c:24
     ed8:	0028                	addi	a0,sp,8
/home/one/xv6-labs-2020/user/printf.c:25
     eda:	1800                	addi	s0,sp,48
/home/one/xv6-labs-2020/user/printf.c:33
     edc:	0054                	addi	a3,sp,4
/home/one/xv6-labs-2020/user/printf.c:32
     ede:	0000                	unimp
/home/one/xv6-labs-2020/user/printf.c:32 (discriminator 1)
     ee0:	c501                	beqz	a0,ee8 <printint+0x3e>
     ee2:	1801                	addi	a6,a6,-32
     ee4:	0001                	nop
     ee6:	7600                	ld	s0,40(a2)
     ee8:	0002                	c.slli64	zero
     eea:	0000                	unimp
     eec:	0000                	unimp
     eee:	3600                	fld	fs0,40(a2)
     ef0:	0000                	unimp
     ef2:	0000                	unimp
     ef4:	0000                	unimp
     ef6:	0100                	addi	s0,sp,128
/home/one/xv6-labs-2020/user/printf.c:33 (discriminator 1)
     ef8:	459c                	lw	a5,8(a1)
     efa:	1a00000f          	0x1a00000f
     efe:	00646d63          	bltu	s0,t1,f18 <printint+0x6e>
/home/one/xv6-labs-2020/user/printf.c:34
     f02:	c701                	beqz	a4,f0a <printint+0x60>
/home/one/xv6-labs-2020/user/printf.c:35
     f04:	0002e513          	ori	a0,t0,0
     f08:	7900                	ld	s0,48(a0)
     f0a:	0010                	0x10
     f0c:	1400                	addi	s0,sp,544
     f0e:	028c                	addi	a1,sp,320
     f10:	0000                	unimp
     f12:	0000                	unimp
     f14:	0000                	unimp
/home/one/xv6-labs-2020/user/printf.c:37
     f16:	0000153b          	sllw	a0,zero,zero
     f1a:	0f25                	addi	t5,t5,9
     f1c:	0000                	unimp
     f1e:	0115                	addi	sp,sp,5
     f20:	025a                	slli	tp,tp,0x16
     f22:	a808                	fsd	fa0,16(s0)
     f24:	1600                	addi	s0,sp,800
     f26:	029c                	addi	a5,sp,320
     f28:	0000                	unimp
     f2a:	0000                	unimp
     f2c:	0000                	unimp
     f2e:	00001547          	fmsub.s	fa0,ft0,ft0,ft0,rtz
     f32:	0115                	addi	sp,sp,5
/home/one/xv6-labs-2020/user/printf.c:38
     f34:	025a                	slli	tp,tp,0x16
     f36:	0079                	c.nop	30
     f38:	0115                	addi	sp,sp,5
     f3a:	1530015b          	0x1530015b
     f3e:	5c01                	li	s8,-32
     f40:	0802                	c.slli64	a6
     f42:	00a8                	addi	a0,sp,72
/home/one/xv6-labs-2020/user/printf.c:37
     f44:	1800                	addi	s0,sp,48
     f46:	0121                	addi	sp,sp,8
/home/one/xv6-labs-2020/user/printf.c:39
     f48:	0000                	unimp
     f4a:	b701                	j	e4a <link+0x2>
     f4c:	6401                	0x6401
     f4e:	0000                	unimp
     f50:	7a00                	ld	s0,48(a2)
     f52:	0000                	unimp
     f54:	0000                	unimp
vprintf():
/home/one/xv6-labs-2020/user/printf.c:53
     f56:	0000                	unimp
     f58:	2e00                	fld	fs0,24(a2)
     f5a:	0000                	unimp
     f5c:	0000                	unimp
     f5e:	0000                	unimp
     f60:	0100                	addi	s0,sp,128
     f62:	a09c                	fsd	fa5,0(s1)
     f64:	1a00000f          	0x1a00000f
     f68:	6970                	ld	a2,208(a0)
     f6a:	0064                	addi	s1,sp,12
     f6c:	b901                	j	b7c <strcmp+0x8>
     f6e:	00006407          	0x6407
     f72:	af00                	fsd	fs0,24(a4)
/home/one/xv6-labs-2020/user/printf.c:58
     f74:	0010                	0x10
     f76:	1200                	addi	s0,sp,288
     f78:	008a                	slli	ra,ra,0x2
     f7a:	0000                	unimp
     f7c:	0000                	unimp
     f7e:	0000                	unimp
     f80:	00001553          	fadd.s	fa0,ft0,ft0,rtz
/home/one/xv6-labs-2020/user/printf.c:57
     f84:	a816                	fsd	ft5,16(sp)
/home/one/xv6-labs-2020/user/printf.c:66
     f86:	0000                	unimp
     f88:	0000                	unimp
/home/one/xv6-labs-2020/user/printf.c:67
     f8a:	0000                	unimp
     f8c:	a000                	fsd	fs0,0(s0)
/home/one/xv6-labs-2020/user/printf.c:69
     f8e:	1500000f          	0x1500000f
/home/one/xv6-labs-2020/user/printf.c:71
     f92:	5a01                	li	s4,-32
     f94:	0309                	addi	t1,t1,2
/home/one/xv6-labs-2020/user/printf.c:73
     f96:	1348                	addi	a0,sp,420
	...
printptr():
/home/one/xv6-labs-2020/user/printf.c:47
     fa0:	3a1c                	fld	fa5,48(a2)
     fa2:	0000                	unimp
vprintf():
/home/one/xv6-labs-2020/user/printf.c:64
     fa4:	0100                	addi	s0,sp,128
     fa6:	01b0                	addi	a2,sp,200
     fa8:	0054                	addi	a3,sp,4
     faa:	0000                	unimp
     fac:	0000                	unimp
     fae:	0000                	unimp
     fb0:	0026                	c.slli	zero,0x9
/home/one/xv6-labs-2020/user/printf.c:66
     fb2:	0000                	unimp
     fb4:	0000                	unimp
     fb6:	0000                	unimp
/home/one/xv6-labs-2020/user/printf.c:58 (discriminator 2)
     fb8:	9c01                	subw	s0,s0,s0
     fba:	0000100b          	0x100b
     fbe:	0100731b          	0x100731b
/home/one/xv6-labs-2020/user/printf.c:59
     fc2:	0db0                	addi	a2,sp,728
/home/one/xv6-labs-2020/user/printf.c:60
     fc4:	00b0                	addi	a2,sp,72
     fc6:	0000                	unimp
/home/one/xv6-labs-2020/user/printf.c:61
     fc8:	10d2                	slli	ra,ra,0x34
     fca:	0000                	unimp
/home/one/xv6-labs-2020/user/printf.c:62
     fcc:	7014                	ld	a3,32(s0)
     fce:	0000                	unimp
/home/one/xv6-labs-2020/user/printf.c:67
     fd0:	0000                	unimp
     fd2:	0000                	unimp
/home/one/xv6-labs-2020/user/printf.c:69
     fd4:	2300                	fld	fs0,0(a4)
     fd6:	0015                	c.nop	5
/home/one/xv6-labs-2020/user/printf.c:71
     fd8:	f700                	sd	s0,40(a4)
     fda:	1500000f          	0x1500000f
/home/one/xv6-labs-2020/user/printf.c:73
     fde:	5a01                	li	s4,-32
/home/one/xv6-labs-2020/user/printf.c:75
     fe0:	3201                	addiw	tp,tp,-32
     fe2:	0115                	addi	sp,sp,5
     fe4:	4003095b          	0x4003095b
/home/one/xv6-labs-2020/user/printf.c:83
     fe8:	00000013          	nop
     fec:	0000                	unimp
     fee:	1500                	addi	s0,sp,672
/home/one/xv6-labs-2020/user/printf.c:85
     ff0:	5c01                	li	s8,-32
     ff2:	5a01f303          	0x5a01f303
/home/one/xv6-labs-2020/user/printf.c:89
     ff6:	1600                	addi	s0,sp,800
     ff8:	007a                	c.slli	zero,0x1e
     ffa:	0000                	unimp
     ffc:	0000                	unimp
     ffe:	0000                	unimp
/home/one/xv6-labs-2020/user/printf.c:90
    1000:	155f 0000 0115      	0x1150000155f
    1006:	015a                	slli	sp,sp,0x16
    1008:	0031                	c.nop	12
    100a:	1800                	addi	s0,sp,48
/home/one/xv6-labs-2020/user/printf.c:92
    100c:	000000e3          	beqz	zero,180c <__BSS_END__+0x314>
/home/one/xv6-labs-2020/user/printf.c:68
    1010:	9201                	srli	a2,a2,0x20
    1012:	6401                	0x6401
    1014:	0000                	unimp
    1016:	6400                	ld	s0,8(s0)
    1018:	000a                	c.slli	zero,0x2
    101a:	0000                	unimp
    101c:	0000                	unimp
    101e:	f400                	sd	s0,40(s0)
    1020:	0000                	unimp
    1022:	0000                	unimp
    1024:	0000                	unimp
    1026:	0100                	addi	s0,sp,128
/home/one/xv6-labs-2020/user/printf.c:92
    1028:	4a9c                	lw	a5,16(a3)
    102a:	0011                	c.nop	4
/home/one/xv6-labs-2020/user/printf.c:70
    102c:	1d00                	addi	s0,sp,688
    102e:	7562                	ld	a0,56(sp)
    1030:	0066                	c.slli	zero,0x19
    1032:	9401                	srai	s0,s0,0x20
    1034:	00114a0f          	0x114a0f
    1038:	0900                	addi	s0,sp,144
    103a:	00148003          	lb	zero,1(s1)
    103e:	0000                	unimp
    1040:	0000                	unimp
    1042:	1a00                	addi	s0,sp,304
/home/one/xv6-labs-2020/user/printf.c:92
    1044:	6466                	ld	s0,88(sp)
    1046:	0100                	addi	s0,sp,128
/home/one/xv6-labs-2020/user/printf.c:72
    1048:	0795                	addi	a5,a5,5
    104a:	0064                	addi	s1,sp,12
    104c:	0000                	unimp
    104e:	111e                	slli	sp,sp,0x27
    1050:	0000                	unimp
    1052:	8a14                	0x8a14
    1054:	000a                	c.slli	zero,0x2
    1056:	0000                	unimp
    1058:	0000                	unimp
    105a:	6b00                	ld	s0,16(a4)
    105c:	0015                	c.nop	5
    105e:	6f00                	ld	s0,24(a4)
/home/one/xv6-labs-2020/user/printf.c:92
    1060:	0010                	0x10
    1062:	1500                	addi	s0,sp,672
/home/one/xv6-labs-2020/user/printf.c:74
    1064:	5a01                	li	s4,-32
    1066:	7902                	ld	s2,32(sp)
    1068:	1500                	addi	s0,sp,672
    106a:	5b01                	li	s6,-32
    106c:	3201                	addiw	tp,tp,-32
    106e:	1200                	addi	s0,sp,288
printptr():
/home/one/xv6-labs-2020/user/printf.c:44
    1070:	0a9c                	addi	a5,sp,336
    1072:	0000                	unimp
    1074:	0000                	unimp
    1076:	0000                	unimp
    1078:	00001577          	0x1577
    107c:	c612                	sw	tp,12(sp)
/home/one/xv6-labs-2020/user/printf.c:45
    107e:	000a                	c.slli	zero,0x2
    1080:	0000                	unimp
    1082:	0000                	unimp
    1084:	4500                	lw	s0,8(a0)
    1086:	1400000f          	0x1400000f
    108a:	0ad2                	slli	s5,s5,0x14
/home/one/xv6-labs-2020/user/printf.c:47
    108c:	0000                	unimp
    108e:	0000                	unimp
    1090:	0000                	unimp
    1092:	00001583          	lh	a1,0(zero) # 0 <getcmd>
    1096:	10a0                	addi	s0,sp,104
    1098:	0000                	unimp
    109a:	0115                	addi	sp,sp,5
    109c:	015a                	slli	sp,sp,0x16
    109e:	0030                	addi	a2,sp,8
/home/one/xv6-labs-2020/user/printf.c:46
    10a0:	e014                	sd	a3,0(s0)
    10a2:	000a                	c.slli	zero,0x2
    10a4:	0000                	unimp
vprintf():
/home/one/xv6-labs-2020/user/printf.c:74
    10a6:	0000                	unimp
    10a8:	5a00                	lw	s0,48(a2)
/home/one/xv6-labs-2020/user/printf.c:92
    10aa:	0011                	c.nop	4
    10ac:	be00                	fsd	fs0,56(a2)
/home/one/xv6-labs-2020/user/printf.c:76
    10ae:	0010                	0x10
    10b0:	1500                	addi	s0,sp,672
    10b2:	5a01                	li	s4,-32
    10b4:	7902                	ld	s2,32(sp)
/home/one/xv6-labs-2020/user/printf.c:77
    10b6:	1500                	addi	s0,sp,672
/home/one/xv6-labs-2020/user/printf.c:79
    10b8:	5b01                	li	s6,-32
    10ba:	0802                	c.slli64	a6
    10bc:	0064                	addi	s1,sp,12
/home/one/xv6-labs-2020/user/printf.c:80
    10be:	0a14                	addi	a3,sp,272
    10c0:	0000000b          	0xb
    10c4:	0000                	unimp
    10c6:	1700                	addi	s0,sp,928
/home/one/xv6-labs-2020/user/printf.c:81
    10c8:	0015                	c.nop	5
/home/one/xv6-labs-2020/user/printf.c:79
    10ca:	d600                	sw	s0,40(a2)
    10cc:	0010                	0x10
    10ce:	1500                	addi	s0,sp,672
/home/one/xv6-labs-2020/user/printf.c:76
    10d0:	5a01                	li	s4,-32
/home/one/xv6-labs-2020/user/printf.c:92
    10d2:	7902                	ld	s2,32(sp)
    10d4:	0000                	unimp
/home/one/xv6-labs-2020/user/printf.c:78
    10d6:	2214                	fld	fa3,0(a2)
    10d8:	0000000b          	0xb
    10dc:	0000                	unimp
/home/one/xv6-labs-2020/user/printf.c:79
    10de:	8f00                	0x8f00
    10e0:	0015                	c.nop	5
    10e2:	ee00                	sd	s0,24(a2)
/home/one/xv6-labs-2020/user/printf.c:84
    10e4:	0010                	0x10
    10e6:	1500                	addi	s0,sp,672
    10e8:	5a01                	li	s4,-32
    10ea:	8402                	jr	s0
    10ec:	0000                	unimp
    10ee:	3414                	fld	fa3,40(s0)
    10f0:	0000000b          	0xb
    10f4:	0000                	unimp
    10f6:	2300                	fld	fs0,0(a4)
/home/one/xv6-labs-2020/user/printf.c:92
    10f8:	0015                	c.nop	5
    10fa:	1100                	addi	s0,sp,160
/home/one/xv6-labs-2020/user/printf.c:86
    10fc:	0011                	c.nop	4
    10fe:	1500                	addi	s0,sp,672
    1100:	5a01                	li	s4,-32
    1102:	3201                	addiw	tp,tp,-32
    1104:	0115                	addi	sp,sp,5
    1106:	0085025b          	0x85025b
/home/one/xv6-labs-2020/user/printf.c:92
    110a:	0115                	addi	sp,sp,5
/home/one/xv6-labs-2020/user/printf.c:76
    110c:	025c                	addi	a5,sp,260
/home/one/xv6-labs-2020/user/printf.c:92
    110e:	0084                	addi	s1,sp,64
    1110:	1400                	addi	s0,sp,544
/home/one/xv6-labs-2020/user/printf.c:95
    1112:	0b46                	slli	s6,s6,0x11
    1114:	0000                	unimp
    1116:	0000                	unimp
    1118:	0000                	unimp
    111a:	0a1f 0000 1129      	0x112900000a1f
    1120:	0000                	unimp
    1122:	0115                	addi	sp,sp,5
    1124:	025a                	slli	tp,tp,0x16
    1126:	0079                	c.nop	30
    1128:	1200                	addi	s0,sp,288
    112a:	0b4e                	slli	s6,s6,0x13
    112c:	0000                	unimp
    112e:	0000                	unimp
fprintf():
/home/one/xv6-labs-2020/user/printf.c:99
    1130:	0000                	unimp
    1132:	11fe                	slli	gp,gp,0x3f
    1134:	0000                	unimp
    1136:	5816                	lw	a6,100(sp)
    1138:	0000000b          	0xb
    113c:	0000                	unimp
    113e:	5f00                	lw	s0,56(a4)
    1140:	0015                	c.nop	5
    1142:	1500                	addi	s0,sp,672
    1144:	5a01                	li	s4,-32
    1146:	3001                	0x3001
/home/one/xv6-labs-2020/user/printf.c:102
    1148:	0000                	unimp
    114a:	0000b607          	fld	fa2,0(ra)
/home/one/xv6-labs-2020/user/printf.c:103
    114e:	5a00                	lw	s0,48(a2)
    1150:	0011                	c.nop	4
    1152:	0800                	addi	s0,sp,16
    1154:	0042                	c.slli	zero,0x10
/home/one/xv6-labs-2020/user/printf.c:104
    1156:	0000                	unimp
    1158:	02180063          	beq	a6,ra,1178 <printf+0x1a>
    115c:	0001                	nop
printf():
/home/one/xv6-labs-2020/user/printf.c:108
    115e:	0100                	addi	s0,sp,128
    1160:	00640187          	0x640187
	...
    116c:	0000                	unimp
    116e:	0054                	addi	a3,sp,4
    1170:	0000                	unimp
    1172:	0000                	unimp
    1174:	0000                	unimp
    1176:	9c01                	subw	s0,s0,s0
/home/one/xv6-labs-2020/user/printf.c:111
    1178:	11fe                	slli	gp,gp,0x3f
    117a:	0000                	unimp
    117c:	6675621b          	0x6675621b
/home/one/xv6-labs-2020/user/printf.c:112
    1180:	0100                	addi	s0,sp,128
    1182:	00b00e87          	0xb00e87
    1186:	0000                	unimp
    1188:	1141                	addi	sp,sp,-16
    118a:	0000                	unimp
/home/one/xv6-labs-2020/user/printf.c:113
    118c:	8919                	andi	a0,a0,6
    118e:	0000                	unimp
    1190:	0100                	addi	s0,sp,128
    1192:	00641787          	0x641787
free():
/home/one/xv6-labs-2020/user/umalloc.c:26
    1196:	0000                	unimp
    1198:	118d                	addi	gp,gp,-29
/home/one/xv6-labs-2020/user/umalloc.c:29
    119a:	0000                	unimp
    119c:	2214                	fld	fa3,0(a2)
/home/one/xv6-labs-2020/user/umalloc.c:30
    119e:	0000                	unimp
    11a0:	0000                	unimp
    11a2:	0000                	unimp
    11a4:	2300                	fld	fs0,0(a4)
    11a6:	0015                	c.nop	5
    11a8:	c000                	sw	s0,0(s0)
/home/one/xv6-labs-2020/user/umalloc.c:34
    11aa:	0011                	c.nop	4
    11ac:	1500                	addi	s0,sp,672
    11ae:	5a01                	li	s4,-32
    11b0:	3201                	addiw	tp,tp,-32
/home/one/xv6-labs-2020/user/umalloc.c:35
    11b2:	0115                	addi	sp,sp,5
    11b4:	3803095b          	0x3803095b
    11b8:	00000013          	nop
/home/one/xv6-labs-2020/user/umalloc.c:39
    11bc:	0000                	unimp
    11be:	0000                	unimp
    11c0:	3014                	fld	fa3,32(s0)
    11c2:	0000                	unimp
/home/one/xv6-labs-2020/user/umalloc.c:40
    11c4:	0000                	unimp
    11c6:	0000                	unimp
    11c8:	4700                	lw	s0,8(a4)
    11ca:	0015                	c.nop	5
/home/one/xv6-labs-2020/user/umalloc.c:31
    11cc:	e300                	sd	s0,0(a4)
    11ce:	0011                	c.nop	4
    11d0:	1500                	addi	s0,sp,672
/home/one/xv6-labs-2020/user/umalloc.c:31 (discriminator 2)
    11d2:	5a01                	li	s4,-32
    11d4:	7902                	ld	s2,32(sp)
/home/one/xv6-labs-2020/user/umalloc.c:26 (discriminator 1)
    11d6:	1500                	addi	s0,sp,672
/home/one/xv6-labs-2020/user/umalloc.c:30 (discriminator 1)
    11d8:	5b01                	li	s6,-32
    11da:	3001                	0x3001
/home/one/xv6-labs-2020/user/umalloc.c:30 (discriminator 3)
    11dc:	0115                	addi	sp,sp,5
    11de:	025c                	addi	a5,sp,260
    11e0:	0082                	c.slli64	ra
/home/one/xv6-labs-2020/user/umalloc.c:31
    11e2:	1600                	addi	s0,sp,800
    11e4:	003c                	addi	a5,sp,8
/home/one/xv6-labs-2020/user/umalloc.c:33
    11e6:	0000                	unimp
    11e8:	0000                	unimp
    11ea:	0000                	unimp
    11ec:	0000159b          	slliw	a1,zero,0x0
    11f0:	0115                	addi	sp,sp,5
    11f2:	025a                	slli	tp,tp,0x16
    11f4:	0079                	c.nop	30
    11f6:	0115                	addi	sp,sp,5
    11f8:	0082025b          	0x82025b
/home/one/xv6-labs-2020/user/umalloc.c:37
    11fc:	0000                	unimp
/home/one/xv6-labs-2020/user/umalloc.c:38
    11fe:	0e1c                	addi	a5,sp,784
    1200:	0000                	unimp
    1202:	0100                	addi	s0,sp,128
    1204:	013a                	slli	sp,sp,0xe
    1206:	00a8                	addi	a0,sp,72
    1208:	0000                	unimp
    120a:	0000                	unimp
    120c:	0000                	unimp
/home/one/xv6-labs-2020/user/umalloc.c:42
    120e:	01ce                	slli	gp,gp,0x13
/home/one/xv6-labs-2020/user/umalloc.c:43
    1210:	0000                	unimp
    1212:	0000                	unimp
    1214:	0000                	unimp
    1216:	9c01                	subw	s0,s0,s0
/home/one/xv6-labs-2020/user/umalloc.c:44
    1218:	00001507          	0x1507
    121c:	646d631b          	0x646d631b
malloc():
/home/one/xv6-labs-2020/user/umalloc.c:65
    1220:	0100                	addi	s0,sp,128
    1222:	143a                	slli	s0,s0,0x2e
    1224:	0118                	addi	a4,sp,128
    1226:	0000                	unimp
    1228:	11c6                	slli	gp,gp,0x31
    122a:	0000                	unimp
    122c:	701d                	c.lui	zero,0xfffe7
    122e:	0100                	addi	s0,sp,128
    1230:	073c                	addi	a5,sp,904
/home/one/xv6-labs-2020/user/umalloc.c:69
    1232:	00001507          	0x1507
    1236:	9102                	jalr	sp
    1238:	1e58                	addi	a4,sp,820
    123a:	00d9                	addi	ra,ra,22
    123c:	0000                	unimp
    123e:	3d01                	addiw	s10,s10,-32
    1240:	0002df13          	srli	t5,t0,0x0
    1244:	0100                	addi	s0,sp,128
/home/one/xv6-labs-2020/user/umalloc.c:70
    1246:	1f59                	addi	t5,t5,-10
    1248:	00fd                	addi	ra,ra,31
    124a:	0000                	unimp
    124c:	3e01                	addiw	t3,t3,-32
    124e:	0002e513          	ori	a0,t0,0
/home/one/xv6-labs-2020/user/umalloc.c:74
    1252:	1200                	addi	s0,sp,288
/home/one/xv6-labs-2020/user/umalloc.c:75
    1254:	0012                	c.slli	zero,0x4
    1256:	1f00                	addi	s0,sp,944
    1258:	0000                	unimp
    125a:	0000                	unimp
    125c:	3f01                	addiw	t5,t5,-32
    125e:	0002eb13          	ori	s6,t0,0
    1262:	4800                	lw	s0,16(s0)
    1264:	0012                	c.slli	zero,0x4
    1266:	1f00                	addi	s0,sp,944
    1268:	01ff                	0x1ff
    126a:	0000                	unimp
morecore():
/home/one/xv6-labs-2020/user/umalloc.c:54
    126c:	4001                	c.li	zero,0
    126e:	0002f113          	andi	sp,t0,0
malloc():
/home/one/xv6-labs-2020/user/umalloc.c:86
    1272:	6b00                	ld	s0,16(a4)
    1274:	0012                	c.slli	zero,0x4
    1276:	1f00                	addi	s0,sp,944
morecore():
/home/one/xv6-labs-2020/user/umalloc.c:55
    1278:	0214                	addi	a3,sp,256
    127a:	0000                	unimp
malloc():
/home/one/xv6-labs-2020/user/umalloc.c:71
    127c:	4101                	li	sp,0
    127e:	f714                	sd	a3,40(a4)
    1280:	0002                	c.slli64	zero
    1282:	8e00                	0x8e00
    1284:	0012                	c.slli	zero,0x4
    1286:	1400                	addi	s0,sp,544
    1288:	00de                	slli	ra,ra,0x17
    128a:	0000                	unimp
    128c:	0000                	unimp
/home/one/xv6-labs-2020/user/umalloc.c:72
    128e:	0000                	unimp
    1290:	155f 0000 129e      	0x129e0000155f
/home/one/xv6-labs-2020/user/umalloc.c:76
    1296:	0000                	unimp
/home/one/xv6-labs-2020/user/umalloc.c:79
    1298:	0115                	addi	sp,sp,5
    129a:	015a                	slli	sp,sp,0x16
    129c:	0031                	c.nop	12
/home/one/xv6-labs-2020/user/umalloc.c:80
    129e:	ee14                	sd	a3,24(a2)
    12a0:	0000                	unimp
    12a2:	0000                	unimp
    12a4:	0000                	unimp
/home/one/xv6-labs-2020/user/umalloc.c:81
    12a6:	a000                	fsd	fs0,0(s0)
    12a8:	bd00000f          	0xbd00000f
/home/one/xv6-labs-2020/user/umalloc.c:83
    12ac:	0012                	c.slli	zero,0x4
    12ae:	1500                	addi	s0,sp,672
    12b0:	5a01                	li	s4,-32
/home/one/xv6-labs-2020/user/umalloc.c:84
    12b2:	0309                	addi	t1,t1,2
    12b4:	1350                	addi	a2,sp,420
/home/one/xv6-labs-2020/user/umalloc.c:90
    12b6:	0000                	unimp
    12b8:	0000                	unimp
    12ba:	0000                	unimp
    12bc:	1400                	addi	s0,sp,544
    12be:	00fe                	slli	ra,ra,0x1f
    12c0:	0000                	unimp
    12c2:	0000                	unimp
    12c4:	0000                	unimp
    12c6:	000015a7          	0x15a7
/home/one/xv6-labs-2020/user/umalloc.c:77
    12ca:	12d5                	addi	t0,t0,-11
    12cc:	0000                	unimp
    12ce:	0115                	addi	sp,sp,5
morecore():
/home/one/xv6-labs-2020/user/umalloc.c:58
    12d0:	0879025b          	0x879025b
/home/one/xv6-labs-2020/user/umalloc.c:59
    12d4:	1400                	addi	s0,sp,544
    12d6:	0112                	slli	sp,sp,0x4
    12d8:	0000                	unimp
    12da:	0000                	unimp
    12dc:	0000                	unimp
/home/one/xv6-labs-2020/user/umalloc.c:60
    12de:	00001523          	sh	zero,10(zero) # a <getcmd+0xa>
malloc():
/home/one/xv6-labs-2020/user/umalloc.c:74
    12e2:	12f9                	addi	t0,t0,-2
/home/one/xv6-labs-2020/user/umalloc.c:75
    12e4:	0000                	unimp
    12e6:	0115                	addi	sp,sp,5
    12e8:	015a                	slli	sp,sp,0x16
/home/one/xv6-labs-2020/user/umalloc.c:86
    12ea:	1532                	slli	a0,a0,0x2c
    12ec:	5b01                	li	s6,-32
    12ee:	0309                	addi	t1,t1,2
    12f0:	1358                	addi	a4,sp,420
morecore():
/home/one/xv6-labs-2020/user/umalloc.c:54
    12f2:	0000                	unimp
    12f4:	0000                	unimp
    12f6:	0000                	unimp
    12f8:	1400                	addi	s0,sp,544
    12fa:	011c                	addi	a5,sp,128
/home/one/xv6-labs-2020/user/umalloc.c:55
    12fc:	0000                	unimp
    12fe:	0000                	unimp
malloc():
/home/one/xv6-labs-2020/user/umalloc.c:88
    1300:	0000                	unimp
    1302:	155f 0000 1310      	0x13100000155f
    1308:	0000                	unimp
    130a:	0115                	addi	sp,sp,5
    130c:	015a                	slli	sp,sp,0x16
    130e:	0030                	addi	a2,sp,8
    1310:	2614                	fld	fa3,8(a2)
    1312:	0001                	nop
    1314:	0000                	unimp
    1316:	0000                	unimp
    1318:	5f00                	lw	s0,56(a4)
    131a:	0015                	c.nop	5
    131c:	2700                	fld	fs0,8(a4)
    131e:	15000013          	li	zero,336
    1322:	5a01                	li	s4,-32
    1324:	3101                	addiw	sp,sp,-32
    1326:	1200                	addi	s0,sp,288
    1328:	0130                	addi	a2,sp,136
    132a:	0000                	unimp
    132c:	0000                	unimp
    132e:	0000                	unimp
    1330:	00001577          	0x1577
    1334:	3c12                	fld	fs8,288(sp)
    1336:	0001                	nop
    1338:	0000                	unimp
    133a:	0000                	unimp
    133c:	6b00                	ld	s0,16(a4)
    133e:	0015                	c.nop	5
    1340:	1200                	addi	s0,sp,288
    1342:	014a                	slli	sp,sp,0x12
    1344:	0000                	unimp
    1346:	0000                	unimp
    1348:	0000                	unimp
    134a:	11fe                	slli	gp,gp,0x3f
    134c:	0000                	unimp
    134e:	5e14                	lw	a3,56(a2)
    1350:	0001                	nop
    1352:	0000                	unimp
    1354:	0000                	unimp
    1356:	2300                	fld	fs0,0(a4)
    1358:	0015                	c.nop	5
    135a:	7200                	ld	s0,32(a2)
    135c:	15000013          	li	zero,336
    1360:	5a01                	li	s4,-32
    1362:	3201                	addiw	tp,tp,-32
    1364:	0115                	addi	sp,sp,5
    1366:	6803095b          	0x6803095b
    136a:	00000013          	nop
    136e:	0000                	unimp
    1370:	0000                	unimp
    1372:	6814                	ld	a3,16(s0)
    1374:	0001                	nop
    1376:	0000                	unimp
    1378:	0000                	unimp
    137a:	5f00                	lw	s0,56(a4)
    137c:	0015                	c.nop	5
    137e:	8900                	0x8900
    1380:	15000013          	li	zero,336
    1384:	5a01                	li	s4,-32
    1386:	3101                	addiw	sp,sp,-32
    1388:	1200                	addi	s0,sp,288
    138a:	0170                	addi	a2,sp,140
    138c:	0000                	unimp
    138e:	0000                	unimp
    1390:	0000                	unimp
    1392:	0f45                	addi	t5,t5,17
    1394:	0000                	unimp
    1396:	7c14                	ld	a3,56(s0)
    1398:	0001                	nop
    139a:	0000                	unimp
    139c:	0000                	unimp
    139e:	8300                	0x8300
    13a0:	0015                	c.nop	5
    13a2:	ad00                	fsd	fs0,24(a0)
    13a4:	15000013          	li	zero,336
    13a8:	5a01                	li	s4,-32
    13aa:	3001                	0x3001
    13ac:	1200                	addi	s0,sp,288
    13ae:	0186                	slli	gp,gp,0x1
    13b0:	0000                	unimp
    13b2:	0000                	unimp
    13b4:	0000                	unimp
    13b6:	11fe                	slli	gp,gp,0x3f
    13b8:	0000                	unimp
    13ba:	9012                	c.add	zero,tp
    13bc:	0001                	nop
    13be:	0000                	unimp
    13c0:	0000                	unimp
    13c2:	fe00                	sd	s0,56(a2)
    13c4:	0011                	c.nop	4
    13c6:	1400                	addi	s0,sp,544
    13c8:	019c                	addi	a5,sp,192
    13ca:	0000                	unimp
    13cc:	0000                	unimp
    13ce:	0000                	unimp
    13d0:	000015b3          	sll	a1,zero,zero
    13d4:	13df 0000 0115      	0x115000013df
    13da:	025a                	slli	tp,tp,0x16
    13dc:	5878                	lw	a4,116(s0)
    13de:	1200                	addi	s0,sp,288
    13e0:	01a8                	addi	a0,sp,200
    13e2:	0000                	unimp
    13e4:	0000                	unimp
    13e6:	0000                	unimp
    13e8:	0f45                	addi	t5,t5,17
    13ea:	0000                	unimp
    13ec:	b212                	fsd	ft4,288(sp)
    13ee:	0001                	nop
    13f0:	0000                	unimp
    13f2:	0000                	unimp
    13f4:	4500                	lw	s0,8(a0)
    13f6:	1200000f          	0x1200000f
    13fa:	01c0                	addi	s0,sp,196
    13fc:	0000                	unimp
    13fe:	0000                	unimp
    1400:	0000                	unimp
    1402:	00001577          	0x1577
    1406:	cc12                	sw	tp,24(sp)
    1408:	0001                	nop
    140a:	0000                	unimp
    140c:	0000                	unimp
    140e:	7700                	ld	s0,40(a4)
    1410:	0015                	c.nop	5
    1412:	1400                	addi	s0,sp,544
    1414:	01d6                	slli	gp,gp,0x15
    1416:	0000                	unimp
    1418:	0000                	unimp
    141a:	0000                	unimp
    141c:	00001583          	lh	a1,0(zero) # 0 <getcmd>
    1420:	142a                	slli	s0,s0,0x2a
    1422:	0000                	unimp
    1424:	0115                	addi	sp,sp,5
    1426:	015a                	slli	sp,sp,0x16
    1428:	0030                	addi	a2,sp,8
    142a:	e014                	sd	a3,0(s0)
    142c:	0001                	nop
    142e:	0000                	unimp
    1430:	0000                	unimp
    1432:	8300                	0x8300
    1434:	0015                	c.nop	5
    1436:	4100                	lw	s0,0(a0)
    1438:	0014                	0x14
    143a:	1500                	addi	s0,sp,672
    143c:	5a01                	li	s4,-32
    143e:	3001                	0x3001
    1440:	1400                	addi	s0,sp,544
    1442:	01f2                	slli	gp,gp,0x1c
    1444:	0000                	unimp
    1446:	0000                	unimp
    1448:	0000                	unimp
    144a:	0fa0                	addi	s0,sp,984
    144c:	0000                	unimp
    144e:	1460                	addi	s0,sp,556
    1450:	0000                	unimp
    1452:	0115                	addi	sp,sp,5
    1454:	095a                	slli	s2,s2,0x16
    1456:	00137803          	0x137803
    145a:	0000                	unimp
    145c:	0000                	unimp
    145e:	0000                	unimp
    1460:	fc14                	sd	a3,56(s0)
    1462:	0001                	nop
    1464:	0000                	unimp
    1466:	0000                	unimp
    1468:	7700                	ld	s0,40(a4)
    146a:	0015                	c.nop	5
    146c:	7700                	ld	s0,40(a4)
    146e:	0014                	0x14
    1470:	1500                	addi	s0,sp,672
    1472:	5a01                	li	s4,-32
    1474:	3101                	addiw	sp,sp,-32
    1476:	1200                	addi	s0,sp,288
    1478:	0208                	addi	a0,sp,256
    147a:	0000                	unimp
    147c:	0000                	unimp
    147e:	0000                	unimp
    1480:	000015bf 00021412 	0x21412000015bf
    1488:	0000                	unimp
    148a:	0000                	unimp
    148c:	7700                	ld	s0,40(a4)
    148e:	0015                	c.nop	5
    1490:	1200                	addi	s0,sp,288
    1492:	0220                	addi	s0,sp,264
    1494:	0000                	unimp
    1496:	0000                	unimp
    1498:	0000                	unimp
    149a:	00001577          	0x1577
    149e:	2a12                	fld	fs4,256(sp)
    14a0:	0002                	c.slli64	zero
    14a2:	0000                	unimp
    14a4:	0000                	unimp
    14a6:	fe00                	sd	s0,56(a2)
    14a8:	0011                	c.nop	4
    14aa:	1200                	addi	s0,sp,288
    14ac:	0232                	slli	tp,tp,0xc
    14ae:	0000                	unimp
    14b0:	0000                	unimp
    14b2:	0000                	unimp
    14b4:	00001577          	0x1577
    14b8:	3e12                	fld	ft8,288(sp)
    14ba:	0002                	c.slli64	zero
    14bc:	0000                	unimp
    14be:	0000                	unimp
    14c0:	bf00                	fsd	fs0,56(a4)
    14c2:	0015                	c.nop	5
    14c4:	1200                	addi	s0,sp,288
    14c6:	024a                	slli	tp,tp,0x12
    14c8:	0000                	unimp
    14ca:	0000                	unimp
    14cc:	0000                	unimp
    14ce:	00001577          	0x1577
    14d2:	5612                	lw	a2,36(sp)
    14d4:	0002                	c.slli64	zero
    14d6:	0000                	unimp
    14d8:	0000                	unimp
    14da:	7700                	ld	s0,40(a4)
    14dc:	0015                	c.nop	5
    14de:	1200                	addi	s0,sp,288
    14e0:	0260                	addi	s0,sp,268
    14e2:	0000                	unimp
    14e4:	0000                	unimp
    14e6:	0000                	unimp
    14e8:	11fe                	slli	gp,gp,0x3f
    14ea:	0000                	unimp
    14ec:	6812                	ld	a6,256(sp)
    14ee:	0002                	c.slli64	zero
    14f0:	0000                	unimp
    14f2:	0000                	unimp
    14f4:	4500                	lw	s0,8(a0)
    14f6:	1200000f          	0x1200000f
    14fa:	0276                	slli	tp,tp,0x1d
    14fc:	0000                	unimp
    14fe:	0000                	unimp
    1500:	0000                	unimp
    1502:	11fe                	slli	gp,gp,0x3f
    1504:	0000                	unimp
    1506:	0700                	addi	s0,sp,896
    1508:	0064                	addi	s1,sp,12
    150a:	0000                	unimp
    150c:	00001517          	auipc	a0,0x1
    1510:	4208                	lw	a0,0(a2)
    1512:	0000                	unimp
    1514:	0100                	addi	s0,sp,128
    1516:	2000                	fld	fs0,0(s0)
    1518:	0062                	c.slli	zero,0x18
    151a:	0000                	unimp
    151c:	0062                	c.slli	zero,0x18
    151e:	0000                	unimp
    1520:	2402                	fld	fs0,0(sp)
    1522:	2006                	fld	ft0,64(sp)
    1524:	00000127          	0x127
    1528:	00000127          	0x127
    152c:	2102                	fld	ft2,0(sp)
    152e:	2006                	fld	ft0,64(sp)
    1530:	004d                	c.nop	19
    1532:	0000                	unimp
    1534:	004d                	c.nop	19
    1536:	0000                	unimp
    1538:	1f02                	slli	t5,t5,0x20
    153a:	02232007          	flw	ft0,34(t1) # ffffffffffff9022 <__global_pointer$+0xffffffffffff73ba>
    153e:	0000                	unimp
    1540:	00000223          	sb	zero,4(zero) # 4 <getcmd+0x4>
    1544:	2602                	fld	fa2,0(sp)
    1546:	00e82007          	flw	ft0,14(a6) # fffffffffffe000e <__global_pointer$+0xfffffffffffde3a6>
    154a:	0000                	unimp
    154c:	00e8                	addi	a0,sp,76
    154e:	0000                	unimp
    1550:	2502                	fld	fa0,0(sp)
    1552:	008e2007          	flw	ft0,8(t3)
    1556:	0000                	unimp
    1558:	008e                	slli	ra,ra,0x3
    155a:	0000                	unimp
    155c:	0502                	c.slli64	a0
    155e:	2005                	0x2005
    1560:	014c                	addi	a1,sp,132
    1562:	0000                	unimp
    1564:	014c                	addi	a1,sp,132
    1566:	0000                	unimp
    1568:	0602                	c.slli64	a2
    156a:	2005                	0x2005
    156c:	00a5                	addi	ra,ra,9
    156e:	0000                	unimp
    1570:	00a5                	addi	ra,ra,9
    1572:	0000                	unimp
    1574:	0e02                	c.slli64	t3
    1576:	2005                	0x2005
    1578:	005c                	addi	a5,sp,4
    157a:	0000                	unimp
    157c:	005c                	addi	a5,sp,4
    157e:	0000                	unimp
    1580:	0b02                	c.slli64	s6
    1582:	2005                	0x2005
    1584:	000000ef          	jal	ra,1584 <__BSS_END__+0x8c>
    1588:	000000ef          	jal	ra,1588 <__BSS_END__+0x90>
    158c:	0702                	c.slli64	a4
    158e:	2005                	0x2005
    1590:	0034                	addi	a3,sp,8
    1592:	0000                	unimp
    1594:	0034                	addi	a3,sp,8
    1596:	0000                	unimp
    1598:	1402                	slli	s0,s0,0x20
    159a:	2005                	0x2005
    159c:	00de                	slli	ra,ra,0x17
    159e:	0000                	unimp
    15a0:	00de                	slli	ra,ra,0x17
    15a2:	0000                	unimp
    15a4:	2302                	fld	ft6,0(sp)
    15a6:	021e2007          	flw	ft0,33(t3)
    15aa:	0000                	unimp
    15ac:	021e                	slli	tp,tp,0x7
    15ae:	0000                	unimp
    15b0:	0d02                	c.slli64	s10
    15b2:	2005                	0x2005
    15b4:	000000c7          	fmsub.s	ft1,ft0,ft0,ft0,rne
    15b8:	000000c7          	fmsub.s	ft1,ft0,ft0,ft0,rne
    15bc:	0802                	c.slli64	a6
    15be:	2105                	addiw	sp,sp,1
    15c0:	7564                	ld	s1,232(a0)
    15c2:	0070                	addi	a2,sp,12
    15c4:	7564                	ld	s1,232(a0)
    15c6:	0070                	addi	a2,sp,12
    15c8:	1502                	slli	a0,a0,0x20
    15ca:	0005                	c.nop	1
    15cc:	0548                	addi	a0,sp,644
    15ce:	0000                	unimp
    15d0:	0004                	0x4
    15d2:	0224                	addi	s1,sp,264
    15d4:	0000                	unimp
    15d6:	0108                	addi	a0,sp,128
    15d8:	015e                	slli	sp,sp,0x17
    15da:	0000                	unimp
    15dc:	7d0c                	ld	a1,56(a0)
    15de:	0002                	c.slli64	zero
    15e0:	2f00                	fld	fs0,24(a4)
    15e2:	0001                	nop
    15e4:	5800                	lw	s0,48(s0)
    15e6:	0000000b          	0xb
    15ea:	0000                	unimp
    15ec:	8800                	0x8800
    15ee:	0002                	c.slli64	zero
    15f0:	0000                	unimp
    15f2:	0000                	unimp
    15f4:	9900                	0x9900
    15f6:	000e                	c.slli	zero,0x3
    15f8:	0200                	addi	s0,sp,256
    15fa:	026e                	slli	tp,tp,0x1b
    15fc:	0000                	unimp
    15fe:	0102                	c.slli64	sp
    1600:	3918                	fld	fa4,48(a0)
    1602:	0000                	unimp
    1604:	0300                	addi	s0,sp,384
    1606:	0704                	addi	s1,sp,896
    1608:	0098                	addi	a4,sp,64
    160a:	0000                	unimp
    160c:	aa070203          	lb	tp,-1376(a4) # 1160e <__global_pointer$+0xf9a6>
    1610:	0000                	unimp
    1612:	0200                	addi	s0,sp,256
    1614:	0256                	slli	tp,tp,0x15
    1616:	0000                	unimp
    1618:	0302                	c.slli64	t1
    161a:	5318                	lw	a4,32(a4)
    161c:	0000                	unimp
    161e:	0300                	addi	s0,sp,384
    1620:	0801                	addi	a6,a6,0
    1622:	0000007b          	0x7b
    1626:	4302                	lw	t1,0(sp)
    1628:	0002                	c.slli64	zero
    162a:	0200                	addi	s0,sp,256
    162c:	1708                	addi	a0,sp,928
    162e:	0066                	c.slli	zero,0x19
    1630:	0000                	unimp
    1632:	93070803          	lb	a6,-1744(a4)
    1636:	0000                	unimp
    1638:	0400                	addi	s0,sp,512
    163a:	0264                	addi	s1,sp,268
    163c:	0000                	unimp
    163e:	0318                	addi	a4,sp,384
    1640:	0805                	addi	a6,a6,1
    1642:	00bc                	addi	a5,sp,72
    1644:	0000                	unimp
    1646:	6405                	lui	s0,0x1
    1648:	7665                	lui	a2,0xffff9
    164a:	0300                	addi	s0,sp,384
    164c:	0706                	slli	a4,a4,0x1
    164e:	00bc                	addi	a5,sp,72
    1650:	0000                	unimp
    1652:	0500                	addi	s0,sp,640
    1654:	6e69                	lui	t3,0x1a
    1656:	0703006f          	j	316c6 <__global_pointer$+0x2fa5e>
    165a:	2d08                	fld	fa0,24(a0)
    165c:	0000                	unimp
    165e:	0400                	addi	s0,sp,512
    1660:	4706                	lw	a4,64(sp)
    1662:	0001                	nop
    1664:	0300                	addi	s0,sp,384
    1666:	0908                	addi	a0,sp,144
    1668:	000000c3          	fmadd.s	ft1,ft0,ft0,ft0,rne
    166c:	0608                	addi	a0,sp,768
    166e:	029f 0000 0903      	0x9030000029f
    1674:	c309                	beqz	a4,1676 <__BSS_END__+0x17e>
    1676:	0000                	unimp
    1678:	0a00                	addi	s0,sp,272
    167a:	a506                	fsd	ft1,136(sp)
    167c:	0002                	c.slli64	zero
    167e:	0300                	addi	s0,sp,384
    1680:	0a0a                	slli	s4,s4,0x2
    1682:	005a                	c.slli	zero,0x16
    1684:	0000                	unimp
    1686:	0010                	0x10
    1688:	69050407          	0x69050407
    168c:	746e                	ld	s0,248(sp)
    168e:	0300                	addi	s0,sp,384
    1690:	0502                	c.slli64	a0
    1692:	0295                	addi	t0,t0,5
    1694:	0000                	unimp
    1696:	8e08                	0x8e08
    1698:	0002                	c.slli64	zero
    169a:	0100                	addi	s0,sp,128
    169c:	0185                	addi	gp,gp,1
    169e:	00000137          	lui	sp,0x0
    16a2:	0dc8                	addi	a0,sp,724
    16a4:	0000                	unimp
    16a6:	0000                	unimp
    16a8:	0000                	unimp
    16aa:	0018                	0x18
    16ac:	0000                	unimp
    16ae:	0000                	unimp
    16b0:	0000                	unimp
    16b2:	9c01                	subw	s0,s0,s0
    16b4:	00000137          	lui	sp,0x0
    16b8:	6409                	lui	s0,0x2
    16ba:	01007473          	csrrci	s0,0x10,0
    16be:	0e85                	addi	t4,t4,1
    16c0:	00000137          	lui	sp,0x0
    16c4:	12b1                	addi	t0,t0,-20
    16c6:	0000                	unimp
    16c8:	7309                	lui	t1,0xfffe2
    16ca:	6372                	ld	t1,280(sp)
    16cc:	0100                	addi	s0,sp,128
    16ce:	1f85                	addi	t6,t6,-31
    16d0:	0139                	addi	sp,sp,14
    16d2:	0000                	unimp
    16d4:	12ea                	slli	t0,t0,0x3a
    16d6:	0000                	unimp
    16d8:	6e09                	lui	t3,0x2
    16da:	0100                	addi	s0,sp,128
    16dc:	2985                	addiw	s3,s3,1
    16de:	002d                	c.nop	11
    16e0:	0000                	unimp
    16e2:	00001323          	sh	zero,6(zero) # 6 <getcmd+0x6>
    16e6:	d80a                	sw	sp,48(sp)
    16e8:	000d                	c.nop	3
    16ea:	0000                	unimp
    16ec:	0000                	unimp
    16ee:	bd00                	fsd	fs0,56(a0)
    16f0:	0001                	nop
    16f2:	0b00                	addi	s0,sp,400
    16f4:	5a01                	li	s4,-32
    16f6:	5a01f303          	0x5a01f303
    16fa:	035b010b          	0x35b010b
    16fe:	005b01f3          	0x5b01f3
    1702:	0c00                	addi	s0,sp,528
    1704:	0d08                	addi	a0,sp,656
    1706:	3f08                	fld	fa0,56(a4)
    1708:	0001                	nop
    170a:	0e00                	addi	s0,sp,784
    170c:	3c08                	fld	fa0,56(s0)
    170e:	0002                	c.slli64	zero
    1710:	0100                	addi	s0,sp,128
    1712:	00bc0177          	0xbc0177
    1716:	0000                	unimp
    1718:	0d82                	c.slli64	s11
    171a:	0000                	unimp
    171c:	0000                	unimp
    171e:	0000                	unimp
    1720:	0046                	c.slli	zero,0x11
    1722:	0000                	unimp
    1724:	0000                	unimp
    1726:	0000                	unimp
    1728:	9c01                	subw	s0,s0,s0
    172a:	000001ab          	0x1ab
    172e:	7309                	lui	t1,0xfffe2
    1730:	0031                	c.nop	12
    1732:	7701                	lui	a4,0xfffe0
    1734:	3914                	fld	fa3,48(a0)
    1736:	0001                	nop
    1738:	5c00                	lw	s0,56(s0)
    173a:	09000013          	li	zero,144
    173e:	01003273          	csrrc	tp,0x10,zero
    1742:	01392477          	0x1392477
    1746:	0000                	unimp
    1748:	13be                	slli	t2,t2,0x2f
    174a:	0000                	unimp
    174c:	6e09                	lui	t3,0x2
    174e:	0100                	addi	s0,sp,128
    1750:	002d2d77          	0x2d2d77
    1754:	0000                	unimp
    1756:	140a                	slli	s0,s0,0x22
    1758:	0000                	unimp
    175a:	0031700f          	0x31700f
    175e:	7901                	lui	s2,0xfffe0
    1760:	0001ab0f          	0x1ab0f
    1764:	7f00                	ld	s0,56(a4)
    1766:	0014                	0x14
    1768:	1000                	addi	s0,sp,32
    176a:	3270                	fld	fa2,224(a2)
    176c:	0100                	addi	s0,sp,128
    176e:	1979                	addi	s2,s2,-2
    1770:	000001ab          	0x1ab
    1774:	5b01                	li	s6,-32
    1776:	0d00                	addi	s0,sp,656
    1778:	b808                	fsd	fa0,48(s0)
    177a:	0001                	nop
    177c:	0300                	addi	s0,sp,384
    177e:	0801                	addi	a6,a6,0
    1780:	0084                	addi	s1,sp,64
    1782:	0000                	unimp
    1784:	b111                	j	1388 <malloc+0x16a>
    1786:	0001                	nop
    1788:	0800                	addi	s0,sp,16
    178a:	0234                	addi	a3,sp,264
    178c:	0000                	unimp
    178e:	6301                	0x6301
    1790:	3701                	addiw	a4,a4,-32
    1792:	0001                	nop
    1794:	2600                	fld	fs0,8(a2)
    1796:	000d                	c.nop	3
    1798:	0000                	unimp
    179a:	0000                	unimp
    179c:	5c00                	lw	s0,56(s0)
    179e:	0000                	unimp
    17a0:	0000                	unimp
    17a2:	0000                	unimp
    17a4:	0100                	addi	s0,sp,128
    17a6:	2a9c                	fld	fa5,16(a3)
    17a8:	0002                	c.slli64	zero
    17aa:	1200                	addi	s0,sp,288
    17ac:	00000273          	0x273
    17b0:	6301                	0x6301
    17b2:	0001370f          	0x1370f
    17b6:	0100                	addi	s0,sp,128
    17b8:	135a                	slli	t1,t1,0x36
    17ba:	024a                	slli	tp,tp,0x12
    17bc:	0000                	unimp
    17be:	6301                	0x6301
    17c0:	3921                	addiw	s2,s2,-24
    17c2:	0001                	nop
    17c4:	de00                	sw	s0,56(a2)
    17c6:	0014                	0x14
    17c8:	0900                	addi	s0,sp,144
    17ca:	006e                	c.slli	zero,0x1b
    17cc:	6301                	0x6301
    17ce:	0000bc2b          	0xbc2b
    17d2:	4000                	lw	s0,0(s0)
    17d4:	0015                	c.nop	5
    17d6:	0f00                	addi	s0,sp,912
    17d8:	7364                	ld	s1,224(a4)
    17da:	0074                	addi	a3,sp,12
    17dc:	6501                	0x6501
    17de:	2a09                	addiw	s4,s4,2
    17e0:	0002                	c.slli64	zero
    17e2:	a000                	fsd	fs0,0(s0)
    17e4:	0015                	c.nop	5
    17e6:	1000                	addi	s0,sp,32
    17e8:	00637273          	csrrci	tp,0x6,6
    17ec:	6601                	0x6601
    17ee:	0001ab0f          	0x1ab0f
    17f2:	0100                	addi	s0,sp,128
    17f4:	080d005b          	0x80d005b
    17f8:	01b1                	addi	gp,gp,12
    17fa:	0000                	unimp
    17fc:	7808                	ld	a0,48(s0)
    17fe:	0002                	c.slli64	zero
    1800:	0100                	addi	s0,sp,128
    1802:	0158                	addi	a4,sp,132
    1804:	00bc                	addi	a5,sp,72
    1806:	0000                	unimp
    1808:	0cdc                	addi	a5,sp,596
    180a:	0000                	unimp
    180c:	0000                	unimp
    180e:	0000                	unimp
    1810:	004a                	c.slli	zero,0x12
    1812:	0000                	unimp
    1814:	0000                	unimp
    1816:	0000                	unimp
    1818:	9c01                	subw	s0,s0,s0
    181a:	0000026f          	jal	tp,181a <__BSS_END__+0x322>
    181e:	7309                	lui	t1,0xfffe2
    1820:	0100                	addi	s0,sp,128
    1822:	1258                	addi	a4,sp,292
    1824:	000001ab          	0x1ab
    1828:	15fc                	addi	a5,sp,748
    182a:	0000                	unimp
    182c:	01006e0f          	0x1006e0f
    1830:	075a                	slli	a4,a4,0x16
    1832:	00bc                	addi	a5,sp,72
    1834:	0000                	unimp
    1836:	0000165b          	0x165b
    183a:	0800                	addi	s0,sp,16
    183c:	0264                	addi	s1,sp,268
    183e:	0000                	unimp
    1840:	4a01                	li	s4,0
    1842:	bc01                	j	1252 <malloc+0x34>
    1844:	0000                	unimp
    1846:	9600                	0x9600
    1848:	000c                	0xc
    184a:	0000                	unimp
    184c:	0000                	unimp
    184e:	4600                	lw	s0,8(a2)
    1850:	0000                	unimp
    1852:	0000                	unimp
    1854:	0000                	unimp
    1856:	0100                	addi	s0,sp,128
    1858:	1c9c                	addi	a5,sp,624
    185a:	09000003          	lb	zero,144(zero) # 90 <fork1+0x16>
    185e:	006e                	c.slli	zero,0x1b
    1860:	4a01                	li	s4,0
    1862:	ab12                	fsd	ft4,400(sp)
    1864:	0001                	nop
    1866:	bb00                	fsd	fs0,48(a4)
    1868:	0016                	c.slli	zero,0x5
    186a:	0900                	addi	s0,sp,144
    186c:	01007473          	csrrci	s0,0x10,0
    1870:	224a                	fld	ft4,144(sp)
    1872:	031c                	addi	a5,sp,384
    1874:	0000                	unimp
    1876:	16f4                	addi	a3,sp,876
    1878:	0000                	unimp
    187a:	0064660f          	0x64660f
    187e:	4c01                	li	s8,0
    1880:	0000bc07          	fld	fs8,0(ra)
    1884:	6900                	ld	s0,16(a0)
    1886:	0f000017          	auipc	zero,0xf000
    188a:	0072                	c.slli	zero,0x1c
    188c:	4d01                	li	s10,0
    188e:	0000bc07          	fld	fs8,0(ra)
    1892:	9f00                	0x9f00
    1894:	14000017          	auipc	zero,0x14000
    1898:	0cae                	slli	s9,s9,0xb
    189a:	0000                	unimp
    189c:	0000                	unimp
    189e:	0000                	unimp
    18a0:	0000051b          	sext.w	a0,zero
    18a4:	02e9                	addi	t0,t0,26
    18a6:	0000                	unimp
    18a8:	035a010b          	0x35a010b
    18ac:	0b5a01f3          	0xb5a01f3
    18b0:	5b01                	li	s6,-32
    18b2:	3001                	0x3001
    18b4:	1400                	addi	s0,sp,544
    18b6:	0cbe                	slli	s9,s9,0xf
    18b8:	0000                	unimp
    18ba:	0000                	unimp
    18bc:	0000                	unimp
    18be:	00000527          	0x527
    18c2:	00000307          	0x307
    18c6:	025a010b          	0x25a010b
    18ca:	0079                	c.nop	30
    18cc:	025b010b          	0x25b010b
    18d0:	0082                	c.slli64	ra
    18d2:	0a00                	addi	s0,sp,272
    18d4:	0cca                	slli	s9,s9,0x12
    18d6:	0000                	unimp
    18d8:	0000                	unimp
    18da:	0000                	unimp
    18dc:	00000533          	add	a0,zero,zero
    18e0:	025a010b          	0x25a010b
    18e4:	0079                	c.nop	30
    18e6:	0000                	unimp
    18e8:	080d                	addi	a6,a6,3
    18ea:	006d                	c.nop	27
    18ec:	0000                	unimp
    18ee:	de08                	sw	a0,56(a2)
    18f0:	0000                	unimp
    18f2:	0100                	addi	s0,sp,128
    18f4:	0138                	addi	a4,sp,136
    18f6:	022a                	slli	tp,tp,0xa
    18f8:	0000                	unimp
    18fa:	0c22                	slli	s8,s8,0x8
    18fc:	0000                	unimp
    18fe:	0000                	unimp
    1900:	0000                	unimp
    1902:	0074                	addi	a3,sp,12
    1904:	0000                	unimp
    1906:	0000                	unimp
    1908:	0000                	unimp
    190a:	9c01                	subw	s0,s0,s0
    190c:	000003af          	0x3af
    1910:	6209                	lui	tp,0x2
    1912:	6675                	lui	a2,0x1d
    1914:	0100                	addi	s0,sp,128
    1916:	0c38                	addi	a4,sp,536
    1918:	022a                	slli	tp,tp,0xa
    191a:	0000                	unimp
    191c:	17c2                	slli	a5,a5,0x30
    191e:	0000                	unimp
    1920:	6d09                	lui	s10,0x2
    1922:	7861                	lui	a6,0xffff8
    1924:	0100                	addi	s0,sp,128
    1926:	1538                	addi	a4,sp,680
    1928:	00bc                	addi	a5,sp,72
    192a:	0000                	unimp
    192c:	0000180b          	0x180b
    1930:	0100690f          	0x100690f
    1934:	073a                	slli	a4,a4,0xe
    1936:	00bc                	addi	a5,sp,72
    1938:	0000                	unimp
    193a:	1844                	addi	s1,sp,52
    193c:	0000                	unimp
    193e:	0063630f          	0x63630f
    1942:	3a01                	addiw	s4,s4,-32
    1944:	bc0a                	fsd	ft2,56(sp)
    1946:	0000                	unimp
    1948:	b800                	fsd	fs0,48(s0)
    194a:	0018                	0x18
    194c:	1000                	addi	s0,sp,32
    194e:	3b010063          	beq	sp,a6,1cee <__global_pointer$+0x86>
    1952:	b108                	fsd	fa0,32(a0)
    1954:	0001                	nop
    1956:	0300                	addi	s0,sp,384
    1958:	af91                	j	20ac <__global_pointer$+0x444>
    195a:	0a7f                	0xa7f
    195c:	0c5c                	addi	a5,sp,532
    195e:	0000                	unimp
    1960:	0000                	unimp
    1962:	0000                	unimp
    1964:	0000053f 015a010b 	0x15a010b0000053f
    196c:	0b30                	addi	a2,sp,408
    196e:	5b01                	li	s6,-32
    1970:	7faf7803          	0x7faf7803
    1974:	015c010b          	0x15c010b
    1978:	0031                	c.nop	12
    197a:	0800                	addi	s0,sp,16
    197c:	004d                	c.nop	19
    197e:	0000                	unimp
    1980:	2f01                	sext.w	t5,t5
    1982:	2a01                	sext.w	s4,s4
    1984:	0002                	c.slli64	zero
    1986:	f800                	sd	s0,48(s0)
    1988:	0000000b          	0xb
    198c:	0000                	unimp
    198e:	2a00                	fld	fs0,16(a2)
    1990:	0000                	unimp
    1992:	0000                	unimp
    1994:	0000                	unimp
    1996:	0100                	addi	s0,sp,128
    1998:	ec9c                	sd	a5,24(s1)
    199a:	09000003          	lb	zero,144(zero) # 90 <fork1+0x16>
    199e:	2f010073          	0x2f010073
    19a2:	ab14                	fsd	fa3,16(a4)
    19a4:	0001                	nop
    19a6:	db00                	sw	s0,48(a4)
    19a8:	0018                	0x18
    19aa:	1500                	addi	s0,sp,672
    19ac:	2f010063          	beq	sp,a6,1c8c <__global_pointer$+0x24>
    19b0:	b11c                	fsd	fa5,32(a0)
    19b2:	0001                	nop
    19b4:	0100                	addi	s0,sp,128
    19b6:	e808005b          	0xe808005b
    19ba:	0000                	unimp
    19bc:	0100                	addi	s0,sp,128
    19be:	0124                	addi	s1,sp,136
    19c0:	00000137          	lui	sp,0x0
    19c4:	0bd2                	slli	s7,s7,0x14
    19c6:	0000                	unimp
    19c8:	0000                	unimp
    19ca:	0000                	unimp
    19cc:	0026                	c.slli	zero,0x9
    19ce:	0000                	unimp
    19d0:	0000                	unimp
    19d2:	0000                	unimp
    19d4:	9c01                	subw	s0,s0,s0
    19d6:	0451                	addi	s0,s0,20
    19d8:	0000                	unimp
    19da:	6415                	lui	s0,0x5
    19dc:	01007473          	csrrci	s0,0x10,0
    19e0:	0e24                	addi	s1,sp,792
    19e2:	00000137          	lui	sp,0x0
    19e6:	5a01                	li	s4,-32
    19e8:	6315                	lui	t1,0x5
    19ea:	0100                	addi	s0,sp,128
    19ec:	1724                	addi	s1,sp,936
    19ee:	00bc                	addi	a5,sp,72
    19f0:	0000                	unimp
    19f2:	5b01                	li	s6,-32
    19f4:	6e15                	lui	t3,0x5
    19f6:	0100                	addi	s0,sp,128
    19f8:	1f24                	addi	s1,sp,952
    19fa:	002d                	c.nop	11
    19fc:	0000                	unimp
    19fe:	5c01                	li	s8,-32
    1a00:	8916                	mv	s2,t0
    1a02:	0002                	c.slli64	zero
    1a04:	0100                	addi	s0,sp,128
    1a06:	0926                	slli	s2,s2,0x9
    1a08:	022a                	slli	tp,tp,0xa
    1a0a:	0000                	unimp
    1a0c:	5a01                	li	s4,-32
    1a0e:	0100690f          	0x100690f
    1a12:	00bc0727          	0xbc0727
    1a16:	0000                	unimp
    1a18:	193a                	slli	s2,s2,0x2e
    1a1a:	0000                	unimp
    1a1c:	0800                	addi	s0,sp,16
    1a1e:	0062                	c.slli	zero,0x18
    1a20:	0000                	unimp
    1a22:	1a01                	addi	s4,s4,-32
    1a24:	2d01                	sext.w	s10,s10
    1a26:	0000                	unimp
    1a28:	a800                	fsd	fs0,16(s0)
    1a2a:	0000000b          	0xb
    1a2e:	0000                	unimp
    1a30:	2a00                	fld	fs0,16(a2)
    1a32:	0000                	unimp
    1a34:	0000                	unimp
    1a36:	0000                	unimp
    1a38:	0100                	addi	s0,sp,128
    1a3a:	909c                	0x909c
    1a3c:	0004                	0x4
    1a3e:	0900                	addi	s0,sp,144
    1a40:	1a010073          	0x1a010073
    1a44:	ab14                	fsd	fa3,16(a4)
    1a46:	0001                	nop
    1a48:	9000                	0x9000
    1a4a:	0019                	c.nop	6
    1a4c:	0f00                	addi	s0,sp,912
    1a4e:	006e                	c.slli	zero,0x1b
    1a50:	1c01                	addi	s8,s8,-32
    1a52:	0000bc07          	fld	fs8,0(ra)
    1a56:	0700                	addi	s0,sp,896
    1a58:	001a                	c.slli	zero,0x6
    1a5a:	0000                	unimp
    1a5c:	5c08                	lw	a0,56(s0)
    1a5e:	0002                	c.slli64	zero
    1a60:	0100                	addi	s0,sp,128
    1a62:	0112                	slli	sp,sp,0x4
    1a64:	00bc                	addi	a5,sp,72
    1a66:	0000                	unimp
    1a68:	0b74                	addi	a3,sp,412
    1a6a:	0000                	unimp
    1a6c:	0000                	unimp
    1a6e:	0000                	unimp
    1a70:	0034                	addi	a3,sp,8
    1a72:	0000                	unimp
    1a74:	0000                	unimp
    1a76:	0000                	unimp
    1a78:	9c01                	subw	s0,s0,s0
    1a7a:	000004cf          	fnmadd.s	fs1,ft0,ft0,ft0,rne
    1a7e:	7009                	c.lui	zero,0xfffe2
    1a80:	0100                	addi	s0,sp,128
    1a82:	1412                	slli	s0,s0,0x24
    1a84:	000001ab          	0x1ab
    1a88:	1a72                	slli	s4,s4,0x3c
    1a8a:	0000                	unimp
    1a8c:	7109                	addi	sp,sp,-384
    1a8e:	0100                	addi	s0,sp,128
    1a90:	2312                	fld	ft6,256(sp)
    1a92:	000001ab          	0x1ab
    1a96:	1aa8                	addi	a0,sp,376
    1a98:	0000                	unimp
    1a9a:	0800                	addi	s0,sp,16
    1a9c:	0000024f          	fnmadd.s	ft4,ft0,ft0,ft0,rne
    1aa0:	0701                	addi	a4,a4,0
    1aa2:	2a01                	sext.w	s4,s4
    1aa4:	0002                	c.slli64	zero
    1aa6:	5800                	lw	s0,48(s0)
    1aa8:	0000000b          	0xb
    1aac:	0000                	unimp
    1aae:	1c00                	addi	s0,sp,560
    1ab0:	0000                	unimp
    1ab2:	0000                	unimp
    1ab4:	0000                	unimp
    1ab6:	0100                	addi	s0,sp,128
    1ab8:	1b9c                	addi	a5,sp,496
    1aba:	0005                	c.nop	1
    1abc:	0900                	addi	s0,sp,144
    1abe:	07010073          	0x7010073
    1ac2:	2a0e                	fld	fs4,192(sp)
    1ac4:	0002                	c.slli64	zero
    1ac6:	de00                	sw	s0,56(a2)
    1ac8:	001a                	c.slli	zero,0x6
    1aca:	0900                	addi	s0,sp,144
    1acc:	0074                	addi	a3,sp,12
    1ace:	0701                	addi	a4,a4,0
    1ad0:	ab1d                	j	2006 <__global_pointer$+0x39e>
    1ad2:	0001                	nop
    1ad4:	1400                	addi	s0,sp,544
    1ad6:	1000001b          	addiw	zero,zero,256
    1ada:	0100736f          	jal	t1,8aea <__global_pointer$+0x6e82>
    1ade:	0909                	addi	s2,s2,2
    1ae0:	022a                	slli	tp,tp,0xa
    1ae2:	0000                	unimp
    1ae4:	5a01                	li	s4,-32
    1ae6:	1700                	addi	s0,sp,928
    1ae8:	00a5                	addi	ra,ra,9
    1aea:	0000                	unimp
    1aec:	00a5                	addi	ra,ra,9
    1aee:	0000                	unimp
    1af0:	0e04                	addi	s1,sp,784
    1af2:	1705                	addi	a4,a4,-31
    1af4:	00000263          	beqz	zero,1af8 <__BSS_END__+0x600>
    1af8:	00000263          	beqz	zero,1afc <__BSS_END__+0x604>
    1afc:	1104                	addi	s1,sp,160
    1afe:	1705                	addi	a4,a4,-31
    1b00:	005c                	addi	a5,sp,4
    1b02:	0000                	unimp
    1b04:	005c                	addi	a5,sp,4
    1b06:	0000                	unimp
    1b08:	0b04                	addi	s1,sp,400
    1b0a:	1705                	addi	a4,a4,-31
    1b0c:	0269                	addi	tp,tp,26
    1b0e:	0000                	unimp
    1b10:	0269                	addi	tp,tp,26
    1b12:	0000                	unimp
    1b14:	0a04                	addi	s1,sp,272
    1b16:	0005                	c.nop	1
    1b18:	002a                	c.slli	zero,0xa
    1b1a:	0000                	unimp
    1b1c:	0002                	c.slli64	zero
    1b1e:	0378                	addi	a4,sp,396
    1b20:	0000                	unimp
    1b22:	0108                	addi	a0,sp,128
    1b24:	00001497          	auipc	s1,0x1
    1b28:	0de0                	addi	s0,sp,732
    1b2a:	0000                	unimp
    1b2c:	0000                	unimp
    1b2e:	0000                	unimp
    1b30:	0e88                	addi	a0,sp,848
    1b32:	0000                	unimp
    1b34:	0000                	unimp
    1b36:	0000                	unimp
    1b38:	02aa                	slli	t0,t0,0xa
    1b3a:	0000                	unimp
    1b3c:	0000012f          	0x12f
    1b40:	02b6                	slli	t0,t0,0xd
    1b42:	0000                	unimp
    1b44:	8001                	c.srli64	s0
    1b46:	00000503          	lb	a0,0(zero) # 0 <getcmd>
    1b4a:	0004                	0x4
    1b4c:	038c                	addi	a1,sp,448
    1b4e:	0000                	unimp
    1b50:	0108                	addi	a0,sp,128
    1b52:	015e                	slli	sp,sp,0x17
    1b54:	0000                	unimp
    1b56:	da0c                	sw	a1,48(a2)
    1b58:	0002                	c.slli64	zero
    1b5a:	2f00                	fld	fs0,24(a4)
    1b5c:	0001                	nop
    1b5e:	8800                	0x8800
    1b60:	000e                	c.slli	zero,0x3
    1b62:	0000                	unimp
    1b64:	0000                	unimp
    1b66:	0c00                	addi	s0,sp,528
    1b68:	00000003          	lb	zero,0(zero) # 0 <getcmd>
    1b6c:	0000                	unimp
    1b6e:	4900                	lw	s0,16(a0)
    1b70:	0016                	c.slli	zero,0x5
    1b72:	0200                	addi	s0,sp,256
    1b74:	0704                	addi	s1,sp,896
    1b76:	0098                	addi	a4,sp,64
    1b78:	0000                	unimp
    1b7a:	00026e03          	lwu	t3,0(tp) # 2000 <__global_pointer$+0x398>
    1b7e:	0200                	addi	s0,sp,256
    1b80:	1801                	addi	a6,a6,-32
    1b82:	002d                	c.nop	11
    1b84:	0000                	unimp
    1b86:	0202                	c.slli64	tp
    1b88:	0000aa07          	flw	fs4,0(ra)
    1b8c:	0200                	addi	s0,sp,256
    1b8e:	0801                	addi	a6,a6,0
    1b90:	0000007b          	0x7b
    1b94:	00024303          	lbu	t1,0(tp) # 0 <getcmd>
    1b98:	0200                	addi	s0,sp,256
    1b9a:	1708                	addi	a0,sp,928
    1b9c:	005a                	c.slli	zero,0x16
    1b9e:	0000                	unimp
    1ba0:	0802                	c.slli64	a6
    1ba2:	00009307          	0x9307
    1ba6:	0400                	addi	s0,sp,512
    1ba8:	0504                	addi	s1,sp,640
    1baa:	6e69                	lui	t3,0x1a
    1bac:	0074                	addi	a3,sp,12
    1bae:	0202                	c.slli64	tp
    1bb0:	9505                	srai	a0,a0,0x21
    1bb2:	0002                	c.slli64	zero
    1bb4:	0300                	addi	s0,sp,384
    1bb6:	02f5                	addi	t0,t0,29
    1bb8:	0000                	unimp
    1bba:	7b1b2803          	lw	a6,1969(s6)
    1bbe:	0000                	unimp
    1bc0:	0500                	addi	s0,sp,640
    1bc2:	c208                	sw	a0,0(a2)
    1bc4:	0002                	c.slli64	zero
    1bc6:	0300                	addi	s0,sp,384
    1bc8:	02fc                	addi	a5,sp,332
    1bca:	0000                	unimp
    1bcc:	6f186303          	lwu	t1,1777(a6) # ffffffffffff86f1 <__global_pointer$+0xffffffffffff6a89>
    1bd0:	0000                	unimp
    1bd2:	0600                	addi	s0,sp,768
    1bd4:	009d                	addi	ra,ra,7
    1bd6:	0000                	unimp
    1bd8:	009d                	addi	ra,ra,7
    1bda:	0000                	unimp
    1bdc:	00005a07          	0x5a07
    1be0:	1000                	addi	s0,sp,32
    1be2:	0200                	addi	s0,sp,256
    1be4:	0801                	addi	a6,a6,0
    1be6:	0084                	addi	s1,sp,64
    1be8:	0000                	unimp
    1bea:	9d08                	0x9d08
    1bec:	0000                	unimp
    1bee:	0900                	addi	s0,sp,144
    1bf0:	0318                	addi	a4,sp,384
    1bf2:	0000                	unimp
    1bf4:	0701                	addi	a4,a4,0
    1bf6:	8d0d                	sub	a0,a0,a1
    1bf8:	0000                	unimp
    1bfa:	0900                	addi	s0,sp,144
    1bfc:	00144803          	lbu	a6,1(s0) # 5001 <__global_pointer$+0x3399>
    1c00:	0000                	unimp
    1c02:	0000                	unimp
    1c04:	0a00                	addi	s0,sp,272
    1c06:	0128                	addi	a0,sp,136
    1c08:	0000                	unimp
    1c0a:	6b01                	0x6b01
    1c0c:	5e01                	li	t3,-32
    1c0e:	0011                	c.nop	4
    1c10:	0000                	unimp
    1c12:	0000                	unimp
    1c14:	3600                	fld	fs0,40(a2)
    1c16:	0000                	unimp
    1c18:	0000                	unimp
    1c1a:	0000                	unimp
    1c1c:	0100                	addi	s0,sp,128
    1c1e:	1e9c                	addi	a5,sp,880
    1c20:	0001                	nop
    1c22:	0b00                	addi	s0,sp,400
    1c24:	6d66                	ld	s10,88(sp)
    1c26:	0074                	addi	a3,sp,12
    1c28:	6b01                	0x6b01
    1c2a:	1e14                	addi	a3,sp,816
    1c2c:	0001                	nop
    1c2e:	4a00                	lw	s0,16(a2)
    1c30:	0c00001b          	addiw	zero,zero,192
    1c34:	610d                	addi	sp,sp,160
    1c36:	0070                	addi	a2,sp,12
    1c38:	6d01                	0x6d01
    1c3a:	0000810b          	0x810b
    1c3e:	0300                	addi	s0,sp,384
    1c40:	a891                	j	1c94 <__global_pointer$+0x2c>
    1c42:	0e7f                	0xe7f
    1c44:	118c                	addi	a1,sp,224
    1c46:	0000                	unimp
    1c48:	0000                	unimp
    1c4a:	0000                	unimp
    1c4c:	018d                	addi	gp,gp,3
    1c4e:	0000                	unimp
    1c50:	015a010f          	0x15a010f
    1c54:	0f31                	addi	t5,t5,12
    1c56:	5b01                	li	s6,-32
    1c58:	5a01f303          	0x5a01f303
    1c5c:	025c010f          	0x25c010f
    1c60:	2872                	fld	fa6,280(sp)
    1c62:	0000                	unimp
    1c64:	0810                	addi	a2,sp,16
    1c66:	00a4                	addi	s1,sp,72
    1c68:	0000                	unimp
    1c6a:	270a                	fld	fa4,128(sp)
    1c6c:	0001                	nop
    1c6e:	0100                	addi	s0,sp,128
    1c70:	0162                	slli	sp,sp,0x18
    1c72:	1130                	addi	a2,sp,168
    1c74:	0000                	unimp
    1c76:	0000                	unimp
    1c78:	0000                	unimp
    1c7a:	002e                	c.slli	zero,0xb
    1c7c:	0000                	unimp
    1c7e:	0000                	unimp
    1c80:	0000                	unimp
    1c82:	9c01                	subw	s0,s0,s0
    1c84:	018d                	addi	gp,gp,3
    1c86:	0000                	unimp
    1c88:	0064660b          	0x64660b
    1c8c:	6201                	0x6201
    1c8e:	610d                	addi	sp,sp,160
    1c90:	0000                	unimp
    1c92:	9600                	0x9600
    1c94:	0b00001b          	addiw	zero,zero,176
    1c98:	6d66                	ld	s10,88(sp)
    1c9a:	0074                	addi	a3,sp,12
    1c9c:	6201                	0x6201
    1c9e:	1e1d                	addi	t3,t3,-25
    1ca0:	0001                	nop
    1ca2:	cf00                	sw	s0,24(a4)
    1ca4:	0c00001b          	addiw	zero,zero,192
    1ca8:	610d                	addi	sp,sp,160
    1caa:	0070                	addi	a2,sp,12
    1cac:	6401                	0x6401
    1cae:	0000810b          	0x810b
    1cb2:	0300                	addi	s0,sp,384
    1cb4:	b891                	j	1508 <__BSS_END__+0x10>
    1cb6:	0e7f                	0xe7f
    1cb8:	1156                	slli	sp,sp,0x35
    1cba:	0000                	unimp
    1cbc:	0000                	unimp
    1cbe:	0000                	unimp
    1cc0:	018d                	addi	gp,gp,3
    1cc2:	0000                	unimp
    1cc4:	035b010f          	0x35b010f
    1cc8:	0f5b01f3          	0xf5b01f3
    1ccc:	5c01                	li	s8,-32
    1cce:	7202                	ld	tp,32(sp)
    1cd0:	0020                	addi	s0,sp,8
    1cd2:	0a00                	addi	s0,sp,272
    1cd4:	02ed                	addi	t0,t0,27
    1cd6:	0000                	unimp
    1cd8:	3401                	addiw	s0,s0,-32
    1cda:	5601                	li	a2,-32
    1cdc:	0000000f          	fence	unknown,unknown
    1ce0:	0000                	unimp
    1ce2:	da00                	sw	s0,48(a2)
    1ce4:	0001                	nop
    1ce6:	0000                	unimp
    1ce8:	0000                	unimp
    1cea:	0100                	addi	s0,sp,128
    1cec:	b69c                	fsd	fa5,40(a3)
    1cee:	0b000003          	lb	zero,176(zero) # b0 <runcmd+0x8>
    1cf2:	6466                	ld	s0,88(sp)
    1cf4:	0100                	addi	s0,sp,128
    1cf6:	0d34                	addi	a3,sp,664
    1cf8:	0061                	c.nop	24
    1cfa:	0000                	unimp
    1cfc:	1c08                	addi	a0,sp,560
    1cfe:	0000                	unimp
    1d00:	746d660b          	0x746d660b
    1d04:	0100                	addi	s0,sp,128
    1d06:	1d34                	addi	a3,sp,696
    1d08:	011e                	slli	sp,sp,0x7
    1d0a:	0000                	unimp
    1d0c:	1c41                	addi	s8,s8,-16
    1d0e:	0000                	unimp
    1d10:	0070610b          	0x70610b
    1d14:	3401                	addiw	s0,s0,-32
    1d16:	812a                	mv	sp,a0
    1d18:	0000                	unimp
    1d1a:	7a00                	ld	s0,48(a2)
    1d1c:	001c                	0x1c
    1d1e:	1100                	addi	s0,sp,160
    1d20:	36010073          	0x36010073
    1d24:	b609                	j	1826 <__BSS_END__+0x32e>
    1d26:	f5000003          	lb	zero,-176(zero) # ffffffffffffff50 <__global_pointer$+0xffffffffffffe2e8>
    1d2a:	001d                	c.nop	7
    1d2c:	1100                	addi	s0,sp,160
    1d2e:	37010063          	beq	sp,a6,208e <__global_pointer$+0x426>
    1d32:	00006107          	0x6107
    1d36:	2b00                	fld	fs0,16(a4)
    1d38:	001e                	c.slli	zero,0x7
    1d3a:	1100                	addi	s0,sp,160
    1d3c:	0069                	c.nop	26
    1d3e:	3701                	addiw	a4,a4,-32
    1d40:	610a                	ld	sp,128(sp)
    1d42:	0000                	unimp
    1d44:	5800                	lw	s0,48(s0)
    1d46:	001f 1200 02d4      	0x2d41200001f
    1d4c:	0000                	unimp
    1d4e:	3701                	addiw	a4,a4,-32
    1d50:	610d                	addi	sp,sp,160
    1d52:	0000                	unimp
    1d54:	cf00                	sw	s0,24(a4)
    1d56:	001f 1300 03bc      	0x3bc1300001f
    1d5c:	0000                	unimp
    1d5e:	0f9a                	slli	t6,t6,0x6
	...
    1d68:	0000                	unimp
    1d6a:	4a01                	li	s4,0
    1d6c:	ab09                	j	227e <__global_pointer$+0x616>
    1d6e:	0002                	c.slli64	zero
    1d70:	1400                	addi	s0,sp,544
    1d72:	03d4                	addi	a3,sp,452
    1d74:	0000                	unimp
    1d76:	20b2                	fld	ft1,264(sp)
    1d78:	0000                	unimp
    1d7a:	c914                	sw	a3,16(a0)
    1d7c:	d5000003          	lb	zero,-688(zero) # fffffffffffffd50 <__global_pointer$+0xffffffffffffe0e8>
    1d80:	0020                	addi	s0,sp,8
    1d82:	1500                	addi	s0,sp,672
    1d84:	0000                	unimp
    1d86:	0000                	unimp
    1d88:	de16                	sw	t0,60(sp)
    1d8a:	f8000003          	lb	zero,-128(zero) # ffffffffffffff80 <__global_pointer$+0xffffffffffffe318>
    1d8e:	0020                	addi	s0,sp,8
    1d90:	1700                	addi	s0,sp,928
    1d92:	107e                	c.slli	zero,0x3f
    1d94:	0000                	unimp
    1d96:	0000                	unimp
    1d98:	0000                	unimp
    1d9a:	04a5                	addi	s1,s1,9
    1d9c:	0000                	unimp
    1d9e:	0269                	addi	tp,tp,26
    1da0:	0000                	unimp
    1da2:	025a010f          	0x25a010f
    1da6:	0085                	addi	ra,ra,1
    1da8:	025b010f          	0x25b010f
    1dac:	3008                	fld	fa0,32(s0)
    1dae:	1700                	addi	s0,sp,928
    1db0:	108a                	slli	ra,ra,0x22
    1db2:	0000                	unimp
    1db4:	0000                	unimp
    1db6:	0000                	unimp
    1db8:	04a5                	addi	s1,s1,9
    1dba:	0000                	unimp
    1dbc:	00000287          	0x287
    1dc0:	025a010f          	0x25a010f
    1dc4:	0085                	addi	ra,ra,1
    1dc6:	025b010f          	0x25b010f
    1dca:	008a                	slli	ra,ra,0x2
    1dcc:	0e00                	addi	s0,sp,784
    1dce:	10a0                	addi	s0,sp,104
    1dd0:	0000                	unimp
    1dd2:	0000                	unimp
    1dd4:	0000                	unimp
    1dd6:	04a5                	addi	s1,s1,9
    1dd8:	0000                	unimp
    1dda:	025a010f          	0x25a010f
    1dde:	0085                	addi	ra,ra,1
    1de0:	0a5b010f          	0xa5b010f
    1de4:	3c080083          	lb	ra,960(a6)
    1de8:	8725                	srai	a4,a4,0x9
    1dea:	2200                	fld	fs0,0(a2)
    1dec:	0194                	addi	a3,sp,192
    1dee:	0000                	unimp
    1df0:	1700                	addi	s0,sp,928
    1df2:	0fb0                	addi	a2,sp,984
    1df4:	0000                	unimp
    1df6:	0000                	unimp
    1df8:	0000                	unimp
    1dfa:	04a5                	addi	s1,s1,9
    1dfc:	0000                	unimp
    1dfe:	02c9                	addi	t0,t0,18
    1e00:	0000                	unimp
    1e02:	025a010f          	0x25a010f
    1e06:	0085                	addi	ra,ra,1
    1e08:	025b010f          	0x25b010f
    1e0c:	0079                	c.nop	30
    1e0e:	1700                	addi	s0,sp,928
    1e10:	1000                	addi	s0,sp,32
    1e12:	0000                	unimp
    1e14:	0000                	unimp
    1e16:	0000                	unimp
    1e18:	04a5                	addi	s1,s1,9
    1e1a:	0000                	unimp
    1e1c:	000002e7          	jalr	t0,zero # 0 <getcmd>
    1e20:	025a010f          	0x25a010f
    1e24:	0085                	addi	ra,ra,1
    1e26:	025b010f          	0x25b010f
    1e2a:	0084                	addi	s1,sp,64
    1e2c:	1700                	addi	s0,sp,928
    1e2e:	100c                	addi	a1,sp,32
    1e30:	0000                	unimp
    1e32:	0000                	unimp
    1e34:	0000                	unimp
    1e36:	04a5                	addi	s1,s1,9
    1e38:	0000                	unimp
    1e3a:	0305                	addi	t1,t1,1
    1e3c:	0000                	unimp
    1e3e:	025a010f          	0x25a010f
    1e42:	0085                	addi	ra,ra,1
    1e44:	025b010f          	0x25b010f
    1e48:	0079                	c.nop	30
    1e4a:	1700                	addi	s0,sp,928
    1e4c:	1026                	c.slli	zero,0x29
    1e4e:	0000                	unimp
    1e50:	0000                	unimp
    1e52:	0000                	unimp
    1e54:	03e9                	addi	t2,t2,26
    1e56:	0000                	unimp
    1e58:	00000327          	0x327
    1e5c:	025a010f          	0x25a010f
    1e60:	0085                	addi	ra,ra,1
    1e62:	015c010f          	0x15c010f
    1e66:	0f3a                	slli	t5,t5,0xe
    1e68:	5d01                	li	s10,-32
    1e6a:	3101                	addiw	sp,sp,-32
    1e6c:	1700                	addi	s0,sp,928
    1e6e:	1042                	c.slli	zero,0x30
    1e70:	0000                	unimp
    1e72:	0000                	unimp
    1e74:	0000                	unimp
    1e76:	03e9                	addi	t2,t2,26
    1e78:	0000                	unimp
    1e7a:	0349                	addi	t1,t1,18
    1e7c:	0000                	unimp
    1e7e:	025a010f          	0x25a010f
    1e82:	0085                	addi	ra,ra,1
    1e84:	015c010f          	0x15c010f
    1e88:	0f3a                	slli	t5,t5,0xe
    1e8a:	5d01                	li	s10,-32
    1e8c:	3001                	0x3001
    1e8e:	1700                	addi	s0,sp,928
    1e90:	105e                	c.slli	zero,0x37
    1e92:	0000                	unimp
    1e94:	0000                	unimp
    1e96:	0000                	unimp
    1e98:	03e9                	addi	t2,t2,26
    1e9a:	0000                	unimp
    1e9c:	0000036b          	0x36b
    1ea0:	025a010f          	0x25a010f
    1ea4:	0085                	addi	ra,ra,1
    1ea6:	015c010f          	0x15c010f
    1eaa:	0f40                	addi	s0,sp,916
    1eac:	5d01                	li	s10,-32
    1eae:	3001                	0x3001
    1eb0:	1700                	addi	s0,sp,928
    1eb2:	10c8                	addi	a0,sp,100
    1eb4:	0000                	unimp
    1eb6:	0000                	unimp
    1eb8:	0000                	unimp
    1eba:	04a5                	addi	s1,s1,9
    1ebc:	0000                	unimp
    1ebe:	00000383          	lb	t2,0(zero) # 0 <getcmd>
    1ec2:	025a010f          	0x25a010f
    1ec6:	0085                	addi	ra,ra,1
    1ec8:	1700                	addi	s0,sp,928
    1eca:	10f6                	slli	ra,ra,0x3d
    1ecc:	0000                	unimp
    1ece:	0000                	unimp
    1ed0:	0000                	unimp
    1ed2:	04a5                	addi	s1,s1,9
    1ed4:	0000                	unimp
    1ed6:	0000039b          	sext.w	t2,zero
    1eda:	025a010f          	0x25a010f
    1ede:	0085                	addi	ra,ra,1
    1ee0:	0e00                	addi	s0,sp,784
    1ee2:	1108                	addi	a0,sp,160
    1ee4:	0000                	unimp
    1ee6:	0000                	unimp
    1ee8:	0000                	unimp
    1eea:	04a5                	addi	s1,s1,9
    1eec:	0000                	unimp
    1eee:	025a010f          	0x25a010f
    1ef2:	0085                	addi	ra,ra,1
    1ef4:	025b010f          	0x25b010f
    1ef8:	0084                	addi	s1,sp,64
    1efa:	0000                	unimp
    1efc:	0810                	addi	a2,sp,16
    1efe:	009d                	addi	ra,ra,7
    1f00:	0000                	unimp
    1f02:	1f18                	addi	a4,sp,944
    1f04:	01000003          	lb	zero,16(zero) # 10 <getcmd+0x10>
    1f08:	012a                	slli	sp,sp,0xa
    1f0a:	e901                	bnez	a0,1f1a <__global_pointer$+0x2b2>
    1f0c:	19000003          	lb	zero,400(zero) # 190 <runcmd+0xe8>
    1f10:	6466                	ld	s0,88(sp)
    1f12:	0100                	addi	s0,sp,128
    1f14:	0e2a                	slli	t3,t3,0xa
    1f16:	0061                	c.nop	24
    1f18:	0000                	unimp
    1f1a:	7819                	lui	a6,0xfffe6
    1f1c:	0100                	addi	s0,sp,128
    1f1e:	192a                	slli	s2,s2,0x2a
    1f20:	004e                	c.slli	zero,0x13
    1f22:	0000                	unimp
    1f24:	691a                	ld	s2,384(sp)
    1f26:	0100                	addi	s0,sp,128
    1f28:	0061072b          	0x61072b
    1f2c:	0000                	unimp
    1f2e:	1b00                	addi	s0,sp,432
    1f30:	0304                	addi	s1,sp,384
    1f32:	0000                	unimp
    1f34:	1001                	c.nop	-32
    1f36:	aa01                	j	2046 <__global_pointer$+0x3de>
    1f38:	000e                	c.slli	zero,0x3
    1f3a:	0000                	unimp
    1f3c:	0000                	unimp
    1f3e:	ac00                	fsd	fs0,24(s0)
    1f40:	0000                	unimp
    1f42:	0000                	unimp
    1f44:	0000                	unimp
    1f46:	0100                	addi	s0,sp,128
    1f48:	959c                	0x959c
    1f4a:	0004                	0x4
    1f4c:	0b00                	addi	s0,sp,400
    1f4e:	6466                	ld	s0,88(sp)
    1f50:	0100                	addi	s0,sp,128
    1f52:	0e10                	addi	a2,sp,784
    1f54:	0061                	c.nop	24
    1f56:	0000                	unimp
    1f58:	214a                	fld	ft2,144(sp)
    1f5a:	0000                	unimp
    1f5c:	0078780b          	0x78780b
    1f60:	1001                	c.nop	-32
    1f62:	6116                	ld	sp,320(sp)
    1f64:	0000                	unimp
    1f66:	8300                	0x8300
    1f68:	0021                	c.nop	8
    1f6a:	1c00                	addi	s0,sp,560
    1f6c:	00000313          	li	t1,0
    1f70:	1001                	c.nop	-32
    1f72:	611e                	ld	sp,448(sp)
    1f74:	0000                	unimp
    1f76:	e500                	sd	s0,8(a0)
    1f78:	0021                	c.nop	8
    1f7a:	0b00                	addi	s0,sp,400
    1f7c:	006e6773          	csrrsi	a4,0x6,28
    1f80:	1001                	c.nop	-32
    1f82:	6128                	ld	a0,64(a0)
    1f84:	0000                	unimp
    1f86:	1e00                	addi	s0,sp,816
    1f88:	0022                	c.slli	zero,0x8
    1f8a:	0d00                	addi	s0,sp,656
    1f8c:	7562                	ld	a0,56(sp)
    1f8e:	0066                	c.slli	zero,0x19
    1f90:	1201                	addi	tp,tp,-32
    1f92:	9508                	0x9508
    1f94:	0004                	0x4
    1f96:	0200                	addi	s0,sp,256
    1f98:	4091                	li	ra,4
    1f9a:	6911                	lui	s2,0x4
    1f9c:	0100                	addi	s0,sp,128
    1f9e:	00610713          	addi	a4,sp,6 # 6 <getcmd+0x6>
    1fa2:	0000                	unimp
    1fa4:	00002257          	0x2257
    1fa8:	6e11                	lui	t3,0x4
    1faa:	6765                	lui	a4,0x19
    1fac:	0100                	addi	s0,sp,128
    1fae:	00610a13          	addi	s4,sp,6
    1fb2:	0000                	unimp
    1fb4:	22de                	fld	ft5,464(sp)
    1fb6:	0000                	unimp
    1fb8:	7811                	lui	a6,0xfffe4
    1fba:	0100                	addi	s0,sp,128
    1fbc:	0814                	addi	a3,sp,16
    1fbe:	0034                	addi	a3,sp,8
    1fc0:	0000                	unimp
    1fc2:	233c                	fld	fa5,64(a4)
    1fc4:	0000                	unimp
    1fc6:	420e                	lw	tp,192(sp)
    1fc8:	0000000f          	fence	unknown,unknown
    1fcc:	0000                	unimp
    1fce:	a500                	fsd	fs0,8(a0)
    1fd0:	0004                	0x4
    1fd2:	0f00                	addi	s0,sp,912
    1fd4:	5a01                	li	s4,-32
    1fd6:	8302                	jr	t1
    1fd8:	0000                	unimp
    1fda:	0600                	addi	s0,sp,768
    1fdc:	009d                	addi	ra,ra,7
    1fde:	0000                	unimp
    1fe0:	04a5                	addi	s1,s1,9
    1fe2:	0000                	unimp
    1fe4:	00005a07          	0x5a07
    1fe8:	0f00                	addi	s0,sp,912
    1fea:	1b00                	addi	s0,sp,432
    1fec:	02e8                	addi	a0,sp,332
    1fee:	0000                	unimp
    1ff0:	0a01                	addi	s4,s4,0
    1ff2:	8801                	andi	s0,s0,0
    1ff4:	000e                	c.slli	zero,0x3
    1ff6:	0000                	unimp
    1ff8:	0000                	unimp
    1ffa:	2200                	fld	fs0,0(a2)
    1ffc:	0000                	unimp
    1ffe:	0000                	unimp
    2000:	0000                	unimp
    2002:	0100                	addi	s0,sp,128
    2004:	fa9c                	sd	a5,48(a3)
    2006:	0004                	0x4
    2008:	0b00                	addi	s0,sp,400
    200a:	6466                	ld	s0,88(sp)
    200c:	0100                	addi	s0,sp,128
    200e:	0a0a                	slli	s4,s4,0x2
    2010:	0061                	c.nop	24
    2012:	0000                	unimp
    2014:	23c5                	addiw	t2,t2,17
    2016:	0000                	unimp
    2018:	0100630b          	0x100630b
    201c:	130a                	slli	t1,t1,0x22
    201e:	009d                	addi	ra,ra,7
    2020:	0000                	unimp
    2022:	23fe                	fld	ft7,472(sp)
    2024:	0000                	unimp
    2026:	a20e                	fsd	ft3,256(sp)
    2028:	000e                	c.slli	zero,0x3
    202a:	0000                	unimp
    202c:	0000                	unimp
    202e:	fa00                	sd	s0,48(a2)
    2030:	0004                	0x4
    2032:	0f00                	addi	s0,sp,912
    2034:	5b01                	li	s6,-32
    2036:	7802                	ld	a6,32(sp)
    2038:	5c010f6f          	jal	t5,125f8 <__global_pointer$+0x10990>
    203c:	3101                	addiw	sp,sp,-32
    203e:	0000                	unimp
    2040:	0d1d                	addi	s10,s10,7
    2042:	0d000003          	lb	zero,208(zero) # d0 <runcmd+0x28>
    2046:	04000003          	lb	zero,64(zero) # 40 <getcmd+0x40>
    204a:	0509                	addi	a0,a0,2
    204c:	4700                	lw	s0,8(a4)
    204e:	0002                	c.slli64	zero
    2050:	0400                	addi	s0,sp,512
    2052:	2500                	fld	fs0,8(a0)
    2054:	0005                	c.nop	1
    2056:	0800                	addi	s0,sp,16
    2058:	5e01                	li	t3,-32
    205a:	0001                	nop
    205c:	0c00                	addi	s0,sp,528
    205e:	0000032f          	0x32f
    2062:	0000012f          	0x12f
    2066:	1194                	addi	a3,sp,224
    2068:	0000                	unimp
    206a:	0000                	unimp
    206c:	0000                	unimp
    206e:	0170                	addi	a2,sp,140
    2070:	0000                	unimp
    2072:	0000                	unimp
    2074:	0000                	unimp
    2076:	1ba5                	addi	s7,s7,-23
    2078:	0000                	unimp
    207a:	6e02                	ld	t3,0(sp)
    207c:	0002                	c.slli64	zero
    207e:	0200                	addi	s0,sp,256
    2080:	1801                	addi	a6,a6,-32
    2082:	0039                	c.nop	14
    2084:	0000                	unimp
    2086:	98070403          	lb	s0,-1664(a4) # 18980 <__global_pointer$+0x16d18>
    208a:	0000                	unimp
    208c:	0300                	addi	s0,sp,384
    208e:	0702                	c.slli64	a4
    2090:	00aa                	slli	ra,ra,0xa
    2092:	0000                	unimp
    2094:	7b080103          	lb	sp,1968(a6) # fffffffffffe47b0 <__global_pointer$+0xfffffffffffe2b48>
    2098:	0000                	unimp
    209a:	0300                	addi	s0,sp,384
    209c:	0708                	addi	a0,sp,896
    209e:	00000093          	li	ra,0
    20a2:	0404                	addi	s1,sp,512
    20a4:	6905                	lui	s2,0x1
    20a6:	746e                	ld	s0,248(sp)
    20a8:	0300                	addi	s0,sp,384
    20aa:	0502                	c.slli64	a0
    20ac:	0295                	addi	t0,t0,5
    20ae:	0000                	unimp
    20b0:	7602                	ld	a2,32(sp)
    20b2:	01000003          	lb	zero,16(zero) # 10 <getcmd+0x10>
    20b6:	0e09                	addi	t3,t3,2
    20b8:	0000006f          	j	20b8 <__global_pointer$+0x450>
    20bc:	5e050803          	lb	a6,1504(a0) # 2aec <__global_pointer$+0xe84>
    20c0:	05000003          	lb	zero,80(zero) # 50 <getcmd+0x50>
    20c4:	0110                	addi	a2,sp,128
    20c6:	030c                	addi	a1,sp,384
    20c8:	009a                	slli	ra,ra,0x6
    20ca:	0000                	unimp
    20cc:	7006                	0x7006
    20ce:	7274                	ld	a3,224(a2)
    20d0:	0100                	addi	s0,sp,128
    20d2:	130d                	addi	t1,t1,-29
    20d4:	00bc                	addi	a5,sp,72
    20d6:	0000                	unimp
    20d8:	0700                	addi	s0,sp,896
    20da:	02a5                	addi	t0,t0,9
    20dc:	0000                	unimp
    20de:	0e01                	addi	t3,t3,0
    20e0:	2d0a                	fld	fs10,128(sp)
    20e2:	0000                	unimp
    20e4:	0800                	addi	s0,sp,16
    20e6:	0800                	addi	s0,sp,16
    20e8:	00000357          	0x357
    20ec:	0110                	addi	a2,sp,128
    20ee:	00bc070b          	0xbc070b
    20f2:	0000                	unimp
    20f4:	7309                	lui	t1,0xfffe2
    20f6:	0100                	addi	s0,sp,128
    20f8:	0076050f          	0x76050f
    20fc:	0000                	unimp
    20fe:	7809                	lui	a6,0xfffe2
    2100:	0100                	addi	s0,sp,128
    2102:	0910                	addi	a2,sp,144
    2104:	00000063          	beqz	zero,2104 <__global_pointer$+0x49c>
    2108:	0a00                	addi	s0,sp,272
    210a:	9a08                	0x9a08
    210c:	0000                	unimp
    210e:	0200                	addi	s0,sp,256
    2110:	033e                	slli	t1,t1,0xf
    2112:	0000                	unimp
    2114:	1301                	addi	t1,t1,-32
    2116:	9a16                	add	s4,s4,t0
    2118:	0000                	unimp
    211a:	0b00                	addi	s0,sp,400
    211c:	00000313          	li	t1,0
    2120:	1501                	addi	a0,a0,-32
    2122:	0000c20f          	0xc20f
    2126:	0900                	addi	s0,sp,144
    2128:	0014e803          	lwu	a6,1(s1) # 2b25 <__global_pointer$+0xebd>
    212c:	0000                	unimp
    212e:	0000                	unimp
    2130:	0b00                	addi	s0,sp,400
    2132:	0351                	addi	t1,t1,20
    2134:	0000                	unimp
    2136:	1601                	addi	a2,a2,-32
    2138:	fa10                	sd	a2,48(a2)
    213a:	0000                	unimp
    213c:	0900                	addi	s0,sp,144
    213e:	00147803          	0x147803
    2142:	0000                	unimp
    2144:	0000                	unimp
    2146:	0a00                	addi	s0,sp,272
    2148:	c208                	sw	a0,0(a2)
    214a:	0000                	unimp
    214c:	0c00                	addi	s0,sp,528
    214e:	00000223          	sb	zero,4(zero) # 4 <getcmd+0x4>
    2152:	4001                	c.li	zero,0
    2154:	b801                	j	1964 <__BSS_END__+0x46c>
    2156:	0001                	nop
    2158:	1e00                	addi	s0,sp,816
    215a:	0012                	c.slli	zero,0x4
    215c:	0000                	unimp
    215e:	0000                	unimp
    2160:	e600                	sd	s0,8(a2)
    2162:	0000                	unimp
    2164:	0000                	unimp
    2166:	0000                	unimp
    2168:	0100                	addi	s0,sp,128
    216a:	b89c                	fsd	fa5,48(s1)
    216c:	0001                	nop
    216e:	0d00                	addi	s0,sp,656
    2170:	0328                	addi	a0,sp,392
    2172:	0000                	unimp
    2174:	4001                	c.li	zero,0
    2176:	2d0d                	addiw	s10,s10,3
    2178:	0000                	unimp
    217a:	3500                	fld	fs0,40(a0)
    217c:	0024                	addi	s1,sp,8
    217e:	0e00                	addi	s0,sp,784
    2180:	0070                	addi	a2,sp,12
    2182:	4201                	li	tp,0
    2184:	0000fa0b          	0xfa0b
    2188:	6e00                	ld	s0,24(a2)
    218a:	0024                	addi	s1,sp,8
    218c:	0f00                	addi	s0,sp,912
    218e:	0370                	addi	a2,sp,396
    2190:	0000                	unimp
    2192:	4201                	li	tp,0
    2194:	0000fa0f          	0xfa0f
    2198:	f900                	sd	s0,48(a0)
    219a:	0024                	addi	s1,sp,8
    219c:	0f00                	addi	s0,sp,912
    219e:	034a                	slli	t1,t1,0x12
    21a0:	0000                	unimp
    21a2:	4301                	li	t1,0
    21a4:	2d08                	fld	fa0,24(a0)
    21a6:	0000                	unimp
    21a8:	7100                	ld	s0,32(a0)
    21aa:	0025                	c.nop	9
    21ac:	1000                	addi	s0,sp,32
    21ae:	01ba                	slli	gp,gp,0xe
    21b0:	0000                	unimp
    21b2:	126c                	addi	a1,sp,300
    21b4:	0000                	unimp
    21b6:	0000                	unimp
    21b8:	0000                	unimp
    21ba:	0030                	addi	a2,sp,8
    21bc:	0000                	unimp
    21be:	5701                	li	a4,-32
    21c0:	01cb110f          	0x1cb110f
    21c4:	0000                	unimp
    21c6:	000025a7          	fsw	ft0,11(zero) # b <getcmd+0xb>
    21ca:	3012                	fld	ft0,288(sp)
    21cc:	0000                	unimp
    21ce:	1300                	addi	s0,sp,416
    21d0:	01d6                	slli	gp,gp,0x15
    21d2:	0000                	unimp
    21d4:	2611                	addiw	a2,a2,4
    21d6:	0000                	unimp
    21d8:	0001e013          	ori	zero,gp,0
    21dc:	5c00                	lw	s0,56(s0)
    21de:	0026                	c.slli	zero,0x9
    21e0:	1400                	addi	s0,sp,544
    21e2:	12de                	slli	t0,t0,0x37
    21e4:	0000                	unimp
    21e6:	0000                	unimp
    21e8:	0000                	unimp
    21ea:	01f9                	addi	gp,gp,30
    21ec:	0000                	unimp
    21ee:	fc15                	bnez	s0,212a <__global_pointer$+0x4c2>
    21f0:	0012                	c.slli	zero,0x4
    21f2:	0000                	unimp
    21f4:	0000                	unimp
    21f6:	3e00                	fld	fs0,56(a2)
    21f8:	0002                	c.slli64	zero
    21fa:	1600                	addi	s0,sp,800
    21fc:	5a01                	li	s4,-32
    21fe:	8402                	jr	s0
    2200:	0000                	unimp
    2202:	0000                	unimp
    2204:	1700                	addi	s0,sp,928
    2206:	1808                	addi	a0,sp,48
    2208:	00000367          	jalr	t1,zero # 0 <getcmd>
    220c:	2f01                	sext.w	t5,t5
    220e:	fa01                	bnez	a2,211e <__global_pointer$+0x4b6>
    2210:	0000                	unimp
    2212:	0100                	addi	s0,sp,128
    2214:	01ec                	addi	a1,sp,204
    2216:	0000                	unimp
    2218:	6e19                	lui	t3,0x6
    221a:	0075                	c.nop	29
    221c:	2f01                	sext.w	t5,t5
    221e:	00002d0f          	0x2d0f
    2222:	1a00                	addi	s0,sp,304
    2224:	0070                	addi	a2,sp,12
    2226:	3101                	addiw	sp,sp,-32
    2228:	ec09                	bnez	s0,2242 <__global_pointer$+0x5da>
    222a:	0001                	nop
    222c:	1a00                	addi	s0,sp,304
    222e:	7068                	ld	a0,224(s0)
    2230:	0100                	addi	s0,sp,128
    2232:	0b32                	slli	s6,s6,0xc
    2234:	00fa                	slli	ra,ra,0x1e
    2236:	0000                	unimp
    2238:	0a00                	addi	s0,sp,272
    223a:	f208                	sd	a0,32(a2)
    223c:	0001                	nop
    223e:	0300                	addi	s0,sp,384
    2240:	0801                	addi	a6,a6,0
    2242:	0084                	addi	s1,sp,64
    2244:	0000                	unimp
    2246:	00037c1b          	0x37c1b
    224a:	0100                	addi	s0,sp,128
    224c:	0119                	addi	sp,sp,6
    224e:	1194                	addi	a3,sp,224
    2250:	0000                	unimp
    2252:	0000                	unimp
    2254:	0000                	unimp
    2256:	008a                	slli	ra,ra,0x2
    2258:	0000                	unimp
    225a:	0000                	unimp
    225c:	0000                	unimp
    225e:	9c01                	subw	s0,s0,s0
    2260:	023e                	slli	tp,tp,0xf
    2262:	0000                	unimp
    2264:	611c                	ld	a5,0(a0)
    2266:	0070                	addi	a2,sp,12
    2268:	1901                	addi	s2,s2,-32
    226a:	b80c                	fsd	fa1,48(s0)
    226c:	0001                	nop
    226e:	0100                	addi	s0,sp,128
    2270:	1d5a                	slli	s10,s10,0x36
    2272:	7062                	0x7062
    2274:	0100                	addi	s0,sp,128
    2276:	00fa0b1b          	addiw	s6,s4,15
    227a:	0000                	unimp
    227c:	5d01                	li	s10,-32
    227e:	701d                	c.lui	zero,0xfffe7
    2280:	0100                	addi	s0,sp,128
    2282:	00fa101b          	slliw	zero,s4,0xf
    2286:	0000                	unimp
    2288:	5f01                	li	t5,-32
    228a:	1e00                	addi	s0,sp,816
    228c:	0345                	addi	t1,t1,17
    228e:	0000                	unimp
    2290:	0345                	addi	t1,t1,17
    2292:	0000                	unimp
    2294:	00071703          	lh	a4,0(a4)

Disassembly of section .debug_abbrev:

0000000000000000 <.debug_abbrev>:
getcmd():
/home/one/xv6-labs-2020/user/sh.c:136
   0:	1101                	addi	sp,sp,-32
   2:	2501                	sext.w	a0,a0
   4:	130e                	slli	t1,t1,0x23
   6:	1b0e030b          	0x1b0e030b
   a:	110e                	slli	sp,sp,0x23
   c:	1201                	addi	tp,tp,-32
   e:	00171007          	0x171007
/home/one/xv6-labs-2020/user/sh.c:137
  12:	0200                	addi	s0,sp,256
  14:	0024                	addi	s1,sp,8
  16:	0b3e0b0b          	0xb3e0b0b
  1a:	00000e03          	lb	t3,0(zero) # 0 <getcmd>
  1e:	03011303          	lh	t1,48(sp)
/home/one/xv6-labs-2020/user/sh.c:138
  22:	0b08                	addi	a0,sp,400
  24:	3b0b3a0b          	0x3b0b3a0b
  28:	010b390b          	0x10b390b
  2c:	04000013          	li	zero,64
/home/one/xv6-labs-2020/user/sh.c:139
  30:	000d                	c.nop	3
  32:	0b3a0e03          	lb	t3,179(s4) # 10b3 <vprintf+0x15d>
  36:	0b390b3b          	0xb390b3b
  3a:	1349                	addi	t1,t1,-14
/home/one/xv6-labs-2020/user/sh.c:140
  3c:	0b38                	addi	a4,sp,408
  3e:	0000                	unimp
  40:	2405                	addiw	s0,s0,1
  42:	0b00                	addi	s0,sp,400
/home/one/xv6-labs-2020/user/sh.c:143
  44:	030b3e0b          	0x30b3e0b
  48:	0008                	0x8
  4a:	0600                	addi	s0,sp,768
  4c:	0e030113          	addi	sp,t1,224 # fffffffffffe20e0 <__global_pointer$+0xfffffffffffe0478>
  50:	0b3a0b0b          	0xb3a0b0b
panic():
/home/one/xv6-labs-2020/user/sh.c:177
  54:	0b390b3b          	0xb390b3b
  58:	1301                	addi	t1,t1,-32
  5a:	0000                	unimp
/home/one/xv6-labs-2020/user/sh.c:178
  5c:	49010107          	0x49010107
  60:	00130113          	addi	sp,t1,1
  64:	0800                	addi	s0,sp,16
  66:	0021                	c.nop	8
  68:	1349                	addi	t1,t1,-14
  6a:	00000b2f          	0xb2f
  6e:	0f09                	addi	t5,t5,2
/home/one/xv6-labs-2020/user/sh.c:179
  70:	0b00                	addi	s0,sp,400
  72:	0013490b          	0x13490b
  76:	0a00                	addi	s0,sp,272
  78:	000d                	c.nop	3
fork1():
/home/one/xv6-labs-2020/user/sh.c:184
  7a:	0b3a0803          	lb	a6,179(s4)
  7e:	0b390b3b          	0xb390b3b
/home/one/xv6-labs-2020/user/sh.c:187
  82:	1349                	addi	t1,t1,-14
  84:	0b38                	addi	a4,sp,408
  86:	0000                	unimp
  88:	0300340b          	0x300340b
/home/one/xv6-labs-2020/user/sh.c:188
  8c:	3a0e                	fld	fs4,224(sp)
  8e:	39053b0b          	0x39053b0b
/home/one/xv6-labs-2020/user/sh.c:191
  92:	3f13490b          	0x3f13490b
  96:	0219                	addi	tp,tp,6
/home/one/xv6-labs-2020/user/sh.c:189
  98:	0018                	0x18
  9a:	0c00                	addi	s0,sp,528
  9c:	012e                	slli	sp,sp,0xb
  9e:	0e03193f 053b0b3a 	0x53b0b3a0e03193f
  a6:	0b39                	addi	s6,s6,14
runcmd():
/home/one/xv6-labs-2020/user/sh.c:59
  a8:	13491927          	0x13491927
  ac:	0111                	addi	sp,sp,4
  ae:	0712                	slli	a4,a4,0x4
  b0:	1840                	addi	s0,sp,52
/home/one/xv6-labs-2020/user/sh.c:67
  b2:	01194297          	auipc	t0,0x1194
/home/one/xv6-labs-2020/user/sh.c:70
  b6:	0d000013          	li	zero,208
  ba:	0005                	c.nop	1
  bc:	0b3a0803          	lb	a6,179(s4)
  c0:	0b39053b          	0xb39053b
  c4:	1349                	addi	t1,t1,-14
  c6:	1702                	slli	a4,a4,0x20
  c8:	0000                	unimp
  ca:	340e                	fld	fs0,224(sp)
  cc:	0300                	addi	s0,sp,384
  ce:	3a08                	fld	fa0,48(a2)
  d0:	39053b0b          	0x39053b0b
/home/one/xv6-labs-2020/user/sh.c:68
  d4:	0213490b          	0x213490b
  d8:	0f000017          	auipc	zero,0xf000
  dc:	0034                	addi	a3,sp,8
/home/one/xv6-labs-2020/user/sh.c:72
  de:	0b3a0e03          	lb	t3,179(s4)
  e2:	0b39053b          	0xb39053b
  e6:	1349                	addi	t1,t1,-14
  e8:	1802                	slli	a6,a6,0x20
  ea:	0000                	unimp
  ec:	3410                	fld	fa2,40(s0)
/home/one/xv6-labs-2020/user/sh.c:76
  ee:	0300                	addi	s0,sp,384
  f0:	3a0e                	fld	fs4,224(sp)
/home/one/xv6-labs-2020/user/sh.c:79
  f2:	39053b0b          	0x39053b0b
  f6:	0013490b          	0x13490b
  fa:	1100                	addi	s0,sp,160
  fc:	0034                	addi	a3,sp,8
/home/one/xv6-labs-2020/user/sh.c:80
  fe:	0b3a0e03          	lb	t3,179(s4)
 102:	0b39053b          	0xb39053b
 106:	1349                	addi	t1,t1,-14
 108:	1702                	slli	a4,a4,0x20
 10a:	0000                	unimp
 10c:	8912                	mv	s2,tp
 10e:	0182                	c.slli64	gp
 110:	1100                	addi	s0,sp,160
/home/one/xv6-labs-2020/user/sh.c:131
 112:	3101                	addiw	sp,sp,-32
 114:	13000013          	li	zero,304
 118:	0034                	addi	a3,sp,8
 11a:	0b3a0803          	lb	a6,179(s4)
/home/one/xv6-labs-2020/user/sh.c:77
 11e:	0b39053b          	0xb39053b
 122:	1349                	addi	t1,t1,-14
 124:	1802                	slli	a6,a6,0x20
/home/one/xv6-labs-2020/user/sh.c:85
 126:	0000                	unimp
 128:	8914                	0x8914
 12a:	0182                	c.slli64	gp
 12c:	1101                	addi	sp,sp,-32
 12e:	3101                	addiw	sp,sp,-32
/home/one/xv6-labs-2020/user/sh.c:86
 130:	00130113          	addi	sp,t1,1
 134:	1500                	addi	s0,sp,672
 136:	828a                	mv	t0,sp
 138:	0001                	nop
 13a:	1802                	slli	a6,a6,0x20
 13c:	4291                	li	t0,4
 13e:	0018                	0x18
/home/one/xv6-labs-2020/user/sh.c:90
 140:	1600                	addi	s0,sp,800
 142:	8289                	srli	a3,a3,0x2
 144:	0101                	addi	sp,sp,0
 146:	0111                	addi	sp,sp,4
 148:	1331                	addi	t1,t1,-20
/home/one/xv6-labs-2020/user/sh.c:87
 14a:	0000                	unimp
 14c:	03000517          	auipc	a0,0x3000
 150:	3a0e                	fld	fs4,224(sp)
 152:	39053b0b          	0x39053b0b
 156:	0213490b          	0x213490b
 15a:	18000017          	auipc	zero,0x18000
/home/one/xv6-labs-2020/user/sh.c:88
 15e:	012e                	slli	sp,sp,0xb
 160:	0e03193f 0b3b0b3a 	0xb3b0b3a0e03193f
/home/one/xv6-labs-2020/user/sh.c:95
 168:	0b39                	addi	s6,s6,14
 16a:	13491927          	0x13491927
 16e:	0111                	addi	sp,sp,4
 170:	0712                	slli	a4,a4,0x4
/home/one/xv6-labs-2020/user/sh.c:97
 172:	1840                	addi	s0,sp,52
 174:	01194297          	auipc	t0,0x1194
 178:	19000013          	li	zero,400
/home/one/xv6-labs-2020/user/sh.c:98
 17c:	0005                	c.nop	1
 17e:	0b3a0e03          	lb	t3,179(s4)
 182:	0b390b3b          	0xb390b3b
/home/one/xv6-labs-2020/user/sh.c:96
 186:	1349                	addi	t1,t1,-14
 188:	1702                	slli	a4,a4,0x20
 18a:	0000                	unimp
 18c:	341a                	fld	fs0,416(sp)
 18e:	0300                	addi	s0,sp,384
/home/one/xv6-labs-2020/user/sh.c:103
 190:	3a08                	fld	fa0,48(a2)
 192:	390b3b0b          	0x390b3b0b
 196:	0213490b          	0x213490b
 19a:	1b000017          	auipc	zero,0x1b000
 19e:	0005                	c.nop	1
/home/one/xv6-labs-2020/user/sh.c:105
 1a0:	0b3a0803          	lb	a6,179(s4)
 1a4:	0b390b3b          	0xb390b3b
 1a8:	1349                	addi	t1,t1,-14
/home/one/xv6-labs-2020/user/sh.c:112
 1aa:	1702                	slli	a4,a4,0x20
 1ac:	0000                	unimp
 1ae:	2e1c                	fld	fa5,24(a2)
 1b0:	3f01                	addiw	t5,t5,-32
 1b2:	0319                	addi	t1,t1,6
/home/one/xv6-labs-2020/user/sh.c:119
 1b4:	3a0e                	fld	fs4,224(sp)
 1b6:	390b3b0b          	0x390b3b0b
 1ba:	1119270b          	0x1119270b
 1be:	1201                	addi	tp,tp,-32
/home/one/xv6-labs-2020/user/sh.c:120
 1c0:	97184007          	flq	ft0,-1679(a6) # fffffffffffe1971 <__global_pointer$+0xfffffffffffdfd09>
 1c4:	1942                	slli	s2,s2,0x30
 1c6:	1301                	addi	t1,t1,-32
 1c8:	0000                	unimp
 1ca:	341d                	addiw	s0,s0,-25
/home/one/xv6-labs-2020/user/sh.c:121
 1cc:	0300                	addi	s0,sp,384
 1ce:	3a08                	fld	fa0,48(a2)
 1d0:	390b3b0b          	0x390b3b0b
 1d4:	0213490b          	0x213490b
/home/one/xv6-labs-2020/user/sh.c:122
 1d8:	0018                	0x18
 1da:	1e00                	addi	s0,sp,816
 1dc:	0034                	addi	a3,sp,8
 1de:	0b3a0e03          	lb	t3,179(s4)
/home/one/xv6-labs-2020/user/sh.c:104
 1e2:	0b390b3b          	0xb390b3b
 1e6:	1349                	addi	t1,t1,-14
 1e8:	1802                	slli	a6,a6,0x20
 1ea:	0000                	unimp
 1ec:	341f 0300 3a0e      	0x3a0e0300341f
/home/one/xv6-labs-2020/user/sh.c:106
 1f2:	390b3b0b          	0x390b3b0b
 1f6:	0213490b          	0x213490b
 1fa:	20000017          	auipc	zero,0x20000
/home/one/xv6-labs-2020/user/sh.c:107
 1fe:	002e                	c.slli	zero,0xb
 200:	193c193f 0e030e6e 	0xe030e6e193c193f
/home/one/xv6-labs-2020/user/sh.c:108
 208:	0b3a                	slli	s6,s6,0xe
 20a:	0b390b3b          	0xb390b3b
 20e:	0000                	unimp
 210:	2e21                	addiw	t3,t3,8
 212:	3f00                	fld	fs0,56(a4)
/home/one/xv6-labs-2020/user/sh.c:109
 214:	3c19                	addiw	s8,s8,-26
 216:	6e19                	lui	t3,0x6
 218:	0308                	addi	a0,sp,384
 21a:	3a08                	fld	fa0,48(a2)
 21c:	390b3b0b          	0x390b3b0b
/home/one/xv6-labs-2020/user/sh.c:110
 220:	0000000b          	0xb
 224:	1101                	addi	sp,sp,-32
 226:	2501                	sext.w	a0,a0
 228:	130e                	slli	t1,t1,0x23
/home/one/xv6-labs-2020/user/sh.c:113
 22a:	1b0e030b          	0x1b0e030b
 22e:	110e                	slli	sp,sp,0x23
 230:	1201                	addi	tp,tp,-32
/home/one/xv6-labs-2020/user/sh.c:114
 232:	00171007          	0x171007
 236:	0200                	addi	s0,sp,256
 238:	0016                	c.slli	zero,0x5
 23a:	0b3a0e03          	lb	t3,179(s4)
/home/one/xv6-labs-2020/user/sh.c:115
 23e:	0b390b3b          	0xb390b3b
 242:	1349                	addi	t1,t1,-14
 244:	0000                	unimp
 246:	0b002403          	lw	s0,176(zero) # b0 <runcmd+0x8>
/home/one/xv6-labs-2020/user/sh.c:116
 24a:	030b3e0b          	0x30b3e0b
 24e:	000e                	c.slli	zero,0x3
 250:	0400                	addi	s0,sp,512
 252:	0e030113          	addi	sp,t1,224
/home/one/xv6-labs-2020/user/sh.c:117
 256:	0b3a0b0b          	0xb3a0b0b
 25a:	0b390b3b          	0xb390b3b
 25e:	1301                	addi	t1,t1,-32
/home/one/xv6-labs-2020/user/sh.c:127
 260:	0000                	unimp
 262:	0d05                	addi	s10,s10,1
 264:	0300                	addi	s0,sp,384
 266:	3a08                	fld	fa0,48(a2)
 268:	390b3b0b          	0x390b3b0b
/home/one/xv6-labs-2020/user/sh.c:128
 26c:	3813490b          	0x3813490b
 270:	0600000b          	0x600000b
 274:	000d                	c.nop	3
execcmd():
/home/one/xv6-labs-2020/user/sh.c:198
 276:	0b3a0e03          	lb	t3,179(s4)
 27a:	0b390b3b          	0xb390b3b
 27e:	1349                	addi	t1,t1,-14
/home/one/xv6-labs-2020/user/sh.c:201
 280:	0b38                	addi	a4,sp,408
 282:	0000                	unimp
 284:	0b002407          	flw	fs0,176(zero) # b0 <runcmd+0x8>
 288:	030b3e0b          	0x30b3e0b
 28c:	0008                	0x8
/home/one/xv6-labs-2020/user/sh.c:202
 28e:	0800                	addi	s0,sp,16
 290:	012e                	slli	sp,sp,0xb
 292:	0e03193f 0b3b0b3a 	0xb3b0b3a0e03193f
 29a:	0b39                	addi	s6,s6,14
/home/one/xv6-labs-2020/user/sh.c:203
 29c:	13491927          	0x13491927
/home/one/xv6-labs-2020/user/sh.c:205
 2a0:	0111                	addi	sp,sp,4
 2a2:	0712                	slli	a4,a4,0x4
 2a4:	1840                	addi	s0,sp,52
 2a6:	01194297          	auipc	t0,0x1194
 2aa:	09000013          	li	zero,144
redircmd():
/home/one/xv6-labs-2020/user/sh.c:209
 2ae:	0005                	c.nop	1
 2b0:	0b3a0803          	lb	a6,179(s4)
 2b4:	0b390b3b          	0xb390b3b
 2b8:	1349                	addi	t1,t1,-14
 2ba:	1702                	slli	a4,a4,0x20
 2bc:	0000                	unimp
 2be:	890a                	mv	s2,sp
 2c0:	0182                	c.slli64	gp
 2c2:	1101                	addi	sp,sp,-32
 2c4:	3101                	addiw	sp,sp,-32
 2c6:	0b000013          	li	zero,176
/home/one/xv6-labs-2020/user/sh.c:212
 2ca:	828a                	mv	t0,sp
 2cc:	0001                	nop
 2ce:	1802                	slli	a6,a6,0x20
 2d0:	4291                	li	t0,4
 2d2:	0018                	0x18
 2d4:	0c00                	addi	s0,sp,528
 2d6:	0b0b000f          	0xb0b000f
/home/one/xv6-labs-2020/user/sh.c:213
 2da:	0000                	unimp
 2dc:	0f0d                	addi	t5,t5,3
 2de:	0b00                	addi	s0,sp,400
 2e0:	0013490b          	0x13490b
 2e4:	0e00                	addi	s0,sp,784
/home/one/xv6-labs-2020/user/sh.c:214
 2e6:	0026                	c.slli	zero,0x9
 2e8:	0000                	unimp
/home/one/xv6-labs-2020/user/sh.c:215
 2ea:	0300340f          	0x300340f
/home/one/xv6-labs-2020/user/sh.c:216
 2ee:	3a08                	fld	fa0,48(a2)
 2f0:	390b3b0b          	0x390b3b0b
/home/one/xv6-labs-2020/user/sh.c:217
 2f4:	0213490b          	0x213490b
/home/one/xv6-labs-2020/user/sh.c:218
 2f8:	10000017          	auipc	zero,0x10000
/home/one/xv6-labs-2020/user/sh.c:219
 2fc:	0034                	addi	a3,sp,8
/home/one/xv6-labs-2020/user/sh.c:221
 2fe:	0b3a0803          	lb	a6,179(s4)
 302:	0b390b3b          	0xb390b3b
 306:	1349                	addi	t1,t1,-14
 308:	1802                	slli	a6,a6,0x20
 30a:	0000                	unimp
 30c:	2611                	addiw	a2,a2,4
 30e:	4900                	lw	s0,16(a0)
 310:	12000013          	li	zero,288
pipecmd():
/home/one/xv6-labs-2020/user/sh.c:225
 314:	0005                	c.nop	1
 316:	0b3a0e03          	lb	t3,179(s4)
 31a:	0b390b3b          	0xb390b3b
 31e:	1349                	addi	t1,t1,-14
 320:	1802                	slli	a6,a6,0x20
 322:	0000                	unimp
 324:	03000513          	li	a0,48
/home/one/xv6-labs-2020/user/sh.c:228
 328:	3a0e                	fld	fs4,224(sp)
 32a:	390b3b0b          	0x390b3b0b
 32e:	0213490b          	0x213490b
/home/one/xv6-labs-2020/user/sh.c:229
 332:	14000017          	auipc	zero,0x14000
 336:	8289                	srli	a3,a3,0x2
 338:	0101                	addi	sp,sp,0
 33a:	0111                	addi	sp,sp,4
 33c:	1331                	addi	t1,t1,-20
/home/one/xv6-labs-2020/user/sh.c:230
 33e:	1301                	addi	t1,t1,-32
 340:	0000                	unimp
/home/one/xv6-labs-2020/user/sh.c:231
 342:	0515                	addi	a0,a0,5
 344:	0300                	addi	s0,sp,384
/home/one/xv6-labs-2020/user/sh.c:232
 346:	3a08                	fld	fa0,48(a2)
 348:	390b3b0b          	0x390b3b0b
/home/one/xv6-labs-2020/user/sh.c:234
 34c:	0213490b          	0x213490b
 350:	0018                	0x18
 352:	1600                	addi	s0,sp,800
 354:	0034                	addi	a3,sp,8
 356:	0b3a0e03          	lb	t3,179(s4)
listcmd():
/home/one/xv6-labs-2020/user/sh.c:238
 35a:	0b390b3b          	0xb390b3b
 35e:	1349                	addi	t1,t1,-14
 360:	1802                	slli	a6,a6,0x20
 362:	0000                	unimp
 364:	3f002e17          	auipc	t3,0x3f002
 368:	3c19                	addiw	s8,s8,-26
 36a:	6e19                	lui	t3,0x6
/home/one/xv6-labs-2020/user/sh.c:241
 36c:	030e                	slli	t1,t1,0x3
 36e:	3a0e                	fld	fs4,224(sp)
 370:	390b3b0b          	0x390b3b0b
 374:	0000000b          	0xb
/home/one/xv6-labs-2020/user/sh.c:242
 378:	1101                	addi	sp,sp,-32
 37a:	1000                	addi	s0,sp,32
 37c:	1106                	slli	sp,sp,0x21
 37e:	1201                	addi	tp,tp,-32
 380:	0301                	addi	t1,t1,0
 382:	1b0e                	slli	s6,s6,0x23
/home/one/xv6-labs-2020/user/sh.c:243
 384:	250e                	fld	fa0,192(sp)
 386:	130e                	slli	t1,t1,0x23
/home/one/xv6-labs-2020/user/sh.c:244
 388:	0005                	c.nop	1
 38a:	0000                	unimp
/home/one/xv6-labs-2020/user/sh.c:245
 38c:	1101                	addi	sp,sp,-32
 38e:	2501                	sext.w	a0,a0
/home/one/xv6-labs-2020/user/sh.c:247
 390:	130e                	slli	t1,t1,0x23
 392:	1b0e030b          	0x1b0e030b
 396:	110e                	slli	sp,sp,0x23
 398:	1201                	addi	tp,tp,-32
 39a:	00171007          	0x171007
 39e:	0200                	addi	s0,sp,256
backcmd():
/home/one/xv6-labs-2020/user/sh.c:251
 3a0:	0024                	addi	s1,sp,8
 3a2:	0b3e0b0b          	0xb3e0b0b
 3a6:	00000e03          	lb	t3,0(zero) # 0 <getcmd>
 3aa:	03001603          	lh	a2,48(zero) # 30 <getcmd+0x30>
/home/one/xv6-labs-2020/user/sh.c:254
 3ae:	3a0e                	fld	fs4,224(sp)
 3b0:	390b3b0b          	0x390b3b0b
 3b4:	0013490b          	0x13490b
 3b8:	0400                	addi	s0,sp,512
/home/one/xv6-labs-2020/user/sh.c:255
 3ba:	0024                	addi	s1,sp,8
 3bc:	0b3e0b0b          	0xb3e0b0b
 3c0:	00000803          	lb	a6,0(zero) # 0 <getcmd>
 3c4:	0f05                	addi	t5,t5,1
/home/one/xv6-labs-2020/user/sh.c:256
 3c6:	0b00                	addi	s0,sp,400
 3c8:	000e030b          	0xe030b
/home/one/xv6-labs-2020/user/sh.c:257
 3cc:	0600                	addi	s0,sp,768
/home/one/xv6-labs-2020/user/sh.c:259
 3ce:	0101                	addi	sp,sp,0
 3d0:	1349                	addi	t1,t1,-14
 3d2:	1301                	addi	t1,t1,-32
 3d4:	0000                	unimp
 3d6:	49002107          	flw	ft2,1168(zero) # 490 <gettoken+0xb4>
 3da:	000b2f13          	slti	t5,s6,0
gettoken():
/home/one/xv6-labs-2020/user/sh.c:268
 3de:	0800                	addi	s0,sp,16
 3e0:	0026                	c.slli	zero,0x9
 3e2:	1349                	addi	t1,t1,-14
 3e4:	0000                	unimp
 3e6:	3409                	addiw	s0,s0,-30
 3e8:	0300                	addi	s0,sp,384
 3ea:	3a0e                	fld	fs4,224(sp)
 3ec:	390b3b0b          	0x390b3b0b
 3f0:	0213490b          	0x213490b
 3f4:	0018                	0x18
 3f6:	0a00                	addi	s0,sp,272
/home/one/xv6-labs-2020/user/sh.c:272
 3f8:	012e                	slli	sp,sp,0xb
/home/one/xv6-labs-2020/user/sh.c:273
 3fa:	0e03193f 0b3b0b3a 	0xb3b0b3a0e03193f
 402:	0b39                	addi	s6,s6,14
 404:	01111927          	0x1111927
/home/one/xv6-labs-2020/user/sh.c:273 (discriminator 1)
 408:	0712                	slli	a4,a4,0x4
 40a:	1840                	addi	s0,sp,52
 40c:	01194297          	auipc	t0,0x1194
 410:	0b000013          	li	zero,176
 414:	0005                	c.nop	1
/home/one/xv6-labs-2020/user/sh.c:274
 416:	0b3a0803          	lb	a6,179(s4)
/home/one/xv6-labs-2020/user/sh.c:273
 41a:	0b390b3b          	0xb390b3b
/home/one/xv6-labs-2020/user/sh.c:275
 41e:	1349                	addi	t1,t1,-14
/home/one/xv6-labs-2020/user/sh.c:276
 420:	1702                	slli	a4,a4,0x20
 422:	0000                	unimp
/home/one/xv6-labs-2020/user/sh.c:277
 424:	180c                	addi	a1,sp,48
 426:	0000                	unimp
 428:	0d00                	addi	s0,sp,656
 42a:	0034                	addi	a3,sp,8
/home/one/xv6-labs-2020/user/sh.c:278
 42c:	0b3a0803          	lb	a6,179(s4)
 430:	0b390b3b          	0xb390b3b
 434:	1349                	addi	t1,t1,-14
 436:	1802                	slli	a6,a6,0x20
 438:	0000                	unimp
 43a:	890e                	mv	s2,gp
 43c:	0182                	c.slli64	gp
/home/one/xv6-labs-2020/user/sh.c:302
 43e:	1101                	addi	sp,sp,-32
 440:	3101                	addiw	sp,sp,-32
/home/one/xv6-labs-2020/user/sh.c:303
 442:	0f000013          	li	zero,240
/home/one/xv6-labs-2020/user/sh.c:305
 446:	828a                	mv	t0,sp
 448:	0001                	nop
 44a:	1802                	slli	a6,a6,0x20
 44c:	4291                	li	t0,4
 44e:	0018                	0x18
 450:	1000                	addi	s0,sp,32
/home/one/xv6-labs-2020/user/sh.c:305 (discriminator 1)
 452:	0b0b000f          	0xb0b000f
 456:	1349                	addi	t1,t1,-14
 458:	0000                	unimp
 45a:	3411                	addiw	s0,s0,-28
 45c:	0300                	addi	s0,sp,384
 45e:	3a08                	fld	fa0,48(a2)
 460:	390b3b0b          	0x390b3b0b
/home/one/xv6-labs-2020/user/sh.c:305
 464:	0213490b          	0x213490b
/home/one/xv6-labs-2020/user/sh.c:307
 468:	12000017          	auipc	zero,0x12000
/home/one/xv6-labs-2020/user/sh.c:309
 46c:	0034                	addi	a3,sp,8
 46e:	0b3a0e03          	lb	t3,179(s4)
 472:	0b390b3b          	0xb390b3b
 476:	1349                	addi	t1,t1,-14
 478:	1702                	slli	a4,a4,0x20
 47a:	0000                	unimp
 47c:	31011d13          	0x31011d13
 480:	55015213          	0x55015213
/home/one/xv6-labs-2020/user/sh.c:278
 484:	590b5817          	auipc	a6,0x590b5
 488:	010b570b          	0x10b570b
/home/one/xv6-labs-2020/user/sh.c:298
 48c:	14000013          	li	zero,320
 490:	0005                	c.nop	1
 492:	1331                	addi	t1,t1,-20
 494:	1702                	slli	a4,a4,0x20
 496:	0000                	unimp
 498:	0b15                	addi	s6,s6,5
 49a:	5501                	li	a0,-32
 49c:	16000017          	auipc	zero,0x16000
/home/one/xv6-labs-2020/user/sh.c:298 (discriminator 1)
 4a0:	0034                	addi	a3,sp,8
 4a2:	1331                	addi	t1,t1,-20
 4a4:	1702                	slli	a4,a4,0x20
 4a6:	0000                	unimp
 4a8:	01828917          	auipc	s2,0x1828
 4ac:	1101                	addi	sp,sp,-32
/home/one/xv6-labs-2020/user/sh.c:298 (discriminator 2)
 4ae:	3101                	addiw	sp,sp,-32
 4b0:	00130113          	addi	sp,t1,1
 4b4:	1800                	addi	s0,sp,48
 4b6:	012e                	slli	sp,sp,0xb
 4b8:	0b3a0e03          	lb	t3,179(s4)
 4bc:	0b390b3b          	0xb390b3b
/home/one/xv6-labs-2020/user/sh.c:298
 4c0:	0b201927          	0xb201927
/home/one/xv6-labs-2020/user/sh.c:302
 4c4:	1301                	addi	t1,t1,-32
 4c6:	0000                	unimp
 4c8:	0519                	addi	a0,a0,6
 4ca:	0300                	addi	s0,sp,384
 4cc:	3a08                	fld	fa0,48(a2)
/home/one/xv6-labs-2020/user/sh.c:278
 4ce:	390b3b0b          	0x390b3b0b
 4d2:	0013490b          	0x13490b
 4d6:	1a00                	addi	s0,sp,304
 4d8:	0034                	addi	a3,sp,8
 4da:	0b3a0803          	lb	a6,179(s4)
 4de:	0b390b3b          	0xb390b3b
 4e2:	1349                	addi	t1,t1,-14
 4e4:	0000                	unimp
 4e6:	03012e1b          	0x3012e1b
/home/one/xv6-labs-2020/user/sh.c:288
 4ea:	3a0e                	fld	fs4,224(sp)
/home/one/xv6-labs-2020/user/sh.c:278
 4ec:	390b3b0b          	0x390b3b0b
 4f0:	1119270b          	0x1119270b
 4f4:	1201                	addi	tp,tp,-32
/home/one/xv6-labs-2020/user/sh.c:290
 4f6:	97184007          	flq	ft0,-1679(a6) # 590b4df5 <__global_pointer$+0x590b318d>
/home/one/xv6-labs-2020/user/sh.c:291
 4fa:	1942                	slli	s2,s2,0x30
 4fc:	1301                	addi	t1,t1,-32
 4fe:	0000                	unimp
 500:	051c                	addi	a5,sp,640
/home/one/xv6-labs-2020/user/sh.c:293
 502:	0300                	addi	s0,sp,384
/home/one/xv6-labs-2020/user/sh.c:292
 504:	3a0e                	fld	fs4,224(sp)
 506:	390b3b0b          	0x390b3b0b
/home/one/xv6-labs-2020/user/sh.c:291
 50a:	0213490b          	0x213490b
/home/one/xv6-labs-2020/user/sh.c:277
 50e:	1d000017          	auipc	zero,0x1d000
 512:	002e                	c.slli	zero,0xb
/home/one/xv6-labs-2020/user/sh.c:297
 514:	193c193f 0e030e6e 	0xe030e6e193c193f
 51c:	0b3a                	slli	s6,s6,0xe
 51e:	0b390b3b          	0xb390b3b
peek():
/home/one/xv6-labs-2020/user/sh.c:313
 522:	0000                	unimp
 524:	0100                	addi	s0,sp,128
 526:	0111                	addi	sp,sp,4
 528:	0e25                	addi	t3,t3,9
 52a:	0e030b13          	addi	s6,t1,224
 52e:	01110e1b          	addiw	t3,sp,17
 532:	0712                	slli	a4,a4,0x4
 534:	1710                	addi	a2,sp,928
 536:	0000                	unimp
/home/one/xv6-labs-2020/user/sh.c:316
 538:	1602                	slli	a2,a2,0x20
/home/one/xv6-labs-2020/user/sh.c:317
 53a:	0300                	addi	s0,sp,384
 53c:	3a0e                	fld	fs4,224(sp)
 53e:	390b3b0b          	0x390b3b0b
 542:	0013490b          	0x13490b
/home/one/xv6-labs-2020/user/sh.c:317 (discriminator 1)
 546:	0300                	addi	s0,sp,384
 548:	0024                	addi	s1,sp,8
 54a:	0b3e0b0b          	0xb3e0b0b
 54e:	00000e03          	lb	t3,0(zero) # 0 <getcmd>
 552:	2404                	fld	fs1,8(s0)
 554:	0b00                	addi	s0,sp,400
/home/one/xv6-labs-2020/user/sh.c:318
 556:	030b3e0b          	0x30b3e0b
/home/one/xv6-labs-2020/user/sh.c:317
 55a:	0008                	0x8
/home/one/xv6-labs-2020/user/sh.c:319
 55c:	0500                	addi	s0,sp,640
 55e:	0b0b0113          	addi	sp,s6,176
/home/one/xv6-labs-2020/user/sh.c:320
 562:	0b3a                	slli	s6,s6,0xe
 564:	0b390b3b          	0xb390b3b
/home/one/xv6-labs-2020/user/sh.c:321 (discriminator 6)
 568:	1301                	addi	t1,t1,-32
 56a:	0000                	unimp
 56c:	0d06                	slli	s10,s10,0x1
 56e:	0300                	addi	s0,sp,384
 570:	3a08                	fld	fa0,48(a2)
 572:	390b3b0b          	0x390b3b0b
 576:	3813490b          	0x3813490b
/home/one/xv6-labs-2020/user/sh.c:320 (discriminator 1)
 57a:	0700000b          	0x700000b
 57e:	000d                	c.nop	3
 580:	0b3a0e03          	lb	t3,179(s4)
 584:	0b390b3b          	0xb390b3b
 588:	1349                	addi	t1,t1,-14
parseredirs():
/home/one/xv6-labs-2020/user/sh.c:377
 58a:	0b38                	addi	a4,sp,408
 58c:	0000                	unimp
 58e:	1708                	addi	a0,sp,928
 590:	0301                	addi	t1,t1,0
 592:	0b0e                	slli	s6,s6,0x3
 594:	3b0b3a0b          	0x3b0b3a0b
 598:	010b390b          	0x10b390b
 59c:	09000013          	li	zero,144
 5a0:	000d                	c.nop	3
 5a2:	0b3a0803          	lb	a6,179(s4)
 5a6:	0b390b3b          	0xb390b3b
/home/one/xv6-labs-2020/user/sh.c:381
 5aa:	1349                	addi	t1,t1,-14
 5ac:	0000                	unimp
 5ae:	0f0a                	slli	t5,t5,0x2
 5b0:	0b00                	addi	s0,sp,400
/home/one/xv6-labs-2020/user/sh.c:383
 5b2:	0013490b          	0x13490b
/home/one/xv6-labs-2020/user/sh.c:385
 5b6:	0b00                	addi	s0,sp,400
 5b8:	0034                	addi	a3,sp,8
/home/one/xv6-labs-2020/user/sh.c:381
 5ba:	0b3a0e03          	lb	t3,179(s4)
/home/one/xv6-labs-2020/user/sh.c:384
 5be:	0b390b3b          	0xb390b3b
 5c2:	1349                	addi	t1,t1,-14
 5c4:	1802                	slli	a6,a6,0x20
 5c6:	0000                	unimp
 5c8:	2e0c                	fld	fa1,24(a2)
 5ca:	3f01                	addiw	t5,t5,-32
/home/one/xv6-labs-2020/user/sh.c:387
 5cc:	0319                	addi	t1,t1,6
 5ce:	3a0e                	fld	fs4,224(sp)
 5d0:	390b3b0b          	0x390b3b0b
 5d4:	4919270b          	0x4919270b
 5d8:	12011113          	0x12011113
 5dc:	97184007          	flq	ft0,-1679(a6)
 5e0:	1942                	slli	s2,s2,0x30
 5e2:	1301                	addi	t1,t1,-32
/home/one/xv6-labs-2020/user/sh.c:385
 5e4:	0000                	unimp
 5e6:	050d                	addi	a0,a0,3
 5e8:	0300                	addi	s0,sp,384
 5ea:	3a0e                	fld	fs4,224(sp)
/home/one/xv6-labs-2020/user/sh.c:381
 5ec:	390b3b0b          	0x390b3b0b
 5f0:	0213490b          	0x213490b
 5f4:	0e000017          	auipc	zero,0xe000
 5f8:	0034                	addi	a3,sp,8
 5fa:	0b3a0803          	lb	a6,179(s4)
/home/one/xv6-labs-2020/user/sh.c:382
 5fe:	0b390b3b          	0xb390b3b
 602:	1349                	addi	t1,t1,-14
 604:	1702                	slli	a4,a4,0x20
 606:	0000                	unimp
 608:	0300340f          	0x300340f
 60c:	3a0e                	fld	fs4,224(sp)
/home/one/xv6-labs-2020/user/sh.c:383
 60e:	390b3b0b          	0x390b3b0b
 612:	0213490b          	0x213490b
 616:	10000017          	auipc	zero,0x10000
 61a:	011d                	addi	sp,sp,7
 61c:	1331                	addi	t1,t1,-20
 61e:	0152                	slli	sp,sp,0x14
 620:	1755                	addi	a4,a4,-11
 622:	0b58                	addi	a4,sp,404
 624:	0b59                	addi	s6,s6,22
/home/one/xv6-labs-2020/user/sh.c:385
 626:	00000b57          	0xb57
 62a:	0511                	addi	a0,a0,4
 62c:	3100                	fld	fs0,32(a0)
 62e:	00170213          	addi	tp,a4,1
/home/one/xv6-labs-2020/user/sh.c:393
 632:	1200                	addi	s0,sp,288
 634:	1755010b          	0x1755010b
 638:	0000                	unimp
 63a:	31003413          	sltiu	s0,zero,784
 63e:	00170213          	addi	tp,a4,1
 642:	1400                	addi	s0,sp,544
 644:	8289                	srli	a3,a3,0x2
 646:	0001                	nop
 648:	0111                	addi	sp,sp,4
 64a:	1331                	addi	t1,t1,-20
/home/one/xv6-labs-2020/user/sh.c:394
 64c:	0000                	unimp
/home/one/xv6-labs-2020/user/sh.c:390
 64e:	8915                	andi	a0,a0,5
 650:	0182                	c.slli64	gp
 652:	1101                	addi	sp,sp,-32
 654:	3101                	addiw	sp,sp,-32
 656:	16000013          	li	zero,352
 65a:	828a                	mv	t0,sp
 65c:	0001                	nop
 65e:	1802                	slli	a6,a6,0x20
 660:	4291                	li	t0,4
 662:	0018                	0x18
 664:	1700                	addi	s0,sp,928
 666:	0b0b000f          	0xb0b000f
/home/one/xv6-labs-2020/user/sh.c:398
 66a:	0000                	unimp
 66c:	2e18                	fld	fa4,24(a2)
 66e:	0301                	addi	t1,t1,0
 670:	3a0e                	fld	fs4,224(sp)
 672:	390b3b0b          	0x390b3b0b
 676:	4919270b          	0x4919270b
 67a:	010b2013          	slti	zero,s6,16
 67e:	19000013          	li	zero,400
 682:	0005                	c.nop	1
 684:	0b3a0803          	lb	a6,179(s4)
parseexec():
/home/one/xv6-labs-2020/user/sh.c:418
 688:	0b390b3b          	0xb390b3b
 68c:	1349                	addi	t1,t1,-14
 68e:	0000                	unimp
 690:	341a                	fld	fs0,416(sp)
 692:	0300                	addi	s0,sp,384
 694:	3a08                	fld	fa0,48(a2)
 696:	390b3b0b          	0x390b3b0b
 69a:	0013490b          	0x13490b
 69e:	1b00                	addi	s0,sp,432
 6a0:	012e                	slli	sp,sp,0xb
 6a2:	0e03193f 0b3b0b3a 	0xb3b0b3a0e03193f
/home/one/xv6-labs-2020/user/sh.c:424
 6aa:	0b39                	addi	s6,s6,14
 6ac:	01111927          	0x1111927
 6b0:	0712                	slli	a4,a4,0x4
 6b2:	1840                	addi	s0,sp,52
 6b4:	01194297          	auipc	t0,0x1194
/home/one/xv6-labs-2020/user/sh.c:427
 6b8:	1c000013          	li	zero,448
 6bc:	0005                	c.nop	1
 6be:	0b3a0803          	lb	a6,179(s4)
/home/one/xv6-labs-2020/user/sh.c:431
 6c2:	0b390b3b          	0xb390b3b
 6c6:	1349                	addi	t1,t1,-14
 6c8:	1802                	slli	a6,a6,0x20
 6ca:	0000                	unimp
 6cc:	341d                	addiw	s0,s0,-25
 6ce:	0300                	addi	s0,sp,384
/home/one/xv6-labs-2020/user/sh.c:432
 6d0:	3a08                	fld	fa0,48(a2)
 6d2:	390b3b0b          	0x390b3b0b
 6d6:	0213490b          	0x213490b
 6da:	0018                	0x18
/home/one/xv6-labs-2020/user/sh.c:435
 6dc:	1e00                	addi	s0,sp,816
 6de:	002e                	c.slli	zero,0xb
/home/one/xv6-labs-2020/user/sh.c:440
 6e0:	193c193f 0e030e6e 	0xe030e6e193c193f
/home/one/xv6-labs-2020/user/sh.c:425
 6e8:	0b3a                	slli	s6,s6,0xe
 6ea:	0b390b3b          	0xb390b3b
 6ee:	0000                	unimp
	...

Disassembly of section .debug_line:

0000000000000000 <.debug_line>:
getcmd():
/home/one/xv6-labs-2020/user/sh.c:136
       0:	0e95                	addi	t4,t4,5
       2:	0000                	unimp
       4:	00310003          	lb	zero,3(sp)
       8:	0000                	unimp
       a:	0101                	addi	sp,sp,0
       c:	000d0efb          	0xd0efb
/home/one/xv6-labs-2020/user/sh.c:137
      10:	0101                	addi	sp,sp,0
      12:	0101                	addi	sp,sp,0
      14:	0000                	unimp
      16:	0100                	addi	s0,sp,128
      18:	0000                	unimp
      1a:	7501                	lui	a0,0xfffe0
      1c:	00726573          	csrrsi	a0,0x7,4
      20:	2f2e                	fld	ft10,200(sp)
/home/one/xv6-labs-2020/user/sh.c:138
      22:	7375                	lui	t1,0xffffd
      24:	7265                	lui	tp,0xffff9
      26:	0000                	unimp
      28:	632e6873          	csrrsi	a6,0x632,28
      2c:	0100                	addi	s0,sp,128
      2e:	0000                	unimp
/home/one/xv6-labs-2020/user/sh.c:139
      30:	7375                	lui	t1,0xffffd
      32:	7265                	lui	tp,0xffff9
      34:	682e                	ld	a6,200(sp)
      36:	0200                	addi	s0,sp,256
      38:	0000                	unimp
      3a:	0500                	addi	s0,sp,640
/home/one/xv6-labs-2020/user/sh.c:140
      3c:	0001                	nop
      3e:	0209                	addi	tp,tp,2
	...
/home/one/xv6-labs-2020/user/sh.c:143
      48:	01018703          	lb	a4,16(gp) # 1c78 <__global_pointer$+0x10>
      4c:	0305                	addi	t1,t1,1
      4e:	10090103          	lb	sp,256(s2) # 18285a8 <__global_pointer$+0x1826940>
      52:	0100                	addi	s0,sp,128
panic():
/home/one/xv6-labs-2020/user/sh.c:177
      54:	12090103          	lb	sp,288(s2)
      58:	0100                	addi	s0,sp,128
      5a:	0e090103          	lb	sp,224(s2)
/home/one/xv6-labs-2020/user/sh.c:178
      5e:	0100                	addi	s0,sp,128
      60:	0c090103          	lb	sp,192(s2)
      64:	0100                	addi	s0,sp,128
      66:	0505                	addi	a0,a0,1
      68:	0306                	slli	t1,t1,0x1
      6a:	0900                	addi	s0,sp,144
      6c:	0000                	unimp
      6e:	0501                	addi	a0,a0,0
/home/one/xv6-labs-2020/user/sh.c:179
      70:	0301                	addi	t1,t1,0
      72:	00080903          	lb	s2,0(a6)
      76:	0601                	addi	a2,a2,0
      78:	10092203          	lw	tp,256(s2)
fork1():
/home/one/xv6-labs-2020/user/sh.c:184
      7c:	0100                	addi	s0,sp,128
      7e:	0305                	addi	t1,t1,1
      80:	08090103          	lb	sp,128(s2)
/home/one/xv6-labs-2020/user/sh.c:187
      84:	0100                	addi	s0,sp,128
      86:	14090103          	lb	sp,320(s2)
/home/one/xv6-labs-2020/user/sh.c:188
      8a:	0100                	addi	s0,sp,128
      8c:	0105                	addi	sp,sp,1
      8e:	0a090503          	lb	a0,160(s2)
/home/one/xv6-labs-2020/user/sh.c:191
      92:	0100                	addi	s0,sp,128
      94:	0305                	addi	t1,t1,1
      96:	08090103          	lb	sp,128(s2)
/home/one/xv6-labs-2020/user/sh.c:189
      9a:	0100                	addi	s0,sp,128
      9c:	00090203          	lb	tp,0(s2)
      a0:	0100                	addi	s0,sp,128
      a2:	0905                	addi	s2,s2,1
      a4:	0306                	slli	t1,t1,0x1
      a6:	0900                	addi	s0,sp,144
runcmd():
/home/one/xv6-labs-2020/user/sh.c:59
      a8:	0000                	unimp
      aa:	0501                	addi	a0,a0,0
      ac:	01030603          	lb	a2,16(t1) # ffffffffffffd010 <__global_pointer$+0xffffffffffffb3a8>
      b0:	0809                	addi	a6,a6,2
/home/one/xv6-labs-2020/user/sh.c:67
      b2:	0100                	addi	s0,sp,128
      b4:	0505                	addi	a0,a0,1
/home/one/xv6-labs-2020/user/sh.c:70
      b6:	0306                	slli	t1,t1,0x1
      b8:	0900                	addi	s0,sp,144
      ba:	0000                	unimp
      bc:	0501                	addi	a0,a0,0
      be:	02030603          	lb	a2,32(t1)
      c2:	0609                	addi	a2,a2,2
      c4:	0100                	addi	s0,sp,128
      c6:	0105                	addi	sp,sp,1
      c8:	0306                	slli	t1,t1,0x1
      ca:	0901                	addi	s2,s2,0
      cc:	0000                	unimp
      ce:	0501                	addi	a0,a0,0
      d0:	0605                	addi	a2,a2,1
      d2:	08097e03          	0x8097e03
/home/one/xv6-labs-2020/user/sh.c:68
      d6:	0100                	addi	s0,sp,128
      d8:	0105                	addi	sp,sp,1
      da:	097efe03          	0x97efe03
/home/one/xv6-labs-2020/user/sh.c:72
      de:	0010                	0x10
      e0:	0501                	addi	a0,a0,0
      e2:	09010303          	lb	t1,144(sp)
      e6:	000a                	c.slli	zero,0x2
      e8:	0301                	addi	t1,t1,0
      ea:	0901                	addi	s2,s2,0
      ec:	0000                	unimp
/home/one/xv6-labs-2020/user/sh.c:76
      ee:	0301                	addi	t1,t1,0
      f0:	0901                	addi	s2,s2,0
/home/one/xv6-labs-2020/user/sh.c:79
      f2:	0000                	unimp
      f4:	0301                	addi	t1,t1,0
      f6:	0901                	addi	s2,s2,0
      f8:	0000                	unimp
      fa:	0301                	addi	t1,t1,0
      fc:	0901                	addi	s2,s2,0
/home/one/xv6-labs-2020/user/sh.c:80
      fe:	0000                	unimp
     100:	0301                	addi	t1,t1,0
     102:	0901                	addi	s2,s2,0
     104:	0000                	unimp
     106:	0301                	addi	t1,t1,0
     108:	0902                	c.slli64	s2
     10a:	0000                	unimp
     10c:	0501                	addi	a0,a0,0
     10e:	0605                	addi	a2,a2,1
     110:	00090003          	lb	zero,0(s2)
/home/one/xv6-labs-2020/user/sh.c:131
     114:	0100                	addi	s0,sp,128
     116:	0305                	addi	t1,t1,1
     118:	0306                	slli	t1,t1,0x1
     11a:	00040903          	lb	s2,0(s0)
/home/one/xv6-labs-2020/user/sh.c:77
     11e:	0501                	addi	a0,a0,0
     120:	0305                	addi	t1,t1,1
     122:	097e                	slli	s2,s2,0x1f
     124:	001e                	c.slli	zero,0x7
/home/one/xv6-labs-2020/user/sh.c:85
     126:	0301                	addi	t1,t1,0
     128:	0904                	addi	s1,sp,144
     12a:	000a                	c.slli	zero,0x2
     12c:	0301                	addi	t1,t1,0
     12e:	00100903          	lb	s2,1(zero) # 1 <getcmd+0x1>
/home/one/xv6-labs-2020/user/sh.c:86
     132:	0301                	addi	t1,t1,0
     134:	0901                	addi	s2,s2,0
     136:	0000                	unimp
     138:	0501                	addi	a0,a0,0
     13a:	0612                	slli	a2,a2,0x4
     13c:	00090003          	lb	zero,0(s2)
/home/one/xv6-labs-2020/user/sh.c:90
     140:	0100                	addi	s0,sp,128
     142:	0705                	addi	a4,a4,1
     144:	02090003          	lb	zero,32(s2)
     148:	0100                	addi	s0,sp,128
/home/one/xv6-labs-2020/user/sh.c:87
     14a:	0505                	addi	a0,a0,1
     14c:	0306                	slli	t1,t1,0x1
     14e:	00020903          	lb	s2,0(tp) # ffffffffffff9000 <__global_pointer$+0xffffffffffff7398>
     152:	0301                	addi	t1,t1,0
     154:	0901                	addi	s2,s2,0
     156:	000c                	0xc
     158:	0301                	addi	t1,t1,0
     15a:	0901                	addi	s2,s2,0
     15c:	0014                	0x14
/home/one/xv6-labs-2020/user/sh.c:88
     15e:	0501                	addi	a0,a0,0
     160:	09320303          	lb	t1,147(tp) # 93 <fork1+0x19>
     164:	0000                	unimp
     166:	0501                	addi	a0,a0,0
/home/one/xv6-labs-2020/user/sh.c:95
     168:	094a0307          	0x94a0307
     16c:	000a                	c.slli	zero,0x2
     16e:	0501                	addi	a0,a0,0
     170:	0305                	addi	t1,t1,1
/home/one/xv6-labs-2020/user/sh.c:97
     172:	000a0907          	0xa0907
     176:	0301                	addi	t1,t1,0
     178:	0901                	addi	s2,s2,0
     17a:	0000                	unimp
/home/one/xv6-labs-2020/user/sh.c:98
     17c:	0301                	addi	t1,t1,0
     17e:	0901                	addi	s2,s2,0
     180:	000a                	c.slli	zero,0x2
     182:	0501                	addi	a0,a0,0
     184:	0608                	addi	a0,sp,768
/home/one/xv6-labs-2020/user/sh.c:96
     186:	00090003          	lb	zero,0(s2)
     18a:	0100                	addi	s0,sp,128
     18c:	0705                	addi	a4,a4,1
     18e:	0c090003          	lb	zero,192(s2)
/home/one/xv6-labs-2020/user/sh.c:103
     192:	0100                	addi	s0,sp,128
     194:	0505                	addi	a0,a0,1
     196:	0306                	slli	t1,t1,0x1
     198:	0904                	addi	s1,sp,144
     19a:	0004                	0x4
     19c:	0501                	addi	a0,a0,0
     19e:	097d0307          	0x97d0307
/home/one/xv6-labs-2020/user/sh.c:105
     1a2:	000a                	c.slli	zero,0x2
     1a4:	0301                	addi	t1,t1,0
     1a6:	0901                	addi	s2,s2,0
     1a8:	0014                	0x14
/home/one/xv6-labs-2020/user/sh.c:112
     1aa:	0501                	addi	a0,a0,0
     1ac:	0305                	addi	t1,t1,1
     1ae:	0906                	slli	s2,s2,0x1
     1b0:	000a                	c.slli	zero,0x2
     1b2:	0301                	addi	t1,t1,0
/home/one/xv6-labs-2020/user/sh.c:119
     1b4:	0901                	addi	s2,s2,0
     1b6:	0000                	unimp
     1b8:	0501                	addi	a0,a0,0
     1ba:	0608                	addi	a0,sp,768
     1bc:	00090003          	lb	zero,0(s2)
/home/one/xv6-labs-2020/user/sh.c:120
     1c0:	0100                	addi	s0,sp,128
     1c2:	0705                	addi	a4,a4,1
     1c4:	08090003          	lb	zero,128(s2)
     1c8:	0100                	addi	s0,sp,128
     1ca:	0505                	addi	a0,a0,1
/home/one/xv6-labs-2020/user/sh.c:121
     1cc:	0306                	slli	t1,t1,0x1
     1ce:	0902                	c.slli64	s2
     1d0:	0002                	c.slli64	zero
     1d2:	0301                	addi	t1,t1,0
     1d4:	0901                	addi	s2,s2,0
/home/one/xv6-labs-2020/user/sh.c:122
     1d6:	000a                	c.slli	zero,0x2
     1d8:	0501                	addi	a0,a0,0
     1da:	097e0307          	0x97e0307
     1de:	000a                	c.slli	zero,0x2
/home/one/xv6-labs-2020/user/sh.c:123
     1e0:	0501                	addi	a0,a0,0
/home/one/xv6-labs-2020/user/sh.c:104
     1e2:	0305                	addi	t1,t1,1
     1e4:	0906                	slli	s2,s2,0x1
     1e6:	000a                	c.slli	zero,0x2
     1e8:	0301                	addi	t1,t1,0
     1ea:	0901                	addi	s2,s2,0
     1ec:	0000                	unimp
     1ee:	0501                	addi	a0,a0,0
     1f0:	0608                	addi	a0,sp,768
/home/one/xv6-labs-2020/user/sh.c:106
     1f2:	00090003          	lb	zero,0(s2)
     1f6:	0100                	addi	s0,sp,128
     1f8:	0705                	addi	a4,a4,1
     1fa:	0c090003          	lb	zero,192(s2)
/home/one/xv6-labs-2020/user/sh.c:107
     1fe:	0100                	addi	s0,sp,128
     200:	0505                	addi	a0,a0,1
     202:	0306                	slli	t1,t1,0x1
     204:	0902                	c.slli64	s2
     206:	0004                	0x4
/home/one/xv6-labs-2020/user/sh.c:108
     208:	0501                	addi	a0,a0,0
     20a:	0608                	addi	a0,sp,768
     20c:	00090003          	lb	zero,0(s2)
     210:	0100                	addi	s0,sp,128
     212:	0705                	addi	a4,a4,1
/home/one/xv6-labs-2020/user/sh.c:109
     214:	08090003          	lb	zero,128(s2)
     218:	0100                	addi	s0,sp,128
     21a:	0505                	addi	a0,a0,1
     21c:	0306                	slli	t1,t1,0x1
     21e:	00020907          	0x20907
/home/one/xv6-labs-2020/user/sh.c:110
     222:	0501                	addi	a0,a0,0
     224:	0608                	addi	a0,sp,768
     226:	00090003          	lb	zero,0(s2)
/home/one/xv6-labs-2020/user/sh.c:113
     22a:	0100                	addi	s0,sp,128
     22c:	0705                	addi	a4,a4,1
     22e:	08090003          	lb	zero,128(s2)
/home/one/xv6-labs-2020/user/sh.c:114
     232:	0100                	addi	s0,sp,128
     234:	0505                	addi	a0,a0,1
     236:	0306                	slli	t1,t1,0x1
     238:	00020907          	0x20907
     23c:	0301                	addi	t1,t1,0
/home/one/xv6-labs-2020/user/sh.c:115
     23e:	0901                	addi	s2,s2,0
     240:	000c                	0xc
     242:	0301                	addi	t1,t1,0
     244:	0901                	addi	s2,s2,0
     246:	000c                	0xc
     248:	0301                	addi	t1,t1,0
/home/one/xv6-labs-2020/user/sh.c:116
     24a:	0901                	addi	s2,s2,0
     24c:	000a                	c.slli	zero,0x2
     24e:	0301                	addi	t1,t1,0
     250:	0901                	addi	s2,s2,0
     252:	000a                	c.slli	zero,0x2
     254:	0501                	addi	a0,a0,0
/home/one/xv6-labs-2020/user/sh.c:117
     256:	096d0307          	0x96d0307
     25a:	0002                	c.slli64	zero
     25c:	0301                	addi	t1,t1,0
     25e:	0902                	c.slli64	s2
/home/one/xv6-labs-2020/user/sh.c:127
     260:	0010                	0x10
     262:	0301                	addi	t1,t1,0
     264:	0901                	addi	s2,s2,0
     266:	000a                	c.slli	zero,0x2
     268:	0301                	addi	t1,t1,0
     26a:	0901                	addi	s2,s2,0
/home/one/xv6-labs-2020/user/sh.c:128
     26c:	000c                	0xc
     26e:	0301                	addi	t1,t1,0
     270:	0901                	addi	s2,s2,0
     272:	000c                	0xc
     274:	0301                	addi	t1,t1,0
execcmd():
/home/one/xv6-labs-2020/user/sh.c:198
     276:	0901                	addi	s2,s2,0
     278:	000c                	0xc
     27a:	0301                	addi	t1,t1,0
     27c:	000a0903          	lb	s2,0(s4)
/home/one/xv6-labs-2020/user/sh.c:201
     280:	0301                	addi	t1,t1,0
     282:	0901                	addi	s2,s2,0
     284:	0008                	0x8
     286:	0301                	addi	t1,t1,0
     288:	0901                	addi	s2,s2,0
     28a:	000c                	0xc
     28c:	0301                	addi	t1,t1,0
/home/one/xv6-labs-2020/user/sh.c:202
     28e:	0901                	addi	s2,s2,0
     290:	000c                	0xc
     292:	0301                	addi	t1,t1,0
     294:	0901                	addi	s2,s2,0
     296:	000c                	0xc
     298:	0501                	addi	a0,a0,0
     29a:	0305                	addi	t1,t1,1
/home/one/xv6-labs-2020/user/sh.c:203
     29c:	0909                	addi	s2,s2,2
     29e:	000a                	c.slli	zero,0x2
/home/one/xv6-labs-2020/user/sh.c:205
     2a0:	0301                	addi	t1,t1,0
     2a2:	0901                	addi	s2,s2,0
     2a4:	0000                	unimp
     2a6:	0501                	addi	a0,a0,0
     2a8:	0608                	addi	a0,sp,768
     2aa:	00090003          	lb	zero,0(s2)
redircmd():
/home/one/xv6-labs-2020/user/sh.c:209
     2ae:	0100                	addi	s0,sp,128
     2b0:	0705                	addi	a4,a4,1
     2b2:	08090003          	lb	zero,128(s2)
     2b6:	0100                	addi	s0,sp,128
     2b8:	0306                	slli	t1,t1,0x1
     2ba:	0901                	addi	s2,s2,0
     2bc:	0004                	0x4
     2be:	0501                	addi	a0,a0,0
     2c0:	0301                	addi	t1,t1,0
     2c2:	00c6                	slli	ra,ra,0x11
     2c4:	0a09                	addi	s4,s4,2
     2c6:	0100                	addi	s0,sp,128
     2c8:	0305                	addi	t1,t1,1
/home/one/xv6-labs-2020/user/sh.c:212
     2ca:	0a090103          	lb	sp,160(s2)
     2ce:	0100                	addi	s0,sp,128
     2d0:	00090203          	lb	tp,0(s2)
     2d4:	0100                	addi	s0,sp,128
     2d6:	0905                	addi	s2,s2,1
/home/one/xv6-labs-2020/user/sh.c:213
     2d8:	0306                	slli	t1,t1,0x1
     2da:	0900                	addi	s0,sp,144
     2dc:	0000                	unimp
     2de:	0501                	addi	a0,a0,0
     2e0:	01030603          	lb	a2,16(t1)
     2e4:	0e09                	addi	t3,t3,2
/home/one/xv6-labs-2020/user/sh.c:214
     2e6:	0100                	addi	s0,sp,128
     2e8:	0e090103          	lb	sp,224(s2)
/home/one/xv6-labs-2020/user/sh.c:215
     2ec:	0100                	addi	s0,sp,128
/home/one/xv6-labs-2020/user/sh.c:216
     2ee:	0d05                	addi	s10,s10,1
     2f0:	0306                	slli	t1,t1,0x1
/home/one/xv6-labs-2020/user/sh.c:217
     2f2:	0900                	addi	s0,sp,144
     2f4:	0000                	unimp
/home/one/xv6-labs-2020/user/sh.c:218
     2f6:	0501                	addi	a0,a0,0
     2f8:	01030603          	lb	a2,16(t1)
/home/one/xv6-labs-2020/user/sh.c:219
     2fc:	0409                	addi	s0,s0,2
/home/one/xv6-labs-2020/user/sh.c:221
     2fe:	0100                	addi	s0,sp,128
     300:	0105                	addi	sp,sp,1
     302:	0306                	slli	t1,t1,0x1
     304:	0901                	addi	s2,s2,0
     306:	0000                	unimp
     308:	0601                	addi	a2,a2,0
     30a:	0c090403          	lb	s0,192(s2)
     30e:	0100                	addi	s0,sp,128
     310:	0305                	addi	t1,t1,1
     312:	1e090103          	lb	sp,480(s2)
pipecmd():
/home/one/xv6-labs-2020/user/sh.c:225
     316:	0100                	addi	s0,sp,128
     318:	00090203          	lb	tp,0(s2)
     31c:	0100                	addi	s0,sp,128
     31e:	0905                	addi	s2,s2,1
     320:	0306                	slli	t1,t1,0x1
     322:	0900                	addi	s0,sp,144
     324:	0000                	unimp
/home/one/xv6-labs-2020/user/sh.c:228
     326:	0501                	addi	a0,a0,0
     328:	01030603          	lb	a2,16(t1)
     32c:	0e09                	addi	t3,t3,2
     32e:	0100                	addi	s0,sp,128
     330:	0e090103          	lb	sp,224(s2)
/home/one/xv6-labs-2020/user/sh.c:229
     334:	0100                	addi	s0,sp,128
     336:	0d05                	addi	s10,s10,1
     338:	0306                	slli	t1,t1,0x1
     33a:	0900                	addi	s0,sp,144
     33c:	0000                	unimp
/home/one/xv6-labs-2020/user/sh.c:230
     33e:	0501                	addi	a0,a0,0
     340:	01030603          	lb	a2,16(t1)
/home/one/xv6-labs-2020/user/sh.c:231
     344:	0409                	addi	s0,s0,2
/home/one/xv6-labs-2020/user/sh.c:232
     346:	0100                	addi	s0,sp,128
     348:	0c05                	addi	s8,s8,1
/home/one/xv6-labs-2020/user/sh.c:234
     34a:	0306                	slli	t1,t1,0x1
     34c:	0900                	addi	s0,sp,144
     34e:	0000                	unimp
     350:	0501                	addi	a0,a0,0
     352:	01030603          	lb	a2,16(t1)
     356:	0409                	addi	s0,s0,2
     358:	0100                	addi	s0,sp,128
listcmd():
/home/one/xv6-labs-2020/user/sh.c:238
     35a:	0d05                	addi	s10,s10,1
     35c:	0306                	slli	t1,t1,0x1
     35e:	0900                	addi	s0,sp,144
     360:	0000                	unimp
     362:	0501                	addi	a0,a0,0
     364:	01030603          	lb	a2,16(t1)
     368:	0409                	addi	s0,s0,2
     36a:	0100                	addi	s0,sp,128
/home/one/xv6-labs-2020/user/sh.c:241
     36c:	0e05                	addi	t3,t3,1
     36e:	0306                	slli	t1,t1,0x1
     370:	0900                	addi	s0,sp,144
     372:	0000                	unimp
     374:	0501                	addi	a0,a0,0
     376:	01030603          	lb	a2,16(t1)
/home/one/xv6-labs-2020/user/sh.c:242
     37a:	0409                	addi	s0,s0,2
     37c:	0100                	addi	s0,sp,128
     37e:	0d05                	addi	s10,s10,1
     380:	0306                	slli	t1,t1,0x1
     382:	0900                	addi	s0,sp,144
/home/one/xv6-labs-2020/user/sh.c:243
     384:	0000                	unimp
     386:	0501                	addi	a0,a0,0
/home/one/xv6-labs-2020/user/sh.c:244
     388:	01030603          	lb	a2,16(t1)
/home/one/xv6-labs-2020/user/sh.c:245
     38c:	0409                	addi	s0,s0,2
     38e:	0100                	addi	s0,sp,128
/home/one/xv6-labs-2020/user/sh.c:247
     390:	0b05                	addi	s6,s6,1
     392:	0306                	slli	t1,t1,0x1
     394:	0900                	addi	s0,sp,144
     396:	0000                	unimp
     398:	0501                	addi	a0,a0,0
     39a:	01030603          	lb	a2,16(t1)
     39e:	0409                	addi	s0,s0,2
backcmd():
/home/one/xv6-labs-2020/user/sh.c:251
     3a0:	0100                	addi	s0,sp,128
     3a2:	0105                	addi	sp,sp,1
     3a4:	0306                	slli	t1,t1,0x1
     3a6:	0901                	addi	s2,s2,0
     3a8:	0000                	unimp
     3aa:	0601                	addi	a2,a2,0
     3ac:	16090403          	lb	s0,352(s2)
/home/one/xv6-labs-2020/user/sh.c:254
     3b0:	0100                	addi	s0,sp,128
     3b2:	0305                	addi	t1,t1,1
     3b4:	12090103          	lb	sp,288(s2)
     3b8:	0100                	addi	s0,sp,128
/home/one/xv6-labs-2020/user/sh.c:255
     3ba:	00090203          	lb	tp,0(s2)
     3be:	0100                	addi	s0,sp,128
     3c0:	0905                	addi	s2,s2,1
     3c2:	0306                	slli	t1,t1,0x1
     3c4:	0900                	addi	s0,sp,144
/home/one/xv6-labs-2020/user/sh.c:256
     3c6:	0000                	unimp
     3c8:	0501                	addi	a0,a0,0
/home/one/xv6-labs-2020/user/sh.c:257
     3ca:	01030603          	lb	a2,16(t1)
/home/one/xv6-labs-2020/user/sh.c:259
     3ce:	0c09                	addi	s8,s8,2
     3d0:	0100                	addi	s0,sp,128
     3d2:	0c090103          	lb	sp,192(s2)
     3d6:	0100                	addi	s0,sp,128
     3d8:	0d05                	addi	s10,s10,1
     3da:	0306                	slli	t1,t1,0x1
gettoken():
/home/one/xv6-labs-2020/user/sh.c:268
     3dc:	0900                	addi	s0,sp,144
     3de:	0000                	unimp
     3e0:	0501                	addi	a0,a0,0
     3e2:	01030603          	lb	a2,16(t1)
     3e6:	0409                	addi	s0,s0,2
     3e8:	0100                	addi	s0,sp,128
     3ea:	0d05                	addi	s10,s10,1
     3ec:	0306                	slli	t1,t1,0x1
     3ee:	0900                	addi	s0,sp,144
     3f0:	0000                	unimp
     3f2:	0501                	addi	a0,a0,0
     3f4:	01030603          	lb	a2,16(t1)
/home/one/xv6-labs-2020/user/sh.c:272
     3f8:	0409                	addi	s0,s0,2
/home/one/xv6-labs-2020/user/sh.c:273
     3fa:	0100                	addi	s0,sp,128
     3fc:	0e05                	addi	t3,t3,1
     3fe:	0306                	slli	t1,t1,0x1
     400:	0900                	addi	s0,sp,144
     402:	0000                	unimp
     404:	0501                	addi	a0,a0,0
/home/one/xv6-labs-2020/user/sh.c:273 (discriminator 1)
     406:	01030603          	lb	a2,16(t1)
     40a:	0409                	addi	s0,s0,2
     40c:	0100                	addi	s0,sp,128
     40e:	0105                	addi	sp,sp,1
     410:	0306                	slli	t1,t1,0x1
     412:	0901                	addi	s2,s2,0
     414:	0000                	unimp
/home/one/xv6-labs-2020/user/sh.c:274
     416:	0601                	addi	a2,a2,0
/home/one/xv6-labs-2020/user/sh.c:273
     418:	10090403          	lb	s0,256(s2)
/home/one/xv6-labs-2020/user/sh.c:275
     41c:	0100                	addi	s0,sp,128
     41e:	0305                	addi	t1,t1,1
/home/one/xv6-labs-2020/user/sh.c:276
     420:	12090103          	lb	sp,288(s2)
/home/one/xv6-labs-2020/user/sh.c:277
     424:	0100                	addi	s0,sp,128
     426:	00090203          	lb	tp,0(s2)
     42a:	0100                	addi	s0,sp,128
/home/one/xv6-labs-2020/user/sh.c:278
     42c:	0905                	addi	s2,s2,1
     42e:	0306                	slli	t1,t1,0x1
     430:	0900                	addi	s0,sp,144
     432:	0000                	unimp
     434:	0501                	addi	a0,a0,0
     436:	01030603          	lb	a2,16(t1)
     43a:	0c09                	addi	s8,s8,2
     43c:	0100                	addi	s0,sp,128
/home/one/xv6-labs-2020/user/sh.c:302
     43e:	0c090103          	lb	sp,192(s2)
/home/one/xv6-labs-2020/user/sh.c:303
     442:	0100                	addi	s0,sp,128
     444:	0d05                	addi	s10,s10,1
/home/one/xv6-labs-2020/user/sh.c:305
     446:	0306                	slli	t1,t1,0x1
     448:	0900                	addi	s0,sp,144
     44a:	0000                	unimp
     44c:	0501                	addi	a0,a0,0
     44e:	01030603          	lb	a2,16(t1)
/home/one/xv6-labs-2020/user/sh.c:305 (discriminator 1)
     452:	0409                	addi	s0,s0,2
     454:	0100                	addi	s0,sp,128
     456:	0d05                	addi	s10,s10,1
     458:	0306                	slli	t1,t1,0x1
     45a:	0900                	addi	s0,sp,144
     45c:	0000                	unimp
     45e:	0501                	addi	a0,a0,0
     460:	01030603          	lb	a2,16(t1)
/home/one/xv6-labs-2020/user/sh.c:305
     464:	0409                	addi	s0,s0,2
     466:	0100                	addi	s0,sp,128
/home/one/xv6-labs-2020/user/sh.c:307
     468:	0e05                	addi	t3,t3,1
     46a:	0306                	slli	t1,t1,0x1
/home/one/xv6-labs-2020/user/sh.c:309
     46c:	0900                	addi	s0,sp,144
     46e:	0000                	unimp
     470:	0501                	addi	a0,a0,0
     472:	01030603          	lb	a2,16(t1)
     476:	0409                	addi	s0,s0,2
     478:	0100                	addi	s0,sp,128
     47a:	0105                	addi	sp,sp,1
     47c:	0306                	slli	t1,t1,0x1
     47e:	0901                	addi	s2,s2,0
     480:	0000                	unimp
/home/one/xv6-labs-2020/user/sh.c:278
     482:	0601                	addi	a2,a2,0
     484:	10090403          	lb	s0,256(s2)
     488:	0100                	addi	s0,sp,128
/home/one/xv6-labs-2020/user/sh.c:298
     48a:	0305                	addi	t1,t1,1
     48c:	0e090103          	lb	sp,224(s2)
     490:	0100                	addi	s0,sp,128
     492:	00090203          	lb	tp,0(s2)
     496:	0100                	addi	s0,sp,128
     498:	0905                	addi	s2,s2,1
     49a:	0306                	slli	t1,t1,0x1
     49c:	0900                	addi	s0,sp,144
/home/one/xv6-labs-2020/user/sh.c:298 (discriminator 1)
     49e:	0000                	unimp
     4a0:	0501                	addi	a0,a0,0
     4a2:	01030603          	lb	a2,16(t1)
     4a6:	0c09                	addi	s8,s8,2
     4a8:	0100                	addi	s0,sp,128
     4aa:	0c090103          	lb	sp,192(s2)
/home/one/xv6-labs-2020/user/sh.c:298 (discriminator 2)
     4ae:	0100                	addi	s0,sp,128
     4b0:	0d05                	addi	s10,s10,1
     4b2:	0306                	slli	t1,t1,0x1
     4b4:	0900                	addi	s0,sp,144
     4b6:	0000                	unimp
     4b8:	0501                	addi	a0,a0,0
     4ba:	01030603          	lb	a2,16(t1)
/home/one/xv6-labs-2020/user/sh.c:299
     4be:	0409                	addi	s0,s0,2
/home/one/xv6-labs-2020/user/sh.c:298
     4c0:	0100                	addi	s0,sp,128
     4c2:	0c05                	addi	s8,s8,1
/home/one/xv6-labs-2020/user/sh.c:302
     4c4:	0306                	slli	t1,t1,0x1
     4c6:	0900                	addi	s0,sp,144
     4c8:	0000                	unimp
     4ca:	0501                	addi	a0,a0,0
     4cc:	01030603          	lb	a2,16(t1)
/home/one/xv6-labs-2020/user/sh.c:278
     4d0:	0409                	addi	s0,s0,2
     4d2:	0100                	addi	s0,sp,128
     4d4:	0105                	addi	sp,sp,1
     4d6:	0306                	slli	t1,t1,0x1
     4d8:	0901                	addi	s2,s2,0
     4da:	0000                	unimp
     4dc:	0601                	addi	a2,a2,0
     4de:	0e090903          	lb	s2,224(s2)
     4e2:	0100                	addi	s0,sp,128
     4e4:	0305                	addi	t1,t1,1
     4e6:	1c090103          	lb	sp,448(s2)
/home/one/xv6-labs-2020/user/sh.c:288
     4ea:	0100                	addi	s0,sp,128
/home/one/xv6-labs-2020/user/sh.c:278
     4ec:	00090103          	lb	sp,0(s2)
     4f0:	0100                	addi	s0,sp,128
     4f2:	00090203          	lb	tp,0(s2)
/home/one/xv6-labs-2020/user/sh.c:290
     4f6:	0100                	addi	s0,sp,128
     4f8:	0505                	addi	a0,a0,1
/home/one/xv6-labs-2020/user/sh.c:291
     4fa:	0306                	slli	t1,t1,0x1
     4fc:	0900                	addi	s0,sp,144
     4fe:	0000                	unimp
     500:	0501                	addi	a0,a0,0
/home/one/xv6-labs-2020/user/sh.c:293
     502:	01030603          	lb	a2,16(t1)
/home/one/xv6-labs-2020/user/sh.c:292
     506:	0209                	addi	tp,tp,2
/home/one/xv6-labs-2020/user/sh.c:291
     508:	0100                	addi	s0,sp,128
     50a:	1305                	addi	t1,t1,-31
/home/one/xv6-labs-2020/user/sh.c:290
     50c:	0306                	slli	t1,t1,0x1
/home/one/xv6-labs-2020/user/sh.c:277
     50e:	0900                	addi	s0,sp,144
     510:	0000                	unimp
     512:	0501                	addi	a0,a0,0
/home/one/xv6-labs-2020/user/sh.c:297
     514:	0308                	addi	a0,sp,384
     516:	0900                	addi	s0,sp,144
     518:	0008                	0x8
     51a:	0501                	addi	a0,a0,0
     51c:	04020013          	addi	zero,tp,64 # 40 <getcmd+0x40>
peek():
/home/one/xv6-labs-2020/user/sh.c:313
     520:	0301                	addi	t1,t1,0
     522:	0900                	addi	s0,sp,144
     524:	0004                	0x4
     526:	0501                	addi	a0,a0,0
     528:	0010                	0x10
     52a:	0402                	c.slli64	s0
     52c:	0301                	addi	t1,t1,0
     52e:	0900                	addi	s0,sp,144
     530:	000e                	c.slli	zero,0x3
     532:	0501                	addi	a0,a0,0
     534:	0605                	addi	a2,a2,1
     536:	02090103          	lb	sp,32(s2)
/home/one/xv6-labs-2020/user/sh.c:317
     53a:	0100                	addi	s0,sp,128
     53c:	0605                	addi	a2,a2,1
     53e:	0306                	slli	t1,t1,0x1
     540:	0900                	addi	s0,sp,144
     542:	0000                	unimp
     544:	0501                	addi	a0,a0,0
/home/one/xv6-labs-2020/user/sh.c:317 (discriminator 1)
     546:	0308                	addi	a0,sp,384
     548:	097f                	0x97f
     54a:	0002                	c.slli64	zero
     54c:	0501                	addi	a0,a0,0
     54e:	02030603          	lb	a2,32(t1)
     552:	0409                	addi	s0,s0,2
     554:	0100                	addi	s0,sp,128
/home/one/xv6-labs-2020/user/sh.c:318
     556:	0505                	addi	a0,a0,1
/home/one/xv6-labs-2020/user/sh.c:317
     558:	0306                	slli	t1,t1,0x1
     55a:	0900                	addi	s0,sp,144
/home/one/xv6-labs-2020/user/sh.c:319
     55c:	0000                	unimp
     55e:	0601                	addi	a2,a2,0
/home/one/xv6-labs-2020/user/sh.c:320
     560:	04090103          	lb	sp,64(s2)
     564:	0100                	addi	s0,sp,128
     566:	0805                	addi	a6,a6,1
/home/one/xv6-labs-2020/user/sh.c:321 (discriminator 6)
     568:	0306                	slli	t1,t1,0x1
     56a:	0900                	addi	s0,sp,144
     56c:	0000                	unimp
     56e:	0501                	addi	a0,a0,0
     570:	01030603          	lb	a2,16(t1)
     574:	0409                	addi	s0,s0,2
     576:	0100                	addi	s0,sp,128
     578:	0905                	addi	s2,s2,1
/home/one/xv6-labs-2020/user/sh.c:320 (discriminator 1)
     57a:	0306                	slli	t1,t1,0x1
     57c:	0900                	addi	s0,sp,144
     57e:	0000                	unimp
     580:	0501                	addi	a0,a0,0
     582:	09000307          	0x9000307
     586:	0004                	0x4
     588:	0501                	addi	a0,a0,0
parseredirs():
/home/one/xv6-labs-2020/user/sh.c:377
     58a:	01030603          	lb	a2,16(t1)
     58e:	0409                	addi	s0,s0,2
     590:	0100                	addi	s0,sp,128
     592:	12091803          	lh	a6,288(s2)
     596:	0100                	addi	s0,sp,128
     598:	0505                	addi	a0,a0,1
     59a:	0306                	slli	t1,t1,0x1
     59c:	0900                	addi	s0,sp,144
     59e:	0000                	unimp
     5a0:	0601                	addi	a2,a2,0
     5a2:	04090103          	lb	sp,64(s2)
     5a6:	0100                	addi	s0,sp,128
     5a8:	0905                	addi	s2,s2,1
/home/one/xv6-labs-2020/user/sh.c:381
     5aa:	0306                	slli	t1,t1,0x1
     5ac:	0900                	addi	s0,sp,144
     5ae:	0000                	unimp
     5b0:	0501                	addi	a0,a0,0
/home/one/xv6-labs-2020/user/sh.c:383
     5b2:	09020313          	addi	t1,tp,144 # 90 <fork1+0x16>
/home/one/xv6-labs-2020/user/sh.c:385
     5b6:	0004                	0x4
     5b8:	0501                	addi	a0,a0,0
/home/one/xv6-labs-2020/user/sh.c:381
     5ba:	0308                	addi	a0,sp,384
/home/one/xv6-labs-2020/user/sh.c:384
     5bc:	0900                	addi	s0,sp,144
     5be:	0008                	0x8
     5c0:	0501                	addi	a0,a0,0
     5c2:	04020013          	addi	zero,tp,64 # 40 <getcmd+0x40>
     5c6:	0301                	addi	t1,t1,0
     5c8:	0900                	addi	s0,sp,144
     5ca:	0004                	0x4
/home/one/xv6-labs-2020/user/sh.c:387
     5cc:	0501                	addi	a0,a0,0
     5ce:	0010                	0x10
     5d0:	0402                	c.slli64	s0
     5d2:	0301                	addi	t1,t1,0
     5d4:	0900                	addi	s0,sp,144
     5d6:	000e                	c.slli	zero,0x3
     5d8:	0501                	addi	a0,a0,0
     5da:	0605                	addi	a2,a2,1
     5dc:	02090103          	lb	sp,32(s2)
     5e0:	0100                	addi	s0,sp,128
     5e2:	0605                	addi	a2,a2,1
/home/one/xv6-labs-2020/user/sh.c:385
     5e4:	0306                	slli	t1,t1,0x1
     5e6:	0900                	addi	s0,sp,144
     5e8:	0000                	unimp
     5ea:	0501                	addi	a0,a0,0
/home/one/xv6-labs-2020/user/sh.c:381
     5ec:	0308                	addi	a0,sp,384
     5ee:	097f                	0x97f
     5f0:	0002                	c.slli64	zero
     5f2:	0501                	addi	a0,a0,0
     5f4:	02030603          	lb	a2,32(t1)
     5f8:	0409                	addi	s0,s0,2
     5fa:	0100                	addi	s0,sp,128
/home/one/xv6-labs-2020/user/sh.c:382
     5fc:	0705                	addi	a4,a4,1
     5fe:	0306                	slli	t1,t1,0x1
     600:	0900                	addi	s0,sp,144
     602:	0000                	unimp
     604:	0501                	addi	a0,a0,0
     606:	01030603          	lb	a2,16(t1)
     60a:	0409                	addi	s0,s0,2
     60c:	0100                	addi	s0,sp,128
/home/one/xv6-labs-2020/user/sh.c:383
     60e:	0105                	addi	sp,sp,1
     610:	0306                	slli	t1,t1,0x1
     612:	0901                	addi	s2,s2,0
     614:	0000                	unimp
     616:	0501                	addi	a0,a0,0
     618:	09610303          	lb	t1,150(sp)
     61c:	0016                	c.slli	zero,0x5
     61e:	0501                	addi	a0,a0,0
     620:	0316                	slli	t1,t1,0x5
     622:	0914                	addi	a3,sp,144
     624:	0008                	0x8
/home/one/xv6-labs-2020/user/sh.c:385
     626:	0501                	addi	a0,a0,0
     628:	0331                	addi	t1,t1,12
     62a:	0900                	addi	s0,sp,144
     62c:	0008                	0x8
     62e:	0501                	addi	a0,a0,0
     630:	030a                	slli	t1,t1,0x2
/home/one/xv6-labs-2020/user/sh.c:393
     632:	0900                	addi	s0,sp,144
     634:	0008                	0x8
     636:	0501                	addi	a0,a0,0
     638:	0016                	c.slli	zero,0x5
     63a:	0402                	c.slli64	s0
     63c:	0301                	addi	t1,t1,0
     63e:	0900                	addi	s0,sp,144
     640:	0004                	0x4
     642:	0501                	addi	a0,a0,0
     644:	0012                	c.slli	zero,0x4
     646:	0402                	c.slli64	s0
     648:	0301                	addi	t1,t1,0
     64a:	0900                	addi	s0,sp,144
/home/one/xv6-labs-2020/user/sh.c:394
     64c:	000e                	c.slli	zero,0x3
/home/one/xv6-labs-2020/user/sh.c:390
     64e:	0501                	addi	a0,a0,0
     650:	0031                	c.nop	12
     652:	0402                	c.slli64	s0
     654:	0302                	c.slli64	t1
     656:	0900                	addi	s0,sp,144
     658:	0002                	c.slli64	zero
     65a:	0501                	addi	a0,a0,0
     65c:	002d                	c.nop	11
     65e:	0402                	c.slli64	s0
     660:	0302                	c.slli64	t1
     662:	0900                	addi	s0,sp,144
     664:	000e                	c.slli	zero,0x3
     666:	0501                	addi	a0,a0,0
/home/one/xv6-labs-2020/user/sh.c:391
     668:	01030607          	0x1030607
/home/one/xv6-labs-2020/user/sh.c:398
     66c:	0209                	addi	tp,tp,2
     66e:	0100                	addi	s0,sp,128
     670:	0805                	addi	a6,a6,1
     672:	0306                	slli	t1,t1,0x1
     674:	0900                	addi	s0,sp,144
     676:	0000                	unimp
     678:	0501                	addi	a0,a0,0
     67a:	030a                	slli	t1,t1,0x2
     67c:	097f                	0x97f
     67e:	0002                	c.slli64	zero
     680:	0501                	addi	a0,a0,0
     682:	04030603          	lb	a2,64(t1)
parseexec():
/home/one/xv6-labs-2020/user/sh.c:418
     686:	0409                	addi	s0,s0,2
     688:	0100                	addi	s0,sp,128
     68a:	0505                	addi	a0,a0,1
     68c:	0306                	slli	t1,t1,0x1
     68e:	0900                	addi	s0,sp,144
     690:	0000                	unimp
     692:	0501                	addi	a0,a0,0
     694:	09680303          	lb	t1,150(a6)
     698:	000a                	c.slli	zero,0x2
     69a:	0501                	addi	a0,a0,0
     69c:	0605                	addi	a2,a2,1
     69e:	1a090903          	lb	s2,416(s2)
     6a2:	0100                	addi	s0,sp,128
/home/one/xv6-labs-2020/user/sh.c:424
     6a4:	0605                	addi	a2,a2,1
     6a6:	0306                	slli	t1,t1,0x1
     6a8:	0900                	addi	s0,sp,144
     6aa:	0000                	unimp
     6ac:	0501                	addi	a0,a0,0
     6ae:	0605                	addi	a2,a2,1
     6b0:	02090103          	lb	sp,32(s2)
     6b4:	0100                	addi	s0,sp,128
     6b6:	0305                	addi	t1,t1,1
/home/one/xv6-labs-2020/user/sh.c:427
     6b8:	0306                	slli	t1,t1,0x1
     6ba:	0976                	slli	s2,s2,0x1d
     6bc:	0002                	c.slli64	zero
     6be:	0501                	addi	a0,a0,0
     6c0:	0605                	addi	a2,a2,1
/home/one/xv6-labs-2020/user/sh.c:431
     6c2:	0a090c03          	lb	s8,160(s2)
     6c6:	0100                	addi	s0,sp,128
     6c8:	0605                	addi	a2,a2,1
     6ca:	0306                	slli	t1,t1,0x1
     6cc:	0900                	addi	s0,sp,144
     6ce:	0000                	unimp
/home/one/xv6-labs-2020/user/sh.c:432
     6d0:	0501                	addi	a0,a0,0
     6d2:	0605                	addi	a2,a2,1
     6d4:	04090103          	lb	sp,64(s2)
     6d8:	0100                	addi	s0,sp,128
     6da:	0705                	addi	a4,a4,1
/home/one/xv6-labs-2020/user/sh.c:435
     6dc:	0306                	slli	t1,t1,0x1
     6de:	0900                	addi	s0,sp,144
/home/one/xv6-labs-2020/user/sh.c:440
     6e0:	0000                	unimp
/home/one/xv6-labs-2020/user/sh.c:432
     6e2:	0501                	addi	a0,a0,0
/home/one/xv6-labs-2020/user/sh.c:425
     6e4:	0308                	addi	a0,sp,384
     6e6:	0902                	c.slli64	s2
     6e8:	0008                	0x8
     6ea:	0501                	addi	a0,a0,0
     6ec:	097f030b          	0x97f030b
     6f0:	0002                	c.slli64	zero
/home/one/xv6-labs-2020/user/sh.c:447
     6f2:	0501                	addi	a0,a0,0
     6f4:	097f0307          	0x97f0307
     6f8:	0004                	0x4
     6fa:	0501                	addi	a0,a0,0
     6fc:	0306                	slli	t1,t1,0x1
     6fe:	097f                	0x97f
     700:	0004                	0x4
     702:	0501                	addi	a0,a0,0
     704:	09730307          	0x9730307
     708:	0002                	c.slli64	zero
     70a:	0501                	addi	a0,a0,0
     70c:	0309                	addi	t1,t1,2
/home/one/xv6-labs-2020/user/sh.c:436
     70e:	0914                	addi	a3,sp,144
     710:	0006                	c.slli	zero,0x1
     712:	0501                	addi	a0,a0,0
     714:	0601                	addi	a2,a2,0
     716:	0c091003          	lh	zero,192(s2)
     71a:	0100                	addi	s0,sp,128
     71c:	0305                	addi	t1,t1,1
/home/one/xv6-labs-2020/user/sh.c:442
     71e:	18090103          	lb	sp,384(s2)
     722:	0100                	addi	s0,sp,128
     724:	00090203          	lb	tp,0(s2)
     728:	0100                	addi	s0,sp,128
     72a:	0505                	addi	a0,a0,1
     72c:	0306                	slli	t1,t1,0x1
/home/one/xv6-labs-2020/user/sh.c:432
     72e:	0900                	addi	s0,sp,144
     730:	0000                	unimp
     732:	0501                	addi	a0,a0,0
     734:	01030603          	lb	a2,16(t1)
     738:	0209                	addi	tp,tp,2
     73a:	0100                	addi	s0,sp,128
     73c:	1305                	addi	t1,t1,-31
/home/one/xv6-labs-2020/user/sh.c:433
     73e:	0306                	slli	t1,t1,0x1
     740:	0900                	addi	s0,sp,144
     742:	0000                	unimp
     744:	0501                	addi	a0,a0,0
     746:	0308                	addi	a0,sp,384
     748:	0900                	addi	s0,sp,144
     74a:	0008                	0x8
     74c:	0501                	addi	a0,a0,0
     74e:	04020013          	addi	zero,tp,64 # 40 <getcmd+0x40>
     752:	0301                	addi	t1,t1,0
/home/one/xv6-labs-2020/user/sh.c:435
     754:	0900                	addi	s0,sp,144
     756:	0004                	0x4
/home/one/xv6-labs-2020/user/sh.c:437
     758:	0501                	addi	a0,a0,0
     75a:	0010                	0x10
     75c:	0402                	c.slli64	s0
/home/one/xv6-labs-2020/user/sh.c:438
     75e:	0301                	addi	t1,t1,0
     760:	0900                	addi	s0,sp,144
     762:	000e                	c.slli	zero,0x3
/home/one/xv6-labs-2020/user/sh.c:439
     764:	0501                	addi	a0,a0,0
/home/one/xv6-labs-2020/user/sh.c:440
     766:	0605                	addi	a2,a2,1
     768:	02090103          	lb	sp,32(s2)
/home/one/xv6-labs-2020/user/sh.c:441
     76c:	0100                	addi	s0,sp,128
     76e:	0605                	addi	a2,a2,1
     770:	0306                	slli	t1,t1,0x1
     772:	0900                	addi	s0,sp,144
     774:	0000                	unimp
     776:	0501                	addi	a0,a0,0
     778:	0308                	addi	a0,sp,384
     77a:	097f                	0x97f
/home/one/xv6-labs-2020/user/sh.c:444
     77c:	0002                	c.slli64	zero
     77e:	0501                	addi	a0,a0,0
     780:	02030603          	lb	a2,32(t1)
/home/one/xv6-labs-2020/user/sh.c:445
     784:	0409                	addi	s0,s0,2
     786:	0100                	addi	s0,sp,128
/home/one/xv6-labs-2020/user/sh.c:446
     788:	0705                	addi	a4,a4,1
parsepipe():
/home/one/xv6-labs-2020/user/sh.c:364
     78a:	0306                	slli	t1,t1,0x1
     78c:	0900                	addi	s0,sp,144
     78e:	0000                	unimp
     790:	0501                	addi	a0,a0,0
     792:	01030603          	lb	a2,16(t1)
     796:	0409                	addi	s0,s0,2
     798:	0100                	addi	s0,sp,128
     79a:	0a05                	addi	s4,s4,1
/home/one/xv6-labs-2020/user/sh.c:367
     79c:	0306                	slli	t1,t1,0x1
     79e:	0900                	addi	s0,sp,144
     7a0:	0000                	unimp
     7a2:	0501                	addi	a0,a0,0
     7a4:	030d                	addi	t1,t1,3
/home/one/xv6-labs-2020/user/sh.c:368
     7a6:	0900                	addi	s0,sp,144
     7a8:	0004                	0x4
     7aa:	0501                	addi	a0,a0,0
     7ac:	0001                	nop
     7ae:	0402                	c.slli64	s0
     7b0:	0306                	slli	t1,t1,0x1
     7b2:	0901                	addi	s2,s2,0
     7b4:	0004                	0x4
     7b6:	0501                	addi	a0,a0,0
     7b8:	0010                	0x10
     7ba:	0402                	c.slli64	s0
/home/one/xv6-labs-2020/user/sh.c:373
     7bc:	0301                	addi	t1,t1,0
     7be:	097f                	0x97f
     7c0:	0012                	c.slli	zero,0x4
     7c2:	0501                	addi	a0,a0,0
     7c4:	000d                	c.nop	3
     7c6:	0402                	c.slli64	s0
     7c8:	0301                	addi	t1,t1,0
     7ca:	0900                	addi	s0,sp,144
/home/one/xv6-labs-2020/user/sh.c:369
     7cc:	000a                	c.slli	zero,0x2
     7ce:	0501                	addi	a0,a0,0
     7d0:	0601                	addi	a2,a2,0
     7d2:	06093903          	ld	s2,96(s2)
     7d6:	0100                	addi	s0,sp,128
     7d8:	0305                	addi	t1,t1,1
     7da:	20090103          	lb	sp,512(s2)
/home/one/xv6-labs-2020/user/sh.c:370
     7de:	0100                	addi	s0,sp,128
     7e0:	00090103          	lb	sp,0(s2)
     7e4:	0100                	addi	s0,sp,128
     7e6:	00090203          	lb	tp,0(s2)
     7ea:	0100                	addi	s0,sp,128
     7ec:	0905                	addi	s2,s2,1
     7ee:	0306                	slli	t1,t1,0x1
     7f0:	0900                	addi	s0,sp,144
     7f2:	0000                	unimp
     7f4:	0501                	addi	a0,a0,0
/home/one/xv6-labs-2020/user/sh.c:372
     7f6:	09020307          	0x9020307
parseline():
/home/one/xv6-labs-2020/user/sh.c:347
     7fa:	0008                	0x8
     7fc:	0501                	addi	a0,a0,0
     7fe:	0305                	addi	t1,t1,1
     800:	0902                	c.slli64	s2
     802:	0004                	0x4
     804:	0501                	addi	a0,a0,0
     806:	0308                	addi	a0,sp,384
     808:	097c                	addi	a5,sp,156
     80a:	0004                	0x4
/home/one/xv6-labs-2020/user/sh.c:350
     80c:	0501                	addi	a0,a0,0
     80e:	03030607          	0x3030607
     812:	0209                	addi	tp,tp,2
     814:	0100                	addi	s0,sp,128
/home/one/xv6-labs-2020/user/sh.c:351
     816:	10090303          	lb	t1,256(s2)
     81a:	0100                	addi	s0,sp,128
     81c:	0d05                	addi	s10,s10,1
     81e:	0306                	slli	t1,t1,0x1
     820:	0900                	addi	s0,sp,144
     822:	0000                	unimp
     824:	0501                	addi	a0,a0,0
     826:	01030607          	0x1030607
     82a:	1809                	addi	a6,a6,-30
     82c:	0100                	addi	s0,sp,128
/home/one/xv6-labs-2020/user/sh.c:352
     82e:	0505                	addi	a0,a0,1
     830:	0306                	slli	t1,t1,0x1
     832:	097d                	addi	s2,s2,31
     834:	0000                	unimp
     836:	0501                	addi	a0,a0,0
     838:	0309                	addi	t1,t1,2
     83a:	097c                	addi	a5,sp,156
     83c:	0008                	0x8
/home/one/xv6-labs-2020/user/sh.c:353
     83e:	0501                	addi	a0,a0,0
     840:	0308                	addi	a0,sp,384
     842:	0900                	addi	s0,sp,144
     844:	000e                	c.slli	zero,0x3
     846:	0501                	addi	a0,a0,0
     848:	0605                	addi	a2,a2,1
     84a:	02090103          	lb	sp,32(s2)
/home/one/xv6-labs-2020/user/sh.c:355
     84e:	0100                	addi	s0,sp,128
     850:	0b05                	addi	s6,s6,1
     852:	0306                	slli	t1,t1,0x1
     854:	0900                	addi	s0,sp,144
     856:	0000                	unimp
     858:	0501                	addi	a0,a0,0
     85a:	0605                	addi	a2,a2,1
     85c:	12090103          	lb	sp,288(s2)
     860:	0100                	addi	s0,sp,128
/home/one/xv6-labs-2020/user/sh.c:360
     862:	0805                	addi	a6,a6,1
     864:	0306                	slli	t1,t1,0x1
     866:	0900                	addi	s0,sp,144
     868:	0000                	unimp
     86a:	0501                	addi	a0,a0,0
     86c:	09000307          	0x9000307
     870:	0014                	0x14
     872:	0501                	addi	a0,a0,0
/home/one/xv6-labs-2020/user/sh.c:356
     874:	0605                	addi	a2,a2,1
     876:	04090203          	lb	tp,64(s2)
     87a:	0100                	addi	s0,sp,128
     87c:	0705                	addi	a4,a4,1
     87e:	0c090803          	lb	a6,192(s2)
     882:	0100                	addi	s0,sp,128
/home/one/xv6-labs-2020/user/sh.c:357
     884:	0d05                	addi	s10,s10,1
     886:	0306                	slli	t1,t1,0x1
     888:	0900                	addi	s0,sp,144
     88a:	0000                	unimp
     88c:	0501                	addi	a0,a0,0
     88e:	01030607          	0x1030607
     892:	1a09                	addi	s4,s4,-30
     894:	0100                	addi	s0,sp,128
     896:	02097c03          	0x2097c03
     89a:	0100                	addi	s0,sp,128
     89c:	0d05                	addi	s10,s10,1
/home/one/xv6-labs-2020/user/sh.c:359
     89e:	0306                	slli	t1,t1,0x1
parseblock():
/home/one/xv6-labs-2020/user/sh.c:402
     8a0:	0900                	addi	s0,sp,144
     8a2:	0000                	unimp
     8a4:	0501                	addi	a0,a0,0
     8a6:	01030607          	0x1030607
     8aa:	1a09                	addi	s4,s4,-30
     8ac:	0100                	addi	s0,sp,128
     8ae:	0305                	addi	t1,t1,1
     8b0:	02090603          	lb	a2,32(s2)
/home/one/xv6-labs-2020/user/sh.c:405
     8b4:	0100                	addi	s0,sp,128
     8b6:	0105                	addi	sp,sp,1
     8b8:	0306                	slli	t1,t1,0x1
     8ba:	0901                	addi	s2,s2,0
     8bc:	0000                	unimp
     8be:	0601                	addi	a2,a2,0
     8c0:	1c091403          	lh	s0,448(s2)
/home/one/xv6-labs-2020/user/sh.c:407
     8c4:	0100                	addi	s0,sp,128
     8c6:	0305                	addi	t1,t1,1
     8c8:	1e090103          	lb	sp,480(s2)
     8cc:	0100                	addi	s0,sp,128
     8ce:	00090103          	lb	sp,0(s2)
     8d2:	0100                	addi	s0,sp,128
/home/one/xv6-labs-2020/user/sh.c:408
     8d4:	00090103          	lb	sp,0(s2)
     8d8:	0100                	addi	s0,sp,128
     8da:	00090103          	lb	sp,0(s2)
     8de:	0100                	addi	s0,sp,128
     8e0:	00090203          	lb	tp,0(s2)
/home/one/xv6-labs-2020/user/sh.c:409
     8e4:	0100                	addi	s0,sp,128
     8e6:	0605                	addi	a2,a2,1
     8e8:	0306                	slli	t1,t1,0x1
     8ea:	0900                	addi	s0,sp,144
     8ec:	0000                	unimp
     8ee:	0501                	addi	a0,a0,0
     8f0:	0305                	addi	t1,t1,1
     8f2:	0900                	addi	s0,sp,144
     8f4:	0010                	0x10
     8f6:	0501                	addi	a0,a0,0
/home/one/xv6-labs-2020/user/sh.c:411
     8f8:	03030603          	lb	a2,48(t1)
     8fc:	0409                	addi	s0,s0,2
     8fe:	0100                	addi	s0,sp,128
     900:	0905                	addi	s2,s2,1
     902:	0306                	slli	t1,t1,0x1
     904:	0900                	addi	s0,sp,144
     906:	0000                	unimp
/home/one/xv6-labs-2020/user/sh.c:412
     908:	0501                	addi	a0,a0,0
     90a:	01030603          	lb	a2,16(t1)
     90e:	0a09                	addi	s4,s4,2
     910:	0100                	addi	s0,sp,128
     912:	00090203          	lb	tp,0(s2)
/home/one/xv6-labs-2020/user/sh.c:414
     916:	0100                	addi	s0,sp,128
     918:	00090103          	lb	sp,0(s2)
     91c:	0100                	addi	s0,sp,128
     91e:	0905                	addi	s2,s2,1
     920:	0306                	slli	t1,t1,0x1
     922:	0900                	addi	s0,sp,144
/home/one/xv6-labs-2020/user/sh.c:406
     924:	0000                	unimp
     926:	0501                	addi	a0,a0,0
     928:	01030603          	lb	a2,16(t1)
     92c:	0e09                	addi	t3,t3,2
     92e:	0100                	addi	s0,sp,128
     930:	0a05                	addi	s4,s4,1
     932:	0306                	slli	t1,t1,0x1
/home/one/xv6-labs-2020/user/sh.c:410
     934:	0900                	addi	s0,sp,144
     936:	0004                	0x4
     938:	0501                	addi	a0,a0,0
     93a:	09030307          	0x9030307
     93e:	0008                	0x8
     940:	0301                	addi	t1,t1,0
     942:	0905                	addi	s2,s2,1
nulterminate():
/home/one/xv6-labs-2020/user/sh.c:452
     944:	0004                	0x4
     946:	0501                	addi	a0,a0,0
     948:	0308                	addi	a0,sp,384
     94a:	0978                	addi	a4,sp,156
     94c:	0002                	c.slli64	zero
     94e:	0501                	addi	a0,a0,0
/home/one/xv6-labs-2020/user/sh.c:460
     950:	0605                	addi	a2,a2,1
/home/one/xv6-labs-2020/user/sh.c:463
     952:	02097903          	0x2097903
     956:	0100                	addi	s0,sp,128
     958:	0c05                	addi	s8,s8,1
     95a:	0306                	slli	t1,t1,0x1
     95c:	0900                	addi	s0,sp,144
     95e:	0000                	unimp
     960:	0501                	addi	a0,a0,0
     962:	0301                	addi	t1,t1,0
     964:	0916                	slli	s2,s2,0x5
     966:	000e                	c.slli	zero,0x3
     968:	0501                	addi	a0,a0,0
     96a:	75030607          	0x75030607
     96e:	1c09                	addi	s8,s8,-30
/home/one/xv6-labs-2020/user/sh.c:466
     970:	0100                	addi	s0,sp,128
     972:	0505                	addi	a0,a0,1
     974:	10090603          	lb	a2,256(s2)
/home/one/xv6-labs-2020/user/sh.c:467 (discriminator 3)
     978:	0100                	addi	s0,sp,128
     97a:	0b05                	addi	s6,s6,1
     97c:	0306                	slli	t1,t1,0x1
     97e:	0900                	addi	s0,sp,144
/home/one/xv6-labs-2020/user/sh.c:466 (discriminator 3)
     980:	0000                	unimp
     982:	0501                	addi	a0,a0,0
     984:	030a                	slli	t1,t1,0x2
     986:	0976                	slli	s2,s2,0x1d
/home/one/xv6-labs-2020/user/sh.c:472
     988:	0010                	0x10
     98a:	0501                	addi	a0,a0,0
     98c:	0308                	addi	a0,sp,384
     98e:	0900                	addi	s0,sp,144
     990:	000e                	c.slli	zero,0x3
/home/one/xv6-labs-2020/user/sh.c:473
     992:	0501                	addi	a0,a0,0
     994:	0605                	addi	a2,a2,1
     996:	02090103          	lb	sp,32(s2)
/home/one/xv6-labs-2020/user/sh.c:494
     99a:	0100                	addi	s0,sp,128
     99c:	0d05                	addi	s10,s10,1
     99e:	0306                	slli	t1,t1,0x1
     9a0:	0900                	addi	s0,sp,144
     9a2:	0000                	unimp
/home/one/xv6-labs-2020/user/sh.c:478
     9a4:	0501                	addi	a0,a0,0
     9a6:	09000307          	0x9000307
     9aa:	0014                	0x14
     9ac:	0501                	addi	a0,a0,0
/home/one/xv6-labs-2020/user/sh.c:479
     9ae:	0605                	addi	a2,a2,1
     9b0:	02090203          	lb	tp,32(s2)
     9b4:	0100                	addi	s0,sp,128
     9b6:	0705                	addi	a4,a4,1
/home/one/xv6-labs-2020/user/sh.c:480
     9b8:	0306                	slli	t1,t1,0x1
/home/one/xv6-labs-2020/user/sh.c:484
     9ba:	0900                	addi	s0,sp,144
     9bc:	0000                	unimp
     9be:	0501                	addi	a0,a0,0
     9c0:	0605                	addi	a2,a2,1
     9c2:	04090203          	lb	tp,64(s2)
/home/one/xv6-labs-2020/user/sh.c:485
     9c6:	0100                	addi	s0,sp,128
     9c8:	1505                	addi	a0,a0,-31
     9ca:	0306                	slli	t1,t1,0x1
     9cc:	0900                	addi	s0,sp,144
/home/one/xv6-labs-2020/user/sh.c:486
     9ce:	0000                	unimp
/home/one/xv6-labs-2020/user/sh.c:490
     9d0:	0501                	addi	a0,a0,0
     9d2:	0605                	addi	a2,a2,1
     9d4:	06090103          	lb	sp,96(s2)
     9d8:	0100                	addi	s0,sp,128
/home/one/xv6-labs-2020/user/sh.c:491
     9da:	1605                	addi	a2,a2,-31
parsecmd():
/home/one/xv6-labs-2020/user/sh.c:330
     9dc:	0306                	slli	t1,t1,0x1
     9de:	0900                	addi	s0,sp,144
     9e0:	0000                	unimp
     9e2:	0501                	addi	a0,a0,0
     9e4:	0605                	addi	a2,a2,1
     9e6:	06090103          	lb	sp,96(s2)
     9ea:	0100                	addi	s0,sp,128
/home/one/xv6-labs-2020/user/sh.c:334
     9ec:	0905                	addi	s2,s2,1
     9ee:	0306                	slli	t1,t1,0x1
     9f0:	0900                	addi	s0,sp,144
     9f2:	0000                	unimp
     9f4:	0501                	addi	a0,a0,0
     9f6:	0605                	addi	a2,a2,1
     9f8:	02090103          	lb	sp,32(s2)
/home/one/xv6-labs-2020/user/sh.c:335
     9fc:	0100                	addi	s0,sp,128
     9fe:	0705                	addi	a4,a4,1
     a00:	0306                	slli	t1,t1,0x1
     a02:	0900                	addi	s0,sp,144
     a04:	0002                	c.slli64	zero
     a06:	0601                	addi	a2,a2,0
     a08:	04090103          	lb	sp,64(s2)
/home/one/xv6-labs-2020/user/sh.c:336
     a0c:	0100                	addi	s0,sp,128
     a0e:	0305                	addi	t1,t1,1
     a10:	10090303          	lb	t1,256(s2)
     a14:	0100                	addi	s0,sp,128
     a16:	1305                	addi	t1,t1,-31
     a18:	0306                	slli	t1,t1,0x1
     a1a:	0900                	addi	s0,sp,144
     a1c:	0004                	0x4
     a1e:	0501                	addi	a0,a0,0
     a20:	01030603          	lb	a2,16(t1)
/home/one/xv6-labs-2020/user/sh.c:337
     a24:	0409                	addi	s0,s0,2
     a26:	0100                	addi	s0,sp,128
     a28:	1405                	addi	s0,s0,-31
/home/one/xv6-labs-2020/user/sh.c:341
     a2a:	0306                	slli	t1,t1,0x1
     a2c:	0900                	addi	s0,sp,144
     a2e:	0000                	unimp
     a30:	0501                	addi	a0,a0,0
     a32:	01030603          	lb	a2,16(t1)
/home/one/xv6-labs-2020/user/sh.c:343
     a36:	0409                	addi	s0,s0,2
     a38:	0100                	addi	s0,sp,128
     a3a:	0a05                	addi	s4,s4,1
     a3c:	0306                	slli	t1,t1,0x1
     a3e:	0900                	addi	s0,sp,144
     a40:	0000                	unimp
/home/one/xv6-labs-2020/user/sh.c:338
     a42:	0501                	addi	a0,a0,0
     a44:	0601                	addi	a2,a2,0
     a46:	097fae03          	lw	t3,151(t6)
     a4a:	0002                	c.slli64	zero
     a4c:	0501                	addi	a0,a0,0
     a4e:	09010303          	lb	t1,144(sp)
     a52:	0012                	c.slli	zero,0x4
/home/one/xv6-labs-2020/user/sh.c:339
     a54:	0301                	addi	t1,t1,0
     a56:	0902                	c.slli64	s2
     a58:	0000                	unimp
     a5a:	0501                	addi	a0,a0,0
     a5c:	0609                	addi	a2,a2,2
     a5e:	00090003          	lb	zero,0(s2)
     a62:	0100                	addi	s0,sp,128
main():
/home/one/xv6-labs-2020/user/sh.c:147
     a64:	0305                	addi	t1,t1,1
     a66:	0306                	slli	t1,t1,0x1
     a68:	0901                	addi	s2,s2,0
     a6a:	000a                	c.slli	zero,0x2
     a6c:	0501                	addi	a0,a0,0
     a6e:	0606                	slli	a2,a2,0x1
     a70:	00090003          	lb	zero,0(s2)
     a74:	0100                	addi	s0,sp,128
/home/one/xv6-labs-2020/user/sh.c:152
     a76:	0505                	addi	a0,a0,1
     a78:	14090003          	lb	zero,320(s2)
     a7c:	0100                	addi	s0,sp,128
     a7e:	0105                	addi	sp,sp,1
     a80:	02090503          	lb	a0,32(s2)
     a84:	0100                	addi	s0,sp,128
     a86:	0505                	addi	a0,a0,1
     a88:	0306                	slli	t1,t1,0x1
     a8a:	097c                	addi	a5,sp,156
     a8c:	0010                	0x10
/home/one/xv6-labs-2020/user/sh.c:153
     a8e:	0301                	addi	t1,t1,0
     a90:	0901                	addi	s2,s2,0
     a92:	0010                	0x10
/home/one/xv6-labs-2020/user/sh.c:154
     a94:	0501                	addi	a0,a0,0
     a96:	0003060b          	0x3060b
     a9a:	0009                	c.nop	2
/home/one/xv6-labs-2020/user/sh.c:160
     a9c:	0100                	addi	s0,sp,128
     a9e:	0305                	addi	t1,t1,1
     aa0:	0306                	slli	t1,t1,0x1
     aa2:	0902                	c.slli64	s2
/home/one/xv6-labs-2020/user/sh.c:161
     aa4:	001a                	c.slli	zero,0x6
     aa6:	0501                	addi	a0,a0,0
     aa8:	060a                	slli	a2,a2,0x2
     aaa:	00090003          	lb	zero,0(s2)
/home/one/xv6-labs-2020/user/sh.c:164
     aae:	0100                	addi	s0,sp,128
     ab0:	0105                	addi	sp,sp,1
     ab2:	0306                	slli	t1,t1,0x1
/home/one/xv6-labs-2020/user/sh.c:165
     ab4:	00020967          	jalr	s2,tp # 0 <getcmd>
     ab8:	0501                	addi	a0,a0,0
     aba:	09010303          	lb	t1,144(sp)
/home/one/xv6-labs-2020/user/sh.c:168
     abe:	0014                	0x14
     ac0:	0301                	addi	t1,t1,0
     ac2:	0902                	c.slli64	s2
     ac4:	0000                	unimp
     ac6:	0501                	addi	a0,a0,0
/home/one/xv6-labs-2020/user/sh.c:170
     ac8:	0609                	addi	a2,a2,2
     aca:	00090003          	lb	zero,0(s2)
     ace:	0100                	addi	s0,sp,128
     ad0:	0305                	addi	t1,t1,1
/home/one/xv6-labs-2020/user/sh.c:160
     ad2:	0306                	slli	t1,t1,0x1
     ad4:	0901                	addi	s2,s2,0
     ad6:	000a                	c.slli	zero,0x2
     ad8:	0501                	addi	a0,a0,0
     ada:	0609                	addi	a2,a2,2
     adc:	00090003          	lb	zero,0(s2)
     ae0:	0100                	addi	s0,sp,128
     ae2:	0805                	addi	a6,a6,1
/home/one/xv6-labs-2020/user/sh.c:161
     ae4:	16090003          	lb	zero,352(s2)
     ae8:	0100                	addi	s0,sp,128
     aea:	0505                	addi	a0,a0,1
/home/one/xv6-labs-2020/user/sh.c:161 (discriminator 1)
     aec:	0306                	slli	t1,t1,0x1
     aee:	0901                	addi	s2,s2,0
     af0:	0002                	c.slli64	zero
     af2:	0301                	addi	t1,t1,0
     af4:	0901                	addi	s2,s2,0
     af6:	0010                	0x10
/home/one/xv6-labs-2020/user/sh.c:161 (discriminator 2)
     af8:	0501                	addi	a0,a0,0
     afa:	0003060b          	0x3060b
     afe:	0009                	c.nop	2
/home/one/xv6-labs-2020/user/sh.c:163
     b00:	0100                	addi	s0,sp,128
     b02:	0305                	addi	t1,t1,1
     b04:	0306                	slli	t1,t1,0x1
     b06:	0902                	c.slli64	s2
     b08:	000e                	c.slli	zero,0x3
     b0a:	0501                	addi	a0,a0,0
     b0c:	0606                	slli	a2,a2,0x1
     b0e:	00090003          	lb	zero,0(s2)
     b12:	0100                	addi	s0,sp,128
     b14:	0505                	addi	a0,a0,1
     b16:	14090003          	lb	zero,320(s2)
/home/one/xv6-labs-2020/user/sh.c:164
     b1a:	0100                	addi	s0,sp,128
     b1c:	0105                	addi	sp,sp,1
     b1e:	02090503          	lb	a0,32(s2)
     b22:	0100                	addi	s0,sp,128
     b24:	0505                	addi	a0,a0,1
/home/one/xv6-labs-2020/user/sh.c:165
     b26:	0306                	slli	t1,t1,0x1
     b28:	097c                	addi	a5,sp,156
     b2a:	0012                	c.slli	zero,0x4
     b2c:	0301                	addi	t1,t1,0
     b2e:	0901                	addi	s2,s2,0
     b30:	0010                	0x10
     b32:	0501                	addi	a0,a0,0
     b34:	0003060b          	0x3060b
/home/one/xv6-labs-2020/user/sh.c:169
     b38:	0009                	c.nop	2
     b3a:	0100                	addi	s0,sp,128
     b3c:	0305                	addi	t1,t1,1
     b3e:	0306                	slli	t1,t1,0x1
     b40:	0902                	c.slli64	s2
     b42:	001a                	c.slli	zero,0x6
     b44:	0501                	addi	a0,a0,0
     b46:	060a                	slli	a2,a2,0x2
     b48:	00090003          	lb	zero,0(s2)
     b4c:	0100                	addi	s0,sp,128
/home/one/xv6-labs-2020/user/sh.c:172
     b4e:	0105                	addi	sp,sp,1
     b50:	0306                	slli	t1,t1,0x1
     b52:	0002092b          	0x2092b
     b56:	0501                	addi	a0,a0,0
strcpy():
/home/one/xv6-labs-2020/user/ulib.c:8
     b58:	09010303          	lb	t1,144(sp)
     b5c:	0012                	c.slli	zero,0x4
/home/one/xv6-labs-2020/user/ulib.c:12
     b5e:	0301                	addi	t1,t1,0
/home/one/xv6-labs-2020/user/ulib.c:12 (discriminator 1)
     b60:	0902                	c.slli64	s2
     b62:	0000                	unimp
     b64:	0501                	addi	a0,a0,0
     b66:	00030607          	0x30607
     b6a:	0009                	c.nop	2
     b6c:	0100                	addi	s0,sp,128
/home/one/xv6-labs-2020/user/ulib.c:15
     b6e:	0505                	addi	a0,a0,1
     b70:	10090003          	lb	zero,256(s2)
strcmp():
/home/one/xv6-labs-2020/user/ulib.c:19
     b74:	0100                	addi	s0,sp,128
     b76:	0305                	addi	t1,t1,1
     b78:	0306                	slli	t1,t1,0x1
/home/one/xv6-labs-2020/user/ulib.c:20
     b7a:	0902                	c.slli64	s2
     b7c:	0002                	c.slli64	zero
     b7e:	0301                	addi	t1,t1,0
     b80:	0901                	addi	s2,s2,0
     b82:	0010                	0x10
     b84:	0501                	addi	a0,a0,0
     b86:	0609                	addi	a2,a2,2
/home/one/xv6-labs-2020/user/ulib.c:21
     b88:	00090003          	lb	zero,0(s2)
/home/one/xv6-labs-2020/user/ulib.c:20
     b8c:	0100                	addi	s0,sp,128
     b8e:	0305                	addi	t1,t1,1
     b90:	0306                	slli	t1,t1,0x1
/home/one/xv6-labs-2020/user/ulib.c:20 (discriminator 1)
     b92:	0901                	addi	s2,s2,0
     b94:	000e                	c.slli	zero,0x3
     b96:	0501                	addi	a0,a0,0
     b98:	00030607          	0x30607
/home/one/xv6-labs-2020/user/ulib.c:22
     b9c:	0009                	c.nop	2
/home/one/xv6-labs-2020/user/ulib.c:23
     b9e:	0100                	addi	s0,sp,128
     ba0:	0505                	addi	a0,a0,1
     ba2:	14090003          	lb	zero,320(s2)
     ba6:	0100                	addi	s0,sp,128
strlen():
/home/one/xv6-labs-2020/user/ulib.c:27
     ba8:	0305                	addi	t1,t1,1
     baa:	0306                	slli	t1,t1,0x1
     bac:	0902                	c.slli64	s2
/home/one/xv6-labs-2020/user/ulib.c:30
     bae:	0002                	c.slli64	zero
     bb0:	0301                	addi	t1,t1,0
     bb2:	0901                	addi	s2,s2,0
     bb4:	0010                	0x10
     bb6:	0501                	addi	a0,a0,0
     bb8:	0609                	addi	a2,a2,2
     bba:	00090003          	lb	zero,0(s2)
/home/one/xv6-labs-2020/user/ulib.c:31 (discriminator 3)
     bbe:	0100                	addi	s0,sp,128
     bc0:	0305                	addi	t1,t1,1
/home/one/xv6-labs-2020/user/ulib.c:30 (discriminator 3)
     bc2:	0306                	slli	t1,t1,0x1
     bc4:	0901                	addi	s2,s2,0
     bc6:	000e                	c.slli	zero,0x3
/home/one/xv6-labs-2020/user/ulib.c:33
     bc8:	0501                	addi	a0,a0,0
     bca:	0601                	addi	a2,a2,0
     bcc:	00090103          	lb	sp,0(s2)
/home/one/xv6-labs-2020/user/ulib.c:30
     bd0:	0100                	addi	s0,sp,128
memset():
/home/one/xv6-labs-2020/user/ulib.c:37
     bd2:	0505                	addi	a0,a0,1
     bd4:	0306                	slli	t1,t1,0x1
     bd6:	0978                	addi	a4,sp,156
/home/one/xv6-labs-2020/user/ulib.c:40
     bd8:	000e                	c.slli	zero,0x3
     bda:	0301                	addi	t1,t1,0
     bdc:	0904                	addi	s1,sp,144
     bde:	0010                	0x10
     be0:	0501                	addi	a0,a0,0
     be2:	0301                	addi	t1,t1,0
     be4:	092a                	slli	s2,s2,0xa
     be6:	0010                	0x10
/home/one/xv6-labs-2020/user/ulib.c:41 (discriminator 3)
     be8:	0501                	addi	a0,a0,0
     bea:	09010303          	lb	t1,144(sp)
/home/one/xv6-labs-2020/user/ulib.c:40 (discriminator 3)
     bee:	000c                	0xc
     bf0:	0301                	addi	t1,t1,0
/home/one/xv6-labs-2020/user/ulib.c:44
     bf2:	0901                	addi	s2,s2,0
     bf4:	0000                	unimp
     bf6:	0301                	addi	t1,t1,0
strchr():
/home/one/xv6-labs-2020/user/ulib.c:48
     bf8:	0901                	addi	s2,s2,0
     bfa:	0000                	unimp
     bfc:	0301                	addi	t1,t1,0
/home/one/xv6-labs-2020/user/ulib.c:49
     bfe:	0901                	addi	s2,s2,0
     c00:	0000                	unimp
     c02:	0301                	addi	t1,t1,0
/home/one/xv6-labs-2020/user/ulib.c:50
     c04:	0901                	addi	s2,s2,0
     c06:	0000                	unimp
/home/one/xv6-labs-2020/user/ulib.c:49
     c08:	0301                	addi	t1,t1,0
     c0a:	0901                	addi	s2,s2,0
     c0c:	0000                	unimp
     c0e:	0301                	addi	t1,t1,0
/home/one/xv6-labs-2020/user/ulib.c:50
     c10:	0902                	c.slli64	s2
     c12:	0000                	unimp
     c14:	0501                	addi	a0,a0,0
/home/one/xv6-labs-2020/user/ulib.c:52
     c16:	0605                	addi	a2,a2,1
/home/one/xv6-labs-2020/user/ulib.c:53
     c18:	00090003          	lb	zero,0(s2)
     c1c:	0100                	addi	s0,sp,128
/home/one/xv6-labs-2020/user/ulib.c:52
     c1e:	0305                	addi	t1,t1,1
     c20:	0306                	slli	t1,t1,0x1
gets():
/home/one/xv6-labs-2020/user/ulib.c:57
     c22:	00020903          	lb	s2,0(tp) # 0 <getcmd>
     c26:	0501                	addi	a0,a0,0
     c28:	0605                	addi	a2,a2,1
     c2a:	1e090303          	lb	t1,480(s2)
     c2e:	0100                	addi	s0,sp,128
     c30:	0705                	addi	a4,a4,1
     c32:	0200                	addi	s0,sp,256
     c34:	0304                	addi	s1,sp,384
     c36:	0306                	slli	t1,t1,0x1
     c38:	0901                	addi	s2,s2,0
     c3a:	0008                	0x8
/home/one/xv6-labs-2020/user/ulib.c:61
     c3c:	0501                	addi	a0,a0,0
     c3e:	04020013          	addi	zero,tp,64 # 40 <getcmd+0x40>
/home/one/xv6-labs-2020/user/ulib.c:66
     c42:	00030603          	lb	a2,0(t1)
/home/one/xv6-labs-2020/user/ulib.c:61 (discriminator 1)
     c46:	0009                	c.nop	2
     c48:	0100                	addi	s0,sp,128
     c4a:	1705                	addi	a4,a4,-31
/home/one/xv6-labs-2020/user/ulib.c:62
     c4c:	0200                	addi	s0,sp,256
     c4e:	0304                	addi	s1,sp,384
     c50:	02090003          	lb	zero,32(s2)
     c54:	0100                	addi	s0,sp,128
     c56:	0505                	addi	a0,a0,1
     c58:	0200                	addi	s0,sp,256
     c5a:	0304                	addi	s1,sp,384
/home/one/xv6-labs-2020/user/ulib.c:63
     c5c:	06097f03          	0x6097f03
/home/one/xv6-labs-2020/user/ulib.c:65
     c60:	0100                	addi	s0,sp,128
     c62:	0306                	slli	t1,t1,0x1
     c64:	0905                	addi	s2,s2,1
     c66:	0008                	0x8
/home/one/xv6-labs-2020/user/ulib.c:66
     c68:	0301                	addi	t1,t1,0
     c6a:	0901                	addi	s2,s2,0
     c6c:	0000                	unimp
/home/one/xv6-labs-2020/user/ulib.c:61 (discriminator 1)
     c6e:	0301                	addi	t1,t1,0
/home/one/xv6-labs-2020/user/ulib.c:66 (discriminator 1)
     c70:	0901                	addi	s2,s2,0
     c72:	000a                	c.slli	zero,0x2
     c74:	0501                	addi	a0,a0,0
/home/one/xv6-labs-2020/user/ulib.c:61
     c76:	060a                	slli	a2,a2,0x2
/home/one/xv6-labs-2020/user/ulib.c:69
     c78:	00090003          	lb	zero,0(s2)
     c7c:	0100                	addi	s0,sp,128
/home/one/xv6-labs-2020/user/ulib.c:71
     c7e:	1205                	addi	tp,tp,-31
     c80:	02090003          	lb	zero,32(s2)
     c84:	0100                	addi	s0,sp,128
     c86:	0505                	addi	a0,a0,1
     c88:	0306                	slli	t1,t1,0x1
     c8a:	0901                	addi	s2,s2,0
     c8c:	0004                	0x4
     c8e:	0501                	addi	a0,a0,0
     c90:	0601                	addi	a2,a2,0
     c92:	00091403          	lh	s0,0(s2)
stat():
/home/one/xv6-labs-2020/user/ulib.c:75
     c96:	0100                	addi	s0,sp,128
     c98:	0505                	addi	a0,a0,1
     c9a:	0306                	slli	t1,t1,0x1
     c9c:	000c096f          	jal	s2,c0c9c <__global_pointer$+0xbf034>
     ca0:	0301                	addi	t1,t1,0
     ca2:	0901                	addi	s2,s2,0
/home/one/xv6-labs-2020/user/ulib.c:79
     ca4:	0000                	unimp
     ca6:	0301                	addi	t1,t1,0
     ca8:	0901                	addi	s2,s2,0
     caa:	000a                	c.slli	zero,0x2
     cac:	0301                	addi	t1,t1,0
/home/one/xv6-labs-2020/user/ulib.c:80
     cae:	0901                	addi	s2,s2,0
     cb0:	000a                	c.slli	zero,0x2
     cb2:	0301                	addi	t1,t1,0
/home/one/xv6-labs-2020/user/ulib.c:82
     cb4:	00020903          	lb	s2,0(tp) # 0 <getcmd>
     cb8:	0301                	addi	t1,t1,0
     cba:	0901                	addi	s2,s2,0
     cbc:	0000                	unimp
     cbe:	0301                	addi	t1,t1,0
/home/one/xv6-labs-2020/user/ulib.c:83
     cc0:	0901                	addi	s2,s2,0
     cc2:	000a                	c.slli	zero,0x2
     cc4:	0301                	addi	t1,t1,0
     cc6:	0901                	addi	s2,s2,0
     cc8:	000a                	c.slli	zero,0x2
/home/one/xv6-labs-2020/user/ulib.c:85
     cca:	0301                	addi	t1,t1,0
     ccc:	00020903          	lb	s2,0(tp) # 0 <getcmd>
     cd0:	0301                	addi	t1,t1,0
     cd2:	0901                	addi	s2,s2,0
     cd4:	0000                	unimp
     cd6:	0301                	addi	t1,t1,0
/home/one/xv6-labs-2020/user/ulib.c:81
     cd8:	0901                	addi	s2,s2,0
     cda:	000a                	c.slli	zero,0x2
atoi():
/home/one/xv6-labs-2020/user/ulib.c:89
     cdc:	0501                	addi	a0,a0,0
     cde:	0301                	addi	t1,t1,0
     ce0:	7edf 0209 0100      	0x10002097edf
/home/one/xv6-labs-2020/user/ulib.c:93
     ce6:	0305                	addi	t1,t1,1
     ce8:	10090103          	lb	sp,256(s2)
     cec:	0100                	addi	s0,sp,128
     cee:	00090103          	lb	sp,0(s2)
     cf2:	0100                	addi	s0,sp,128
     cf4:	00090203          	lb	tp,0(s2)
     cf8:	0100                	addi	s0,sp,128
/home/one/xv6-labs-2020/user/ulib.c:94
     cfa:	0a05                	addi	s4,s4,1
     cfc:	0306                	slli	t1,t1,0x1
     cfe:	0900                	addi	s0,sp,144
     d00:	0000                	unimp
     d02:	0501                	addi	a0,a0,0
     d04:	030c                	addi	a1,sp,384
     d06:	0900                	addi	s0,sp,144
     d08:	0002                	c.slli64	zero
     d0a:	0501                	addi	a0,a0,0
/home/one/xv6-labs-2020/user/ulib.c:93
     d0c:	0306                	slli	t1,t1,0x1
     d0e:	0900                	addi	s0,sp,144
     d10:	000c                	0xc
     d12:	0501                	addi	a0,a0,0
     d14:	01030603          	lb	a2,16(t1)
     d18:	0209                	addi	tp,tp,2
     d1a:	0100                	addi	s0,sp,128
/home/one/xv6-labs-2020/user/ulib.c:96
     d1c:	0905                	addi	s2,s2,1
     d1e:	0306                	slli	t1,t1,0x1
     d20:	0900                	addi	s0,sp,144
/home/one/xv6-labs-2020/user/ulib.c:92
     d22:	0000                	unimp
     d24:	0501                	addi	a0,a0,0
memmove():
/home/one/xv6-labs-2020/user/ulib.c:100
     d26:	01030603          	lb	a2,16(t1)
     d2a:	1009                	c.nop	-30
/home/one/xv6-labs-2020/user/ulib.c:106
     d2c:	0100                	addi	s0,sp,128
     d2e:	16090103          	lb	sp,352(s2)
/home/one/xv6-labs-2020/user/ulib.c:107
     d32:	0100                	addi	s0,sp,128
     d34:	0805                	addi	a6,a6,1
     d36:	0306                	slli	t1,t1,0x1
     d38:	0900                	addi	s0,sp,144
     d3a:	0000                	unimp
     d3c:	0501                	addi	a0,a0,0
     d3e:	0305                	addi	t1,t1,1
/home/one/xv6-labs-2020/user/ulib.c:104
     d40:	0900                	addi	s0,sp,144
/home/one/xv6-labs-2020/user/ulib.c:108
     d42:	0004                	0x4
     d44:	0501                	addi	a0,a0,0
     d46:	04030603          	lb	a2,64(t1)
     d4a:	0409                	addi	s0,s0,2
     d4c:	0100                	addi	s0,sp,128
/home/one/xv6-labs-2020/user/ulib.c:107
     d4e:	0a090103          	lb	sp,160(s2)
/home/one/xv6-labs-2020/user/ulib.c:116
     d52:	0100                	addi	s0,sp,128
     d54:	0105                	addi	sp,sp,1
     d56:	0306                	slli	t1,t1,0x1
/home/one/xv6-labs-2020/user/ulib.c:110
     d58:	0901                	addi	s2,s2,0
     d5a:	0000                	unimp
/home/one/xv6-labs-2020/user/ulib.c:111
     d5c:	0501                	addi	a0,a0,0
/home/one/xv6-labs-2020/user/ulib.c:112
     d5e:	0605                	addi	a2,a2,1
     d60:	0e097b03          	0xe097b03
     d64:	0100                	addi	s0,sp,128
     d66:	12090103          	lb	sp,288(s2)
     d6a:	0100                	addi	s0,sp,128
     d6c:	0105                	addi	sp,sp,1
     d6e:	097ec003          	lbu	zero,151(t4)
/home/one/xv6-labs-2020/user/ulib.c:113
     d72:	0010                	0x10
     d74:	0501                	addi	a0,a0,0
     d76:	09010303          	lb	t1,144(sp)
     d7a:	0012                	c.slli	zero,0x4
/home/one/xv6-labs-2020/user/ulib.c:112
     d7c:	0301                	addi	t1,t1,0
     d7e:	0901                	addi	s2,s2,0
     d80:	0000                	unimp
memcmp():
/home/one/xv6-labs-2020/user/ulib.c:120
     d82:	0301                	addi	t1,t1,0
     d84:	00000903          	lb	s2,0(zero) # 0 <getcmd>
/home/one/xv6-labs-2020/user/ulib.c:122
     d88:	0501                	addi	a0,a0,0
     d8a:	0003060f          	0x3060f
/home/one/xv6-labs-2020/user/ulib.c:123
     d8e:	0009                	c.nop	2
     d90:	0100                	addi	s0,sp,128
     d92:	0805                	addi	a6,a6,1
     d94:	14090003          	lb	zero,320(s2)
     d98:	0100                	addi	s0,sp,128
     d9a:	0505                	addi	a0,a0,1
     d9c:	0306                	slli	t1,t1,0x1
     d9e:	0901                	addi	s2,s2,0
     da0:	0004                	0x4
/home/one/xv6-labs-2020/user/ulib.c:126
     da2:	0501                	addi	a0,a0,0
/home/one/xv6-labs-2020/user/ulib.c:127
     da4:	00030607          	0x30607
/home/one/xv6-labs-2020/user/ulib.c:122
     da8:	0009                	c.nop	2
/home/one/xv6-labs-2020/user/ulib.c:123
     daa:	0100                	addi	s0,sp,128
     dac:	0306                	slli	t1,t1,0x1
     dae:	0901                	addi	s2,s2,0
     db0:	0006                	c.slli	zero,0x1
     db2:	0301                	addi	t1,t1,0
     db4:	0901                	addi	s2,s2,0
/home/one/xv6-labs-2020/user/ulib.c:124
     db6:	0008                	0x8
     db8:	0501                	addi	a0,a0,0
/home/one/xv6-labs-2020/user/ulib.c:130
     dba:	0609                	addi	a2,a2,2
     dbc:	00090503          	lb	a0,0(s2)
/home/one/xv6-labs-2020/user/ulib.c:129
     dc0:	0100                	addi	s0,sp,128
     dc2:	0705                	addi	a4,a4,1
     dc4:	08090103          	lb	sp,128(s2)
memcpy():
/home/one/xv6-labs-2020/user/ulib.c:134
     dc8:	0100                	addi	s0,sp,128
     dca:	2705                	addiw	a4,a4,1
     dcc:	04090003          	lb	zero,64(s2)
/home/one/xv6-labs-2020/user/ulib.c:135
     dd0:	0100                	addi	s0,sp,128
     dd2:	0a05                	addi	s4,s4,1
     dd4:	04090303          	lb	t1,64(s2)
/home/one/xv6-labs-2020/user/ulib.c:136
     dd8:	0100                	addi	s0,sp,128
     dda:	0905                	addi	s2,s2,1
     ddc:	08090103          	lb	sp,128(s2)
/home/one/xv6-labs-2020/user/usys.S:5
     de0:	0100                	addi	s0,sp,128
/home/one/xv6-labs-2020/user/usys.S:6
     de2:	0505                	addi	a0,a0,1
     de4:	0306                	slli	t1,t1,0x1
/home/one/xv6-labs-2020/user/usys.S:7
     de6:	000a0903          	lb	s2,0(s4)
/home/one/xv6-labs-2020/user/usys.S:11
     dea:	0501                	addi	a0,a0,0
     dec:	0608                	addi	a0,sp,768
/home/one/xv6-labs-2020/user/usys.S:12
     dee:	00090003          	lb	zero,0(s2)
/home/one/xv6-labs-2020/user/usys.S:16
     df2:	0100                	addi	s0,sp,128
     df4:	0705                	addi	a4,a4,1
/home/one/xv6-labs-2020/user/usys.S:17
     df6:	08090003          	lb	zero,128(s2)
/home/one/xv6-labs-2020/user/usys.S:21
     dfa:	0100                	addi	s0,sp,128
     dfc:	0505                	addi	a0,a0,1
/home/one/xv6-labs-2020/user/usys.S:22
     dfe:	0306                	slli	t1,t1,0x1
/home/one/xv6-labs-2020/user/usys.S:25
     e00:	0902                	c.slli64	s2
/home/one/xv6-labs-2020/user/usys.S:26
     e02:	0002                	c.slli64	zero
     e04:	0501                	addi	a0,a0,0
/home/one/xv6-labs-2020/user/usys.S:27
     e06:	0609                	addi	a2,a2,2
/home/one/xv6-labs-2020/user/usys.S:30
     e08:	0a097603          	0xa097603
/home/one/xv6-labs-2020/user/usys.S:31
     e0c:	0100                	addi	s0,sp,128
/home/one/xv6-labs-2020/user/usys.S:32
     e0e:	0805                	addi	a6,a6,1
/home/one/xv6-labs-2020/user/usys.S:35
     e10:	0e090003          	lb	zero,224(s2)
/home/one/xv6-labs-2020/user/usys.S:36
     e14:	0100                	addi	s0,sp,128
/home/one/xv6-labs-2020/user/usys.S:37
     e16:	0505                	addi	a0,a0,1
/home/one/xv6-labs-2020/user/usys.S:40
     e18:	0306                	slli	t1,t1,0x1
/home/one/xv6-labs-2020/user/usys.S:41
     e1a:	0901                	addi	s2,s2,0
     e1c:	0004                	0x4
/home/one/xv6-labs-2020/user/usys.S:42
     e1e:	0501                	addi	a0,a0,0
/home/one/xv6-labs-2020/user/usys.S:45
     e20:	00030607          	0x30607
/home/one/xv6-labs-2020/user/usys.S:46
     e24:	0009                	c.nop	2
/home/one/xv6-labs-2020/user/usys.S:47
     e26:	0100                	addi	s0,sp,128
/home/one/xv6-labs-2020/user/usys.S:50
     e28:	1605                	addi	a2,a2,-31
/home/one/xv6-labs-2020/user/usys.S:51
     e2a:	0200                	addi	s0,sp,256
     e2c:	0104                	addi	s1,sp,128
/home/one/xv6-labs-2020/user/usys.S:52
     e2e:	08090003          	lb	zero,128(s2)
/home/one/xv6-labs-2020/user/usys.S:56
     e32:	0100                	addi	s0,sp,128
     e34:	2705                	addiw	a4,a4,1
/home/one/xv6-labs-2020/user/usys.S:57
     e36:	0200                	addi	s0,sp,256
/home/one/xv6-labs-2020/user/usys.S:60
     e38:	0204                	addi	s1,sp,256
/home/one/xv6-labs-2020/user/usys.S:61
     e3a:	0c090003          	lb	zero,192(s2)
/home/one/xv6-labs-2020/user/usys.S:62
     e3e:	0100                	addi	s0,sp,128
/home/one/xv6-labs-2020/user/usys.S:65
     e40:	0705                	addi	a4,a4,1
/home/one/xv6-labs-2020/user/usys.S:66
     e42:	0306                	slli	t1,t1,0x1
     e44:	0902                	c.slli64	s2
/home/one/xv6-labs-2020/user/usys.S:67
     e46:	0008                	0x8
/home/one/xv6-labs-2020/user/usys.S:70
     e48:	0501                	addi	a0,a0,0
/home/one/xv6-labs-2020/user/usys.S:71
     e4a:	0003060b          	0x3060b
/home/one/xv6-labs-2020/user/usys.S:72
     e4e:	0009                	c.nop	2
/home/one/xv6-labs-2020/user/usys.S:75
     e50:	0100                	addi	s0,sp,128
/home/one/xv6-labs-2020/user/usys.S:76
     e52:	1605                	addi	a2,a2,-31
     e54:	0a090003          	lb	zero,160(s2)
/home/one/xv6-labs-2020/user/usys.S:80
     e58:	0100                	addi	s0,sp,128
/home/one/xv6-labs-2020/user/usys.S:81
     e5a:	1a05                	addi	s4,s4,-31
     e5c:	04090003          	lb	zero,64(s2)
/home/one/xv6-labs-2020/user/usys.S:85
     e60:	0100                	addi	s0,sp,128
/home/one/xv6-labs-2020/user/usys.S:86
     e62:	0705                	addi	a4,a4,1
     e64:	0306                	slli	t1,t1,0x1
/home/one/xv6-labs-2020/user/usys.S:87
     e66:	0901                	addi	s2,s2,0
/home/one/xv6-labs-2020/user/usys.S:90
     e68:	000a                	c.slli	zero,0x2
/home/one/xv6-labs-2020/user/usys.S:91
     e6a:	0501                	addi	a0,a0,0
     e6c:	060a                	slli	a2,a2,0x2
/home/one/xv6-labs-2020/user/usys.S:92
     e6e:	00090003          	lb	zero,0(s2)
/home/one/xv6-labs-2020/user/usys.S:96
     e72:	0100                	addi	s0,sp,128
     e74:	0905                	addi	s2,s2,1
/home/one/xv6-labs-2020/user/usys.S:97
     e76:	0a090003          	lb	zero,160(s2)
/home/one/xv6-labs-2020/user/usys.S:101
     e7a:	0100                	addi	s0,sp,128
     e7c:	0306                	slli	t1,t1,0x1
/home/one/xv6-labs-2020/user/usys.S:102
     e7e:	0901                	addi	s2,s2,0
/home/one/xv6-labs-2020/user/usys.S:105
     e80:	0004                	0x4
/home/one/xv6-labs-2020/user/usys.S:106
     e82:	0501                	addi	a0,a0,0
     e84:	09040307          	0x9040307
putc():
/home/one/xv6-labs-2020/user/printf.c:11
     e88:	0010                	0x10
     e8a:	0501                	addi	a0,a0,0
     e8c:	09030303          	lb	t1,144(t1)
     e90:	0018                	0x18
     e92:	0901                	addi	s2,s2,0
/home/one/xv6-labs-2020/user/printf.c:12
     e94:	000a                	c.slli	zero,0x2
     e96:	0100                	addi	s0,sp,128
     e98:	fa01                	bnez	a2,da8 <memcmp+0x26>
     e9a:	0005                	c.nop	1
     e9c:	0300                	addi	s0,sp,384
     e9e:	5100                	lw	s0,32(a0)
     ea0:	0000                	unimp
/home/one/xv6-labs-2020/user/printf.c:13
     ea2:	0100                	addi	s0,sp,128
     ea4:	fb01                	bnez	a4,db4 <memcmp+0x32>
     ea6:	0d0e                	slli	s10,s10,0x3
     ea8:	0100                	addi	s0,sp,128
printint():
/home/one/xv6-labs-2020/user/printf.c:17
     eaa:	0101                	addi	sp,sp,0
     eac:	0001                	nop
     eae:	0000                	unimp
     eb0:	0001                	nop
     eb2:	0100                	addi	s0,sp,128
     eb4:	7375                	lui	t1,0xffffd
     eb6:	7265                	lui	tp,0xffff9
/home/one/xv6-labs-2020/user/printf.c:23
     eb8:	2e00                	fld	fs0,24(a2)
/home/one/xv6-labs-2020/user/printf.c:23 (discriminator 1)
     eba:	72656b2f          	0x72656b2f
/home/one/xv6-labs-2020/user/printf.c:27
     ebe:	656e                	ld	a0,216(sp)
/home/one/xv6-labs-2020/user/printf.c:22
     ec0:	006c                	addi	a1,sp,12
     ec2:	2f2e                	fld	ft10,200(sp)
     ec4:	7375                	lui	t1,0xffffd
/home/one/xv6-labs-2020/user/printf.c:30
     ec6:	7265                	lui	tp,0xffff9
/home/one/xv6-labs-2020/user/printf.c:32
     ec8:	0000                	unimp
     eca:	6c75                	lui	s8,0x1d
     ecc:	6269                	lui	tp,0x1a
     ece:	632e                	ld	t1,200(sp)
     ed0:	0100                	addi	s0,sp,128
     ed2:	0000                	unimp
/home/one/xv6-labs-2020/user/printf.c:25
     ed4:	7974                	ld	a3,240(a0)
     ed6:	6570                	ld	a2,200(a0)
/home/one/xv6-labs-2020/user/printf.c:24
     ed8:	00682e73          	csrrs	t3,0x6,a6
/home/one/xv6-labs-2020/user/printf.c:33
     edc:	0002                	c.slli64	zero
/home/one/xv6-labs-2020/user/printf.c:32
     ede:	7300                	ld	s0,32(a4)
/home/one/xv6-labs-2020/user/printf.c:32 (discriminator 1)
     ee0:	6174                	ld	a3,192(a0)
     ee2:	2e74                	fld	fa3,216(a2)
     ee4:	0068                	addi	a0,sp,12
     ee6:	0002                	c.slli64	zero
     ee8:	7500                	ld	s0,40(a0)
     eea:	2e726573          	csrrsi	a0,0x2e7,4
     eee:	0068                	addi	a0,sp,12
     ef0:	00000003          	lb	zero,0(zero) # 0 <getcmd>
     ef4:	0105                	addi	sp,sp,1
     ef6:	0900                	addi	s0,sp,144
/home/one/xv6-labs-2020/user/printf.c:33 (discriminator 1)
     ef8:	5802                	lw	a6,32(sp)
     efa:	0000000b          	0xb
     efe:	0000                	unimp
/home/one/xv6-labs-2020/user/printf.c:34
     f00:	1900                	addi	s0,sp,176
     f02:	0305                	addi	t1,t1,1
/home/one/xv6-labs-2020/user/printf.c:35
     f04:	06090103          	lb	sp,96(s2)
     f08:	0100                	addi	s0,sp,128
     f0a:	00090203          	lb	tp,0(s2)
     f0e:	0100                	addi	s0,sp,128
     f10:	00090103          	lb	sp,0(s2)
     f14:	0100                	addi	s0,sp,128
/home/one/xv6-labs-2020/user/printf.c:37
     f16:	0805                	addi	a6,a6,1
     f18:	0306                	slli	t1,t1,0x1
     f1a:	0900                	addi	s0,sp,144
     f1c:	0000                	unimp
     f1e:	0501                	addi	a0,a0,0
     f20:	0005                	c.nop	1
     f22:	0402                	c.slli64	s0
     f24:	0601                	addi	a2,a2,0
     f26:	02090103          	lb	sp,32(s2)
     f2a:	0100                	addi	s0,sp,128
     f2c:	1305                	addi	t1,t1,-31
     f2e:	0200                	addi	s0,sp,256
     f30:	0104                	addi	s1,sp,128
     f32:	0306                	slli	t1,t1,0x1
/home/one/xv6-labs-2020/user/printf.c:38
     f34:	097f                	0x97f
     f36:	0000                	unimp
     f38:	0501                	addi	a0,a0,0
     f3a:	000c                	0xc
     f3c:	0402                	c.slli64	s0
     f3e:	0301                	addi	t1,t1,0
     f40:	0900                	addi	s0,sp,144
     f42:	0002                	c.slli64	zero
/home/one/xv6-labs-2020/user/printf.c:37
     f44:	0501                	addi	a0,a0,0
     f46:	0011                	c.nop	4
/home/one/xv6-labs-2020/user/printf.c:39
     f48:	0402                	c.slli64	s0
     f4a:	0301                	addi	t1,t1,0
     f4c:	0900                	addi	s0,sp,144
     f4e:	0002                	c.slli64	zero
     f50:	0501                	addi	a0,a0,0
     f52:	0402000f          	0x402000f
vprintf():
/home/one/xv6-labs-2020/user/printf.c:53
     f56:	0301                	addi	t1,t1,0
     f58:	0900                	addi	s0,sp,144
     f5a:	0004                	0x4
     f5c:	0501                	addi	a0,a0,0
     f5e:	0008                	0x8
     f60:	0402                	c.slli64	s0
     f62:	0301                	addi	t1,t1,0
     f64:	0900                	addi	s0,sp,144
     f66:	0004                	0x4
     f68:	0501                	addi	a0,a0,0
     f6a:	0301                	addi	t1,t1,0
     f6c:	00020903          	lb	s2,0(tp) # 1a000 <__global_pointer$+0x18398>
     f70:	0601                	addi	a2,a2,0
     f72:	06090403          	lb	s0,96(s2)
/home/one/xv6-labs-2020/user/printf.c:58
     f76:	0100                	addi	s0,sp,128
     f78:	0305                	addi	t1,t1,1
     f7a:	06090103          	lb	sp,96(s2)
     f7e:	0100                	addi	s0,sp,128
     f80:	0905                	addi	s2,s2,1
     f82:	0306                	slli	t1,t1,0x1
/home/one/xv6-labs-2020/user/printf.c:57
     f84:	0900                	addi	s0,sp,144
/home/one/xv6-labs-2020/user/printf.c:66
     f86:	0000                	unimp
     f88:	0501                	addi	a0,a0,0
/home/one/xv6-labs-2020/user/printf.c:67
     f8a:	0308                	addi	a0,sp,384
     f8c:	0900                	addi	s0,sp,144
/home/one/xv6-labs-2020/user/printf.c:69
     f8e:	0004                	0x4
     f90:	0501                	addi	a0,a0,0
/home/one/xv6-labs-2020/user/printf.c:71
     f92:	030c                	addi	a1,sp,384
     f94:	0900                	addi	s0,sp,144
/home/one/xv6-labs-2020/user/printf.c:73
     f96:	0002                	c.slli64	zero
     f98:	0501                	addi	a0,a0,0
printptr():
/home/one/xv6-labs-2020/user/printf.c:47
     f9a:	0605                	addi	a2,a2,1
     f9c:	08090103          	lb	sp,128(s2)
     fa0:	0100                	addi	s0,sp,128
     fa2:	0605                	addi	a2,a2,1
vprintf():
/home/one/xv6-labs-2020/user/printf.c:64
     fa4:	0306                	slli	t1,t1,0x1
     fa6:	0900                	addi	s0,sp,144
     fa8:	0000                	unimp
     faa:	0501                	addi	a0,a0,0
     fac:	0900030b          	0x900030b
     fb0:	0002                	c.slli64	zero
/home/one/xv6-labs-2020/user/printf.c:66
     fb2:	0501                	addi	a0,a0,0
     fb4:	0309                	addi	t1,t1,2
     fb6:	097f                	0x97f
/home/one/xv6-labs-2020/user/printf.c:58 (discriminator 2)
     fb8:	0002                	c.slli64	zero
     fba:	0501                	addi	a0,a0,0
     fbc:	0308                	addi	a0,sp,384
     fbe:	0900                	addi	s0,sp,144
/home/one/xv6-labs-2020/user/printf.c:59
     fc0:	0004                	0x4
     fc2:	0501                	addi	a0,a0,0
/home/one/xv6-labs-2020/user/printf.c:60
     fc4:	000c                	0xc
     fc6:	0402                	c.slli64	s0
/home/one/xv6-labs-2020/user/printf.c:61
     fc8:	0301                	addi	t1,t1,0
     fca:	0900                	addi	s0,sp,144
/home/one/xv6-labs-2020/user/printf.c:62
     fcc:	0002                	c.slli64	zero
     fce:	0501                	addi	a0,a0,0
/home/one/xv6-labs-2020/user/printf.c:67
     fd0:	02030603          	lb	a2,32(t1) # ffffffffffffd020 <__global_pointer$+0xffffffffffffb3b8>
/home/one/xv6-labs-2020/user/printf.c:69
     fd4:	0809                	addi	a6,a6,2
     fd6:	0100                	addi	s0,sp,128
/home/one/xv6-labs-2020/user/printf.c:71
     fd8:	1605                	addi	a2,a2,-31
     fda:	0306                	slli	t1,t1,0x1
/home/one/xv6-labs-2020/user/printf.c:73
     fdc:	0900                	addi	s0,sp,144
     fde:	0000                	unimp
/home/one/xv6-labs-2020/user/printf.c:75
     fe0:	0501                	addi	a0,a0,0
     fe2:	0301                	addi	t1,t1,0
     fe4:	0901                	addi	s2,s2,0
     fe6:	0004                	0x4
/home/one/xv6-labs-2020/user/printf.c:83
     fe8:	0601                	addi	a2,a2,0
     fea:	0a090403          	lb	s0,160(s2)
     fee:	0100                	addi	s0,sp,128
/home/one/xv6-labs-2020/user/printf.c:85
     ff0:	0305                	addi	t1,t1,1
     ff2:	06090103          	lb	sp,96(s2)
/home/one/xv6-labs-2020/user/printf.c:89
     ff6:	0100                	addi	s0,sp,128
     ff8:	00090203          	lb	tp,0(s2)
     ffc:	0100                	addi	s0,sp,128
     ffe:	0505                	addi	a0,a0,1
/home/one/xv6-labs-2020/user/printf.c:90
    1000:	0200                	addi	s0,sp,256
    1002:	0304                	addi	s1,sp,384
    1004:	0e090103          	lb	sp,224(s2)
    1008:	0100                	addi	s0,sp,128
    100a:	0305                	addi	t1,t1,1
/home/one/xv6-labs-2020/user/printf.c:92
    100c:	0200                	addi	s0,sp,256
    100e:	0304                	addi	s1,sp,384
/home/one/xv6-labs-2020/user/printf.c:68
    1010:	0306                	slli	t1,t1,0x1
    1012:	097f                	0x97f
    1014:	0006                	c.slli	zero,0x1
    1016:	0601                	addi	a2,a2,0
    1018:	06090203          	lb	tp,96(s2)
    101c:	0100                	addi	s0,sp,128
    101e:	0105                	addi	sp,sp,1
    1020:	0306                	slli	t1,t1,0x1
    1022:	0901                	addi	s2,s2,0
    1024:	0000                	unimp
    1026:	0501                	addi	a0,a0,0
/home/one/xv6-labs-2020/user/printf.c:92
    1028:	0309                	addi	t1,t1,2
    102a:	097d                	addi	s2,s2,31
/home/one/xv6-labs-2020/user/printf.c:70
    102c:	0006                	c.slli	zero,0x1
    102e:	0501                	addi	a0,a0,0
    1030:	0601                	addi	a2,a2,0
    1032:	04090703          	lb	a4,64(s2)
    1036:	0100                	addi	s0,sp,128
    1038:	0305                	addi	t1,t1,1
    103a:	06090103          	lb	sp,96(s2)
    103e:	0100                	addi	s0,sp,128
    1040:	00090103          	lb	sp,0(s2)
/home/one/xv6-labs-2020/user/printf.c:92
    1044:	0100                	addi	s0,sp,128
    1046:	00090103          	lb	sp,0(s2)
/home/one/xv6-labs-2020/user/printf.c:72
    104a:	0100                	addi	s0,sp,128
    104c:	0505                	addi	a0,a0,1
    104e:	0200                	addi	s0,sp,256
    1050:	0304                	addi	s1,sp,384
    1052:	10090103          	lb	sp,256(s2)
    1056:	0100                	addi	s0,sp,128
    1058:	0d05                	addi	s10,s10,1
    105a:	0200                	addi	s0,sp,256
    105c:	0304                	addi	s1,sp,384
    105e:	0306                	slli	t1,t1,0x1
/home/one/xv6-labs-2020/user/printf.c:92
    1060:	0900                	addi	s0,sp,144
    1062:	0000                	unimp
/home/one/xv6-labs-2020/user/printf.c:74
    1064:	0501                	addi	a0,a0,0
    1066:	04020003          	lb	zero,64(tp) # 40 <getcmd+0x40>
    106a:	097f0303          	lb	t1,151(t5)
    106e:	0006                	c.slli	zero,0x1
printptr():
/home/one/xv6-labs-2020/user/printf.c:44
    1070:	0601                	addi	a2,a2,0
    1072:	04090303          	lb	t1,64(s2)
    1076:	0100                	addi	s0,sp,128
    1078:	0105                	addi	sp,sp,1
    107a:	0306                	slli	t1,t1,0x1
    107c:	0901                	addi	s2,s2,0
/home/one/xv6-labs-2020/user/printf.c:45
    107e:	0000                	unimp
    1080:	0601                	addi	a2,a2,0
    1082:	06090403          	lb	s0,96(s2)
    1086:	0100                	addi	s0,sp,128
    1088:	0305                	addi	t1,t1,1
    108a:	06090103          	lb	sp,96(s2)
/home/one/xv6-labs-2020/user/printf.c:47
    108e:	0100                	addi	s0,sp,128
    1090:	0905                	addi	s2,s2,1
    1092:	0306                	slli	t1,t1,0x1
    1094:	0900                	addi	s0,sp,144
    1096:	0000                	unimp
    1098:	0501                	addi	a0,a0,0
    109a:	09000303          	lb	t1,144(zero) # 90 <fork1+0x16>
    109e:	0004                	0x4
/home/one/xv6-labs-2020/user/printf.c:46
    10a0:	0501                	addi	a0,a0,0
    10a2:	0605                	addi	a2,a2,1
    10a4:	02090103          	lb	sp,32(s2)
vprintf():
/home/one/xv6-labs-2020/user/printf.c:74
    10a8:	0100                	addi	s0,sp,128
/home/one/xv6-labs-2020/user/printf.c:92
    10aa:	0705                	addi	a4,a4,1
    10ac:	0306                	slli	t1,t1,0x1
/home/one/xv6-labs-2020/user/printf.c:76
    10ae:	0900                	addi	s0,sp,144
    10b0:	0000                	unimp
    10b2:	0501                	addi	a0,a0,0
    10b4:	030e                	slli	t1,t1,0x3
/home/one/xv6-labs-2020/user/printf.c:77
    10b6:	097f                	0x97f
/home/one/xv6-labs-2020/user/printf.c:79
    10b8:	0004                	0x4
    10ba:	0501                	addi	a0,a0,0
    10bc:	0309                	addi	t1,t1,2
/home/one/xv6-labs-2020/user/printf.c:80
    10be:	0900                	addi	s0,sp,144
    10c0:	0002                	c.slli64	zero
    10c2:	0501                	addi	a0,a0,0
    10c4:	09000303          	lb	t1,144(zero) # 90 <fork1+0x16>
/home/one/xv6-labs-2020/user/printf.c:81
    10c8:	0004                	0x4
/home/one/xv6-labs-2020/user/printf.c:79
    10ca:	0501                	addi	a0,a0,0
    10cc:	0605                	addi	a2,a2,1
    10ce:	02090103          	lb	sp,32(s2)
/home/one/xv6-labs-2020/user/printf.c:92
    10d2:	0100                	addi	s0,sp,128
    10d4:	0705                	addi	a4,a4,1
/home/one/xv6-labs-2020/user/printf.c:78
    10d6:	0306                	slli	t1,t1,0x1
    10d8:	0900                	addi	s0,sp,144
    10da:	0000                	unimp
    10dc:	0501                	addi	a0,a0,0
/home/one/xv6-labs-2020/user/printf.c:79
    10de:	030a                	slli	t1,t1,0x2
    10e0:	0902                	c.slli64	s2
    10e2:	0006                	c.slli	zero,0x1
/home/one/xv6-labs-2020/user/printf.c:84
    10e4:	0501                	addi	a0,a0,0
    10e6:	0301                	addi	t1,t1,0
    10e8:	0901                	addi	s2,s2,0
    10ea:	0002                	c.slli64	zero
    10ec:	0501                	addi	a0,a0,0
    10ee:	030a                	slli	t1,t1,0x2
    10f0:	097f                	0x97f
    10f2:	0006                	c.slli	zero,0x1
    10f4:	0501                	addi	a0,a0,0
    10f6:	0601                	addi	a2,a2,0
/home/one/xv6-labs-2020/user/printf.c:92
    10f8:	04090503          	lb	a0,64(s2)
/home/one/xv6-labs-2020/user/printf.c:86
    10fc:	0100                	addi	s0,sp,128
    10fe:	0305                	addi	t1,t1,1
    1100:	1a090103          	lb	sp,416(s2)
    1104:	0100                	addi	s0,sp,128
    1106:	00090103          	lb	sp,0(s2)
/home/one/xv6-labs-2020/user/printf.c:92
    110a:	0100                	addi	s0,sp,128
/home/one/xv6-labs-2020/user/printf.c:76
    110c:	00090203          	lb	tp,0(s2)
/home/one/xv6-labs-2020/user/printf.c:92
    1110:	0100                	addi	s0,sp,128
/home/one/xv6-labs-2020/user/printf.c:95
    1112:	0805                	addi	a6,a6,1
    1114:	0306                	slli	t1,t1,0x1
    1116:	0900                	addi	s0,sp,144
    1118:	0002                	c.slli64	zero
    111a:	0501                	addi	a0,a0,0
    111c:	09050307          	0x9050307
    1120:	0002                	c.slli64	zero
    1122:	0501                	addi	a0,a0,0
    1124:	0312                	slli	t1,t1,0x4
    1126:	0900                	addi	s0,sp,144
    1128:	0002                	c.slli64	zero
    112a:	0501                	addi	a0,a0,0
    112c:	000d                	c.nop	3
    112e:	0402                	c.slli64	s0
fprintf():
/home/one/xv6-labs-2020/user/printf.c:99
    1130:	0301                	addi	t1,t1,0
    1132:	0002097b          	0x2097b
    1136:	0501                	addi	a0,a0,0
    1138:	04020003          	lb	zero,64(tp) # 40 <getcmd+0x40>
    113c:	0301                	addi	t1,t1,0
    113e:	0900                	addi	s0,sp,144
    1140:	0004                	0x4
    1142:	0501                	addi	a0,a0,0
    1144:	0605                	addi	a2,a2,1
    1146:	04090103          	lb	sp,64(s2)
/home/one/xv6-labs-2020/user/printf.c:102
    114a:	0100                	addi	s0,sp,128
/home/one/xv6-labs-2020/user/printf.c:103
    114c:	0a05                	addi	s4,s4,1
    114e:	0306                	slli	t1,t1,0x1
    1150:	0900                	addi	s0,sp,144
    1152:	0000                	unimp
    1154:	0501                	addi	a0,a0,0
/home/one/xv6-labs-2020/user/printf.c:104
    1156:	0605                	addi	a2,a2,1
    1158:	10090103          	lb	sp,256(s2)
    115c:	0100                	addi	s0,sp,128
printf():
/home/one/xv6-labs-2020/user/printf.c:108
    115e:	0705                	addi	a4,a4,1
    1160:	0306                	slli	t1,t1,0x1
    1162:	0900                	addi	s0,sp,144
    1164:	0000                	unimp
    1166:	0501                	addi	a0,a0,0
    1168:	0605                	addi	a2,a2,1
    116a:	04090203          	lb	tp,64(s2)
    116e:	0100                	addi	s0,sp,128
    1170:	0e05                	addi	t3,t3,1
    1172:	0306                	slli	t1,t1,0x1
    1174:	0900                	addi	s0,sp,144
    1176:	0000                	unimp
/home/one/xv6-labs-2020/user/printf.c:111
    1178:	0501                	addi	a0,a0,0
    117a:	0605                	addi	a2,a2,1
    117c:	08090103          	lb	sp,128(s2)
/home/one/xv6-labs-2020/user/printf.c:112
    1180:	0100                	addi	s0,sp,128
    1182:	0705                	addi	a4,a4,1
    1184:	0306                	slli	t1,t1,0x1
    1186:	0900                	addi	s0,sp,144
    1188:	0000                	unimp
    118a:	0501                	addi	a0,a0,0
/home/one/xv6-labs-2020/user/printf.c:113
    118c:	000d                	c.nop	3
    118e:	0402                	c.slli64	s0
    1190:	0301                	addi	t1,t1,0
    1192:	0006097b          	0x6097b
free():
/home/one/xv6-labs-2020/user/umalloc.c:26
    1196:	0501                	addi	a0,a0,0
    1198:	0012                	c.slli	zero,0x4
/home/one/xv6-labs-2020/user/umalloc.c:29
    119a:	0402                	c.slli64	s0
    119c:	0301                	addi	t1,t1,0
/home/one/xv6-labs-2020/user/umalloc.c:30
    119e:	0905                	addi	s2,s2,1
    11a0:	0002                	c.slli64	zero
    11a2:	0501                	addi	a0,a0,0
    11a4:	030d                	addi	t1,t1,3
    11a6:	0006097b          	0x6097b
/home/one/xv6-labs-2020/user/umalloc.c:34
    11aa:	0501                	addi	a0,a0,0
    11ac:	08030603          	lb	a2,128(t1)
    11b0:	0209                	addi	tp,tp,2
/home/one/xv6-labs-2020/user/umalloc.c:35
    11b2:	0100                	addi	s0,sp,128
    11b4:	0a05                	addi	s4,s4,1
    11b6:	0306                	slli	t1,t1,0x1
    11b8:	0900                	addi	s0,sp,144
    11ba:	0000                	unimp
/home/one/xv6-labs-2020/user/umalloc.c:39
    11bc:	0501                	addi	a0,a0,0
    11be:	01030603          	lb	a2,16(t1)
    11c2:	0609                	addi	a2,a2,2
/home/one/xv6-labs-2020/user/umalloc.c:40
    11c4:	0100                	addi	s0,sp,128
    11c6:	0105                	addi	sp,sp,1
    11c8:	0306                	slli	t1,t1,0x1
    11ca:	0901                	addi	s2,s2,0
/home/one/xv6-labs-2020/user/umalloc.c:31
    11cc:	0000                	unimp
    11ce:	0601                	addi	a2,a2,0
    11d0:	18090403          	lb	s0,384(s2)
/home/one/xv6-labs-2020/user/umalloc.c:31 (discriminator 2)
    11d4:	0100                	addi	s0,sp,128
/home/one/xv6-labs-2020/user/umalloc.c:26 (discriminator 1)
    11d6:	0305                	addi	t1,t1,1
/home/one/xv6-labs-2020/user/umalloc.c:30 (discriminator 1)
    11d8:	0e090103          	lb	sp,224(s2)
/home/one/xv6-labs-2020/user/umalloc.c:30 (discriminator 3)
    11dc:	0100                	addi	s0,sp,128
    11de:	00090103          	lb	sp,0(s2)
/home/one/xv6-labs-2020/user/umalloc.c:31
    11e2:	0100                	addi	s0,sp,128
    11e4:	00090203          	lb	tp,0(s2)
/home/one/xv6-labs-2020/user/umalloc.c:33
    11e8:	0100                	addi	s0,sp,128
    11ea:	0805                	addi	a6,a6,1
    11ec:	0306                	slli	t1,t1,0x1
    11ee:	0900                	addi	s0,sp,144
    11f0:	0000                	unimp
    11f2:	0501                	addi	a0,a0,0
    11f4:	01030603          	lb	a2,16(t1)
    11f8:	0a09                	addi	s4,s4,2
/home/one/xv6-labs-2020/user/umalloc.c:37
    11fa:	0100                	addi	s0,sp,128
    11fc:	0505                	addi	a0,a0,1
/home/one/xv6-labs-2020/user/umalloc.c:38
    11fe:	0306                	slli	t1,t1,0x1
    1200:	0900                	addi	s0,sp,144
    1202:	0000                	unimp
    1204:	0501                	addi	a0,a0,0
    1206:	02030603          	lb	a2,32(t1)
    120a:	0609                	addi	a2,a2,2
    120c:	0100                	addi	s0,sp,128
/home/one/xv6-labs-2020/user/umalloc.c:42
    120e:	0705                	addi	a4,a4,1
/home/one/xv6-labs-2020/user/umalloc.c:43
    1210:	0306                	slli	t1,t1,0x1
    1212:	0900                	addi	s0,sp,144
    1214:	0000                	unimp
    1216:	0501                	addi	a0,a0,0
/home/one/xv6-labs-2020/user/umalloc.c:44
    1218:	01030603          	lb	a2,16(t1)
    121c:	0c09                	addi	s8,s8,2
malloc():
/home/one/xv6-labs-2020/user/umalloc.c:65
    121e:	0100                	addi	s0,sp,128
    1220:	0a090103          	lb	sp,160(s2)
    1224:	0100                	addi	s0,sp,128
    1226:	0105                	addi	sp,sp,1
    1228:	0306                	slli	t1,t1,0x1
    122a:	0901                	addi	s2,s2,0
    122c:	0000                	unimp
    122e:	0501                	addi	a0,a0,0
    1230:	030c                	addi	a1,sp,384
/home/one/xv6-labs-2020/user/umalloc.c:69
    1232:	097c                	addi	a5,sp,156
    1234:	000e                	c.slli	zero,0x3
    1236:	0501                	addi	a0,a0,0
    1238:	0601                	addi	a2,a2,0
    123a:	04090803          	lb	a6,64(s2)
    123e:	0100                	addi	s0,sp,128
    1240:	0305                	addi	t1,t1,1
    1242:	06090103          	lb	sp,96(s2)
/home/one/xv6-labs-2020/user/umalloc.c:70
    1246:	0100                	addi	s0,sp,128
    1248:	00090203          	lb	tp,0(s2)
    124c:	0100                	addi	s0,sp,128
    124e:	00090103          	lb	sp,0(s2)
/home/one/xv6-labs-2020/user/umalloc.c:74
    1252:	0100                	addi	s0,sp,128
/home/one/xv6-labs-2020/user/umalloc.c:75
    1254:	1005                	c.nop	-31
    1256:	0306                	slli	t1,t1,0x1
    1258:	0900                	addi	s0,sp,144
    125a:	0000                	unimp
    125c:	0501                	addi	a0,a0,0
    125e:	09000313          	li	t1,144
    1262:	0004                	0x4
    1264:	0501                	addi	a0,a0,0
    1266:	0308                	addi	a0,sp,384
    1268:	0900                	addi	s0,sp,144
    126a:	0004                	0x4
morecore():
/home/one/xv6-labs-2020/user/umalloc.c:54
    126c:	0501                	addi	a0,a0,0
    126e:	0305                	addi	t1,t1,1
malloc():
/home/one/xv6-labs-2020/user/umalloc.c:86
    1270:	097f                	0x97f
    1272:	000c                	0xc
    1274:	0501                	addi	a0,a0,0
    1276:	0308                	addi	a0,sp,384
morecore():
/home/one/xv6-labs-2020/user/umalloc.c:55
    1278:	0901                	addi	s2,s2,0
    127a:	0002                	c.slli64	zero
malloc():
/home/one/xv6-labs-2020/user/umalloc.c:71
    127c:	0501                	addi	a0,a0,0
    127e:	0605                	addi	a2,a2,1
    1280:	02090103          	lb	sp,32(s2)
    1284:	0100                	addi	s0,sp,128
    1286:	1205                	addi	tp,tp,-31
    1288:	0306                	slli	t1,t1,0x1
    128a:	0900                	addi	s0,sp,144
    128c:	0000                	unimp
/home/one/xv6-labs-2020/user/umalloc.c:72
    128e:	0501                	addi	a0,a0,0
    1290:	030a                	slli	t1,t1,0x2
/home/one/xv6-labs-2020/user/umalloc.c:75
    1292:	0900                	addi	s0,sp,144
/home/one/xv6-labs-2020/user/umalloc.c:76
    1294:	0002                	c.slli64	zero
    1296:	0501                	addi	a0,a0,0
/home/one/xv6-labs-2020/user/umalloc.c:79
    1298:	030e                	slli	t1,t1,0x3
    129a:	0900                	addi	s0,sp,144
    129c:	000a                	c.slli	zero,0x2
/home/one/xv6-labs-2020/user/umalloc.c:80
    129e:	0501                	addi	a0,a0,0
    12a0:	09000307          	0x9000307
    12a4:	0002                	c.slli64	zero
/home/one/xv6-labs-2020/user/umalloc.c:81
    12a6:	0501                	addi	a0,a0,0
    12a8:	0310                	addi	a2,sp,384
/home/one/xv6-labs-2020/user/umalloc.c:83
    12aa:	097f                	0x97f
    12ac:	0004                	0x4
    12ae:	0501                	addi	a0,a0,0
    12b0:	09000313          	li	t1,144
/home/one/xv6-labs-2020/user/umalloc.c:84
    12b4:	0004                	0x4
/home/one/xv6-labs-2020/user/umalloc.c:90
    12b6:	0501                	addi	a0,a0,0
    12b8:	0308                	addi	a0,sp,384
    12ba:	0900                	addi	s0,sp,144
    12bc:	0004                	0x4
    12be:	0501                	addi	a0,a0,0
    12c0:	02030603          	lb	a2,32(t1)
    12c4:	0809                	addi	a6,a6,2
    12c6:	0100                	addi	s0,sp,128
    12c8:	0105                	addi	sp,sp,1
/home/one/xv6-labs-2020/user/umalloc.c:77
    12ca:	0306                	slli	t1,t1,0x1
    12cc:	0901                	addi	s2,s2,0
    12ce:	0000                	unimp
morecore():
/home/one/xv6-labs-2020/user/umalloc.c:58
    12d0:	0501                	addi	a0,a0,0
    12d2:	0305                	addi	t1,t1,1
/home/one/xv6-labs-2020/user/umalloc.c:59
    12d4:	097c                	addi	a5,sp,156
    12d6:	0006                	c.slli	zero,0x1
    12d8:	0501                	addi	a0,a0,0
    12da:	0601                	addi	a2,a2,0
    12dc:	04090803          	lb	a6,64(s2)
malloc():
/home/one/xv6-labs-2020/user/umalloc.c:87
    12e0:	0100                	addi	s0,sp,128
/home/one/xv6-labs-2020/user/umalloc.c:74
    12e2:	0305                	addi	t1,t1,1
/home/one/xv6-labs-2020/user/umalloc.c:75
    12e4:	06090103          	lb	sp,96(s2)
    12e8:	0100                	addi	s0,sp,128
/home/one/xv6-labs-2020/user/umalloc.c:86
    12ea:	00090103          	lb	sp,0(s2)
    12ee:	0100                	addi	s0,sp,128
    12f0:	00090203          	lb	tp,0(s2)
morecore():
/home/one/xv6-labs-2020/user/umalloc.c:54
    12f4:	0100                	addi	s0,sp,128
    12f6:	00090103          	lb	sp,0(s2)
    12fa:	0100                	addi	s0,sp,128
/home/one/xv6-labs-2020/user/umalloc.c:55
    12fc:	00090103          	lb	sp,0(s2)
malloc():
/home/one/xv6-labs-2020/user/umalloc.c:88
    1300:	0100                	addi	s0,sp,128
    1302:	0605                	addi	a2,a2,1
    1304:	0306                	slli	t1,t1,0x1
    1306:	0900                	addi	s0,sp,144
    1308:	0000                	unimp
    130a:	0501                	addi	a0,a0,0
    130c:	030a                	slli	t1,t1,0x2
    130e:	0901                	addi	s2,s2,0
    1310:	0004                	0x4
    1312:	0501                	addi	a0,a0,0
    1314:	097d0307          	0x97d0307
    1318:	0010                	0x10
    131a:	0601                	addi	a2,a2,0
    131c:	02090403          	lb	s0,32(s2)
    1320:	0100                	addi	s0,sp,128
    1322:	1405                	addi	s0,s0,-31
    1324:	0306                	slli	t1,t1,0x1
    1326:	0900                	addi	s0,sp,144
    1328:	0000                	unimp
    132a:	0501                	addi	a0,a0,0
    132c:	0900030b          	0x900030b
    1330:	0002                	c.slli64	zero
    1332:	0501                	addi	a0,a0,0
    1334:	0310                	addi	a2,sp,384
    1336:	0900                	addi	s0,sp,144
    1338:	0002                	c.slli64	zero
    133a:	0501                	addi	a0,a0,0
    133c:	030e                	slli	t1,t1,0x3
    133e:	0900                	addi	s0,sp,144
    1340:	0004                	0x4
    1342:	0501                	addi	a0,a0,0
    1344:	030a                	slli	t1,t1,0x2
    1346:	097f                	0x97f
    1348:	0004                	0x4
    134a:	0501                	addi	a0,a0,0
    134c:	08030603          	lb	a2,128(t1)
    1350:	0409                	addi	s0,s0,2
    1352:	0100                	addi	s0,sp,128
    1354:	0105                	addi	sp,sp,1
    1356:	0306                	slli	t1,t1,0x1
    1358:	0901                	addi	s2,s2,0
    135a:	0000                	unimp
    135c:	0501                	addi	a0,a0,0
    135e:	0605                	addi	a2,a2,1
    1360:	06097a03          	0x6097a03
    1364:	0100                	addi	s0,sp,128
    1366:	0905                	addi	s2,s2,1
    1368:	0306                	slli	t1,t1,0x1
    136a:	0900                	addi	s0,sp,144
    136c:	0000                	unimp
    136e:	0501                	addi	a0,a0,0
    1370:	0605                	addi	a2,a2,1
    1372:	04090103          	lb	sp,64(s2)
    1376:	0100                	addi	s0,sp,128
    1378:	0905                	addi	s2,s2,1
    137a:	0306                	slli	t1,t1,0x1
    137c:	0900                	addi	s0,sp,144
    137e:	0000                	unimp
    1380:	0501                	addi	a0,a0,0
    1382:	0605                	addi	a2,a2,1
    1384:	02090103          	lb	sp,32(s2)
    1388:	0100                	addi	s0,sp,128
    138a:	0a05                	addi	s4,s4,1
    138c:	0306                	slli	t1,t1,0x1
    138e:	0900                	addi	s0,sp,144
    1390:	0000                	unimp
    1392:	0501                	addi	a0,a0,0
    1394:	01030607          	0x1030607
    1398:	1209                	addi	tp,tp,-30
    139a:	0100                	addi	s0,sp,128
    139c:	0e05                	addi	t3,t3,1
    139e:	0306                	slli	t1,t1,0x1
    13a0:	0900                	addi	s0,sp,144
    13a2:	0000                	unimp
    13a4:	0501                	addi	a0,a0,0
    13a6:	0310                	addi	a2,sp,384
    13a8:	0900                	addi	s0,sp,144
    13aa:	0004                	0x4
    13ac:	0501                	addi	a0,a0,0
    13ae:	030e                	slli	t1,t1,0x3
    13b0:	0900                	addi	s0,sp,144
    13b2:	0004                	0x4
    13b4:	0501                	addi	a0,a0,0
    13b6:	030a                	slli	t1,t1,0x2
    13b8:	097f                	0x97f
    13ba:	0004                	0x4
    13bc:	0501                	addi	a0,a0,0
    13be:	0601                	addi	a2,a2,0
    13c0:	06090803          	lb	a6,96(s2)
    13c4:	0100                	addi	s0,sp,128
    13c6:	0305                	addi	t1,t1,1
    13c8:	06090103          	lb	sp,96(s2)
    13cc:	0100                	addi	s0,sp,128
    13ce:	00090103          	lb	sp,0(s2)
    13d2:	0100                	addi	s0,sp,128
    13d4:	0905                	addi	s2,s2,1
    13d6:	0306                	slli	t1,t1,0x1
    13d8:	0900                	addi	s0,sp,144
    13da:	0000                	unimp
    13dc:	0501                	addi	a0,a0,0
    13de:	0605                	addi	a2,a2,1
    13e0:	06090103          	lb	sp,96(s2)
    13e4:	0100                	addi	s0,sp,128
    13e6:	0905                	addi	s2,s2,1
    13e8:	0306                	slli	t1,t1,0x1
    13ea:	0900                	addi	s0,sp,144
    13ec:	0000                	unimp
    13ee:	0501                	addi	a0,a0,0
    13f0:	0310                	addi	a2,sp,384
    13f2:	0900                	addi	s0,sp,144
    13f4:	0004                	0x4
    13f6:	0501                	addi	a0,a0,0
    13f8:	0308                	addi	a0,sp,384
    13fa:	0900                	addi	s0,sp,144
    13fc:	0004                	0x4
    13fe:	0501                	addi	a0,a0,0
    1400:	0605                	addi	a2,a2,1
    1402:	0c090303          	lb	t1,192(s2)
    1406:	0100                	addi	s0,sp,128
    1408:	0705                	addi	a4,a4,1
    140a:	0306                	slli	t1,t1,0x1
    140c:	0900                	addi	s0,sp,144
    140e:	0000                	unimp
    1410:	0501                	addi	a0,a0,0
    1412:	0605                	addi	a2,a2,1
    1414:	02090103          	lb	sp,32(s2)
    1418:	0100                	addi	s0,sp,128
    141a:	0705                	addi	a4,a4,1
    141c:	0306                	slli	t1,t1,0x1
    141e:	0900                	addi	s0,sp,144
    1420:	0000                	unimp
    1422:	0501                	addi	a0,a0,0
    1424:	0309                	addi	t1,t1,2
    1426:	0002097b          	0x2097b
    142a:	0501                	addi	a0,a0,0
    142c:	0605                	addi	a2,a2,1
    142e:	04090103          	lb	sp,64(s2)
    1432:	0100                	addi	s0,sp,128
    1434:	0905                	addi	s2,s2,1
    1436:	0306                	slli	t1,t1,0x1
    1438:	0900                	addi	s0,sp,144
    143a:	0000                	unimp
    143c:	0501                	addi	a0,a0,0
    143e:	0310                	addi	a2,sp,384
    1440:	0900                	addi	s0,sp,144
    1442:	0004                	0x4
    1444:	0501                	addi	a0,a0,0
    1446:	0308                	addi	a0,sp,384
    1448:	0900                	addi	s0,sp,144
    144a:	0004                	0x4
    144c:	0501                	addi	a0,a0,0
    144e:	01030607          	0x1030607
    1452:	0409                	addi	s0,s0,2
    1454:	0100                	addi	s0,sp,128
    1456:	1205                	addi	tp,tp,-31
    1458:	0306                	slli	t1,t1,0x1
    145a:	0900                	addi	s0,sp,144
    145c:	0000                	unimp
    145e:	0501                	addi	a0,a0,0
    1460:	0301                	addi	t1,t1,0
    1462:	0906                	slli	s2,s2,0x1
    1464:	0004                	0x4
    1466:	0501                	addi	a0,a0,0
    1468:	030a                	slli	t1,t1,0x2
    146a:	097f                	0x97f
    146c:	0006                	c.slli	zero,0x1
    146e:	0501                	addi	a0,a0,0
    1470:	0601                	addi	a2,a2,0
    1472:	08090503          	lb	a0,128(s2)
    1476:	0100                	addi	s0,sp,128
    1478:	0305                	addi	t1,t1,1
    147a:	08090103          	lb	sp,128(s2)
    147e:	0100                	addi	s0,sp,128
    1480:	0a05                	addi	s4,s4,1
    1482:	0306                	slli	t1,t1,0x1
    1484:	0900                	addi	s0,sp,144
    1486:	0000                	unimp
    1488:	0501                	addi	a0,a0,0
    148a:	0301                	addi	t1,t1,0
    148c:	0901                	addi	s2,s2,0
    148e:	0008                	0x8
    1490:	0901                	addi	s2,s2,0
    1492:	0008                	0x8
    1494:	0100                	addi	s0,sp,128
    1496:	ae01                	j	17a6 <__BSS_END__+0x2ae>
    1498:	0001                	nop
    149a:	0300                	addi	s0,sp,384
    149c:	2200                	fld	fs0,0(a2)
    149e:	0000                	unimp
    14a0:	0100                	addi	s0,sp,128
    14a2:	fb01                	bnez	a4,13b2 <malloc+0x194>
    14a4:	0d0e                	slli	s10,s10,0x3
    14a6:	0100                	addi	s0,sp,128
    14a8:	0101                	addi	sp,sp,0
    14aa:	0001                	nop
    14ac:	0000                	unimp
    14ae:	0001                	nop
    14b0:	0100                	addi	s0,sp,128
    14b2:	7375                	lui	t1,0xffffd
    14b4:	7265                	lui	tp,0xffff9
    14b6:	0000                	unimp
    14b8:	7375                	lui	t1,0xffffd
    14ba:	7379                	lui	t1,0xffffe
    14bc:	532e                	lw	t1,232(sp)
    14be:	0100                	addi	s0,sp,128
    14c0:	0000                	unimp
    14c2:	0000                	unimp
    14c4:	0209                	addi	tp,tp,2
    14c6:	0de0                	addi	s0,sp,732
    14c8:	0000                	unimp
    14ca:	0000                	unimp
    14cc:	0000                	unimp
    14ce:	0316                	slli	t1,t1,0x5
    14d0:	0901                	addi	s2,s2,0
    14d2:	0002                	c.slli64	zero
    14d4:	0301                	addi	t1,t1,0
    14d6:	0901                	addi	s2,s2,0
    14d8:	0004                	0x4
    14da:	0301                	addi	t1,t1,0
    14dc:	00020903          	lb	s2,0(tp) # ffffffffffff9000 <__global_pointer$+0xffffffffffff7398>
    14e0:	0301                	addi	t1,t1,0
    14e2:	0901                	addi	s2,s2,0
    14e4:	0002                	c.slli64	zero
    14e6:	0301                	addi	t1,t1,0
    14e8:	0901                	addi	s2,s2,0
    14ea:	0004                	0x4
    14ec:	0301                	addi	t1,t1,0
    14ee:	00020903          	lb	s2,0(tp) # 0 <getcmd>
    14f2:	0301                	addi	t1,t1,0
    14f4:	0901                	addi	s2,s2,0
    14f6:	0002                	c.slli64	zero
    14f8:	0301                	addi	t1,t1,0
    14fa:	0901                	addi	s2,s2,0
    14fc:	0004                	0x4
    14fe:	0301                	addi	t1,t1,0
    1500:	00020903          	lb	s2,0(tp) # 0 <getcmd>
    1504:	0301                	addi	t1,t1,0
    1506:	0901                	addi	s2,s2,0
    1508:	0002                	c.slli64	zero
    150a:	0301                	addi	t1,t1,0
    150c:	0901                	addi	s2,s2,0
    150e:	0004                	0x4
    1510:	0301                	addi	t1,t1,0
    1512:	00020903          	lb	s2,0(tp) # 0 <getcmd>
    1516:	0301                	addi	t1,t1,0
    1518:	0901                	addi	s2,s2,0
    151a:	0002                	c.slli64	zero
    151c:	0301                	addi	t1,t1,0
    151e:	0901                	addi	s2,s2,0
    1520:	0004                	0x4
    1522:	0301                	addi	t1,t1,0
    1524:	00020903          	lb	s2,0(tp) # 0 <getcmd>
    1528:	0301                	addi	t1,t1,0
    152a:	0901                	addi	s2,s2,0
    152c:	0002                	c.slli64	zero
    152e:	0301                	addi	t1,t1,0
    1530:	0901                	addi	s2,s2,0
    1532:	0004                	0x4
    1534:	0301                	addi	t1,t1,0
    1536:	00020903          	lb	s2,0(tp) # 0 <getcmd>
    153a:	0301                	addi	t1,t1,0
    153c:	0901                	addi	s2,s2,0
    153e:	0002                	c.slli64	zero
    1540:	0301                	addi	t1,t1,0
    1542:	0901                	addi	s2,s2,0
    1544:	0004                	0x4
    1546:	0301                	addi	t1,t1,0
    1548:	00020903          	lb	s2,0(tp) # 0 <getcmd>
    154c:	0301                	addi	t1,t1,0
    154e:	0901                	addi	s2,s2,0
    1550:	0002                	c.slli64	zero
    1552:	0301                	addi	t1,t1,0
    1554:	0901                	addi	s2,s2,0
    1556:	0004                	0x4
    1558:	0301                	addi	t1,t1,0
    155a:	00020903          	lb	s2,0(tp) # 0 <getcmd>
    155e:	0301                	addi	t1,t1,0
    1560:	0901                	addi	s2,s2,0
    1562:	0002                	c.slli64	zero
    1564:	0301                	addi	t1,t1,0
    1566:	0901                	addi	s2,s2,0
    1568:	0004                	0x4
    156a:	0301                	addi	t1,t1,0
    156c:	00020903          	lb	s2,0(tp) # 0 <getcmd>
    1570:	0301                	addi	t1,t1,0
    1572:	0901                	addi	s2,s2,0
    1574:	0002                	c.slli64	zero
    1576:	0301                	addi	t1,t1,0
    1578:	0901                	addi	s2,s2,0
    157a:	0004                	0x4
    157c:	0301                	addi	t1,t1,0
    157e:	00020903          	lb	s2,0(tp) # 0 <getcmd>
    1582:	0301                	addi	t1,t1,0
    1584:	0901                	addi	s2,s2,0
    1586:	0002                	c.slli64	zero
    1588:	0301                	addi	t1,t1,0
    158a:	0901                	addi	s2,s2,0
    158c:	0004                	0x4
    158e:	0301                	addi	t1,t1,0
    1590:	00020903          	lb	s2,0(tp) # 0 <getcmd>
    1594:	0301                	addi	t1,t1,0
    1596:	0901                	addi	s2,s2,0
    1598:	0002                	c.slli64	zero
    159a:	0301                	addi	t1,t1,0
    159c:	0901                	addi	s2,s2,0
    159e:	0004                	0x4
    15a0:	0301                	addi	t1,t1,0
    15a2:	00020903          	lb	s2,0(tp) # 0 <getcmd>
    15a6:	0301                	addi	t1,t1,0
    15a8:	0901                	addi	s2,s2,0
    15aa:	0002                	c.slli64	zero
    15ac:	0301                	addi	t1,t1,0
    15ae:	0901                	addi	s2,s2,0
    15b0:	0004                	0x4
    15b2:	0301                	addi	t1,t1,0
    15b4:	00020903          	lb	s2,0(tp) # 0 <getcmd>
    15b8:	0301                	addi	t1,t1,0
    15ba:	0901                	addi	s2,s2,0
    15bc:	0002                	c.slli64	zero
    15be:	0301                	addi	t1,t1,0
    15c0:	0901                	addi	s2,s2,0
    15c2:	0004                	0x4
    15c4:	0301                	addi	t1,t1,0
    15c6:	00020903          	lb	s2,0(tp) # 0 <getcmd>
    15ca:	0301                	addi	t1,t1,0
    15cc:	0901                	addi	s2,s2,0
    15ce:	0002                	c.slli64	zero
    15d0:	0301                	addi	t1,t1,0
    15d2:	0901                	addi	s2,s2,0
    15d4:	0004                	0x4
    15d6:	0301                	addi	t1,t1,0
    15d8:	00020903          	lb	s2,0(tp) # 0 <getcmd>
    15dc:	0301                	addi	t1,t1,0
    15de:	0901                	addi	s2,s2,0
    15e0:	0002                	c.slli64	zero
    15e2:	0301                	addi	t1,t1,0
    15e4:	0901                	addi	s2,s2,0
    15e6:	0004                	0x4
    15e8:	0301                	addi	t1,t1,0
    15ea:	00020903          	lb	s2,0(tp) # 0 <getcmd>
    15ee:	0301                	addi	t1,t1,0
    15f0:	0901                	addi	s2,s2,0
    15f2:	0002                	c.slli64	zero
    15f4:	0301                	addi	t1,t1,0
    15f6:	0901                	addi	s2,s2,0
    15f8:	0004                	0x4
    15fa:	0301                	addi	t1,t1,0
    15fc:	00020903          	lb	s2,0(tp) # 0 <getcmd>
    1600:	0301                	addi	t1,t1,0
    1602:	0901                	addi	s2,s2,0
    1604:	0002                	c.slli64	zero
    1606:	0301                	addi	t1,t1,0
    1608:	0901                	addi	s2,s2,0
    160a:	0004                	0x4
    160c:	0301                	addi	t1,t1,0
    160e:	00020903          	lb	s2,0(tp) # 0 <getcmd>
    1612:	0301                	addi	t1,t1,0
    1614:	0901                	addi	s2,s2,0
    1616:	0002                	c.slli64	zero
    1618:	0301                	addi	t1,t1,0
    161a:	0901                	addi	s2,s2,0
    161c:	0004                	0x4
    161e:	0301                	addi	t1,t1,0
    1620:	00020903          	lb	s2,0(tp) # 0 <getcmd>
    1624:	0301                	addi	t1,t1,0
    1626:	0901                	addi	s2,s2,0
    1628:	0002                	c.slli64	zero
    162a:	0301                	addi	t1,t1,0
    162c:	0901                	addi	s2,s2,0
    162e:	0004                	0x4
    1630:	0301                	addi	t1,t1,0
    1632:	00020903          	lb	s2,0(tp) # 0 <getcmd>
    1636:	0301                	addi	t1,t1,0
    1638:	0901                	addi	s2,s2,0
    163a:	0002                	c.slli64	zero
    163c:	0301                	addi	t1,t1,0
    163e:	0901                	addi	s2,s2,0
    1640:	0004                	0x4
    1642:	0901                	addi	s2,s2,0
    1644:	0002                	c.slli64	zero
    1646:	0100                	addi	s0,sp,128
    1648:	5801                	li	a6,-32
    164a:	0005                	c.nop	1
    164c:	0300                	addi	s0,sp,384
    164e:	9700                	0x9700
    1650:	0000                	unimp
    1652:	0100                	addi	s0,sp,128
    1654:	fb01                	bnez	a4,1564 <__BSS_END__+0x6c>
    1656:	0d0e                	slli	s10,s10,0x3
    1658:	0100                	addi	s0,sp,128
    165a:	0101                	addi	sp,sp,0
    165c:	0001                	nop
    165e:	0000                	unimp
    1660:	0001                	nop
    1662:	0100                	addi	s0,sp,128
    1664:	7375                	lui	t1,0xffffd
    1666:	7265                	lui	tp,0xffff9
    1668:	2e00                	fld	fs0,24(a2)
    166a:	72656b2f          	0x72656b2f
    166e:	656e                	ld	a0,216(sp)
    1670:	006c                	addi	a1,sp,12
    1672:	6d6f682f          	0x6d6f682f
    1676:	2f65                	addiw	t5,t5,25
    1678:	2f656e6f          	jal	t3,5796e <__global_pointer$+0x55d06>
    167c:	6972                	ld	s2,280(sp)
    167e:	2f766373          	csrrsi	t1,0x2f7,12
    1682:	6972                	ld	s2,280(sp)
    1684:	36766373          	csrrsi	t1,0x367,12
    1688:	2f34                	fld	fa3,88(a4)
    168a:	696c                	ld	a1,208(a0)
    168c:	2f62                	fld	ft10,24(sp)
    168e:	2f636367          	0x2f636367
    1692:	6972                	ld	s2,280(sp)
    1694:	36766373          	csrrsi	t1,0x367,12
    1698:	2d34                	fld	fa3,88(a0)
    169a:	6e75                	lui	t3,0x1d
    169c:	776f6e6b          	0x776f6e6b
    16a0:	2d6e                	fld	fs10,216(sp)
    16a2:	6c65                	lui	s8,0x19
    16a4:	2f66                	fld	ft10,88(sp)
    16a6:	2e38                	fld	fa4,88(a2)
    16a8:	2f302e33          	0x2f302e33
    16ac:	6e69                	lui	t3,0x1a
    16ae:	64756c63          	bltu	a0,t2,1d06 <__global_pointer$+0x9e>
    16b2:	0065                	c.nop	25
    16b4:	2f2e                	fld	ft10,200(sp)
    16b6:	7375                	lui	t1,0xffffd
    16b8:	7265                	lui	tp,0xffff9
    16ba:	0000                	unimp
    16bc:	7270                	ld	a2,224(a2)
    16be:	6e69                	lui	t3,0x1a
    16c0:	6674                	ld	a3,200(a2)
    16c2:	632e                	ld	t1,200(sp)
    16c4:	0100                	addi	s0,sp,128
    16c6:	0000                	unimp
    16c8:	7974                	ld	a3,240(a0)
    16ca:	6570                	ld	a2,200(a0)
    16cc:	00682e73          	csrrs	t3,0x6,a6
    16d0:	0002                	c.slli64	zero
    16d2:	7300                	ld	s0,32(a4)
    16d4:	6474                	ld	a3,200(s0)
    16d6:	7261                	lui	tp,0xffff8
    16d8:	00682e67          	0x682e67
    16dc:	75000003          	lb	zero,1872(zero) # 750 <parseexec+0xca>
    16e0:	2e726573          	csrrsi	a0,0x2e7,4
    16e4:	0068                	addi	a0,sp,12
    16e6:	0004                	0x4
    16e8:	0000                	unimp
    16ea:	0105                	addi	sp,sp,1
    16ec:	0900                	addi	s0,sp,144
    16ee:	8802                	jr	a6
    16f0:	000e                	c.slli	zero,0x3
    16f2:	0000                	unimp
    16f4:	0000                	unimp
    16f6:	0300                	addi	s0,sp,384
    16f8:	010a                	slli	sp,sp,0x2
    16fa:	0305                	addi	t1,t1,1
    16fc:	0c090103          	lb	sp,192(s2)
    1700:	0100                	addi	s0,sp,128
    1702:	0105                	addi	sp,sp,1
    1704:	0306                	slli	t1,t1,0x1
    1706:	0901                	addi	s2,s2,0
    1708:	000e                	c.slli	zero,0x3
    170a:	0601                	addi	a2,a2,0
    170c:	08090403          	lb	s0,128(s2)
    1710:	0100                	addi	s0,sp,128
    1712:	0305                	addi	t1,t1,1
    1714:	0e090103          	lb	sp,224(s2)
    1718:	0100                	addi	s0,sp,128
    171a:	00090103          	lb	sp,0(s2)
    171e:	0100                	addi	s0,sp,128
    1720:	00090103          	lb	sp,0(s2)
    1724:	0100                	addi	s0,sp,128
    1726:	00090203          	lb	tp,0(s2)
    172a:	0100                	addi	s0,sp,128
    172c:	00090103          	lb	sp,0(s2)
    1730:	0100                	addi	s0,sp,128
    1732:	0505                	addi	a0,a0,1
    1734:	0306                	slli	t1,t1,0x1
    1736:	0900                	addi	s0,sp,144
    1738:	0000                	unimp
    173a:	0501                	addi	a0,a0,0
    173c:	000a                	c.slli	zero,0x2
    173e:	0402                	c.slli64	s0
    1740:	0301                	addi	t1,t1,0
    1742:	0900                	addi	s0,sp,144
    1744:	0002                	c.slli64	zero
    1746:	0501                	addi	a0,a0,0
    1748:	0605                	addi	a2,a2,1
    174a:	04090403          	lb	s0,64(s2)
    174e:	0100                	addi	s0,sp,128
    1750:	0705                	addi	a4,a4,1
    1752:	0306                	slli	t1,t1,0x1
    1754:	0900                	addi	s0,sp,144
    1756:	0000                	unimp
    1758:	0301                	addi	t1,t1,0
    175a:	0002097b          	0x2097b
    175e:	0501                	addi	a0,a0,0
    1760:	08030603          	lb	a2,128(t1) # ffffffffffffd080 <__global_pointer$+0xffffffffffffb418>
    1764:	0209                	addi	tp,tp,2
    1766:	0100                	addi	s0,sp,128
    1768:	0705                	addi	a4,a4,1
    176a:	0306                	slli	t1,t1,0x1
    176c:	0978                	addi	a4,sp,156
    176e:	0000                	unimp
    1770:	0501                	addi	a0,a0,0
    1772:	0305                	addi	t1,t1,1
    1774:	0908                	addi	a0,sp,144
    1776:	0004                	0x4
    1778:	0501                	addi	a0,a0,0
    177a:	0319                	addi	t1,t1,6
    177c:	0902                	c.slli64	s2
    177e:	0002                	c.slli64	zero
    1780:	0501                	addi	a0,a0,0
    1782:	0316                	slli	t1,t1,0x5
    1784:	0900                	addi	s0,sp,144
    1786:	0002                	c.slli64	zero
    1788:	0501                	addi	a0,a0,0
    178a:	0605                	addi	a2,a2,1
    178c:	0a097803          	0xa097803
    1790:	0100                	addi	s0,sp,128
    1792:	00090103          	lb	sp,0(s2)
    1796:	0100                	addi	s0,sp,128
    1798:	0705                	addi	a4,a4,1
    179a:	0306                	slli	t1,t1,0x1
    179c:	0900                	addi	s0,sp,144
    179e:	0000                	unimp
    17a0:	0501                	addi	a0,a0,0
    17a2:	0309                	addi	t1,t1,2
    17a4:	097f                	0x97f
    17a6:	0004                	0x4
    17a8:	0501                	addi	a0,a0,0
    17aa:	09010307          	0x9010307
    17ae:	0002                	c.slli64	zero
    17b0:	0501                	addi	a0,a0,0
    17b2:	030d                	addi	t1,t1,3
    17b4:	0908                	addi	a0,sp,144
    17b6:	0002                	c.slli64	zero
    17b8:	0501                	addi	a0,a0,0
    17ba:	030a                	slli	t1,t1,0x2
    17bc:	097f                	0x97f
    17be:	0002                	c.slli64	zero
    17c0:	0501                	addi	a0,a0,0
    17c2:	04020003          	lb	zero,64(tp) # ffffffffffff8040 <__global_pointer$+0xffffffffffff63d8>
    17c6:	0601                	addi	a2,a2,0
    17c8:	02097f03          	0x2097f03
    17cc:	0100                	addi	s0,sp,128
    17ce:	0505                	addi	a0,a0,1
    17d0:	0200                	addi	s0,sp,256
    17d2:	0104                	addi	s1,sp,128
    17d4:	00090103          	lb	sp,0(s2)
    17d8:	0100                	addi	s0,sp,128
    17da:	0a05                	addi	s4,s4,1
    17dc:	0200                	addi	s0,sp,256
    17de:	0104                	addi	s1,sp,128
    17e0:	0306                	slli	t1,t1,0x1
    17e2:	0900                	addi	s0,sp,144
    17e4:	0000                	unimp
    17e6:	0501                	addi	a0,a0,0
    17e8:	0019                	c.nop	6
    17ea:	0402                	c.slli64	s0
    17ec:	0301                	addi	t1,t1,0
    17ee:	0900                	addi	s0,sp,144
    17f0:	0004                	0x4
    17f2:	0501                	addi	a0,a0,0
    17f4:	0016                	c.slli	zero,0x5
    17f6:	0402                	c.slli64	s0
    17f8:	0301                	addi	t1,t1,0
    17fa:	0900                	addi	s0,sp,144
    17fc:	0004                	0x4
    17fe:	0501                	addi	a0,a0,0
    1800:	000e                	c.slli	zero,0x3
    1802:	0402                	c.slli64	s0
    1804:	0301                	addi	t1,t1,0
    1806:	0900                	addi	s0,sp,144
    1808:	0006                	c.slli	zero,0x1
    180a:	0501                	addi	a0,a0,0
    180c:	000d                	c.nop	3
    180e:	0402                	c.slli64	s0
    1810:	0301                	addi	t1,t1,0
    1812:	0901                	addi	s2,s2,0
    1814:	000a                	c.slli	zero,0x2
    1816:	0501                	addi	a0,a0,0
    1818:	04020003          	lb	zero,64(tp) # 40 <getcmd+0x40>
    181c:	0301                	addi	t1,t1,0
    181e:	0900                	addi	s0,sp,144
    1820:	0004                	0x4
    1822:	0601                	addi	a2,a2,0
    1824:	04090103          	lb	sp,64(s2)
    1828:	0100                	addi	s0,sp,128
    182a:	0505                	addi	a0,a0,1
    182c:	0306                	slli	t1,t1,0x1
    182e:	0900                	addi	s0,sp,144
    1830:	0000                	unimp
    1832:	0601                	addi	a2,a2,0
    1834:	04090103          	lb	sp,64(s2)
    1838:	0100                	addi	s0,sp,128
    183a:	0e05                	addi	t3,t3,1
    183c:	0306                	slli	t1,t1,0x1
    183e:	0900                	addi	s0,sp,144
    1840:	0000                	unimp
    1842:	0501                	addi	a0,a0,0
    1844:	030a                	slli	t1,t1,0x2
    1846:	0900                	addi	s0,sp,144
    1848:	000e                	c.slli	zero,0x3
    184a:	0501                	addi	a0,a0,0
    184c:	0308                	addi	a0,sp,384
    184e:	0902                	c.slli64	s2
    1850:	0004                	0x4
    1852:	0501                	addi	a0,a0,0
    1854:	0605                	addi	a2,a2,1
    1856:	1e090103          	lb	sp,480(s2)
    185a:	0100                	addi	s0,sp,128
    185c:	0805                	addi	a6,a6,1
    185e:	0306                	slli	t1,t1,0x1
    1860:	097f                	0x97f
    1862:	0010                	0x10
    1864:	0501                	addi	a0,a0,0
    1866:	0301                	addi	t1,t1,0
    1868:	0902                	c.slli64	s2
    186a:	0004                	0x4
    186c:	0601                	addi	a2,a2,0
    186e:	0e090e03          	lb	t3,224(s2)
    1872:	0100                	addi	s0,sp,128
    1874:	0305                	addi	t1,t1,1
    1876:	1e090103          	lb	sp,480(s2)
    187a:	0100                	addi	s0,sp,128
    187c:	00090103          	lb	sp,0(s2)
    1880:	0100                	addi	s0,sp,128
    1882:	00090203          	lb	tp,0(s2)
    1886:	0100                	addi	s0,sp,128
    1888:	00090103          	lb	sp,0(s2)
    188c:	0100                	addi	s0,sp,128
    188e:	1105                	addi	sp,sp,-31
    1890:	0306                	slli	t1,t1,0x1
    1892:	0900                	addi	s0,sp,144
    1894:	0000                	unimp
    1896:	0501                	addi	a0,a0,0
    1898:	09000303          	lb	t1,144(zero) # 90 <fork1+0x16>
    189c:	0004                	0x4
    189e:	0501                	addi	a0,a0,0
    18a0:	0309                	addi	t1,t1,2
    18a2:	097f                	0x97f
    18a4:	000c                	0xc
    18a6:	0501                	addi	a0,a0,0
    18a8:	030e                	slli	t1,t1,0x3
    18aa:	0909                	addi	s2,s2,2
    18ac:	0002                	c.slli64	zero
    18ae:	0501                	addi	a0,a0,0
    18b0:	0309                	addi	t1,t1,2
    18b2:	0901                	addi	s2,s2,0
    18b4:	0004                	0x4
    18b6:	0501                	addi	a0,a0,0
    18b8:	0310                	addi	a2,sp,384
    18ba:	0902                	c.slli64	s2
    18bc:	0004                	0x4
    18be:	0301                	addi	t1,t1,0
    18c0:	0902                	c.slli64	s2
    18c2:	0004                	0x4
    18c4:	0301                	addi	t1,t1,0
    18c6:	0902                	c.slli64	s2
    18c8:	0004                	0x4
    18ca:	0501                	addi	a0,a0,0
    18cc:	0305                	addi	t1,t1,1
    18ce:	0966                	slli	s2,s2,0x19
    18d0:	0004                	0x4
    18d2:	0501                	addi	a0,a0,0
    18d4:	0609                	addi	a2,a2,2
    18d6:	0a091103          	lh	sp,160(s2)
    18da:	0100                	addi	s0,sp,128
    18dc:	0c05                	addi	s8,s8,1
    18de:	0e090203          	lb	tp,224(s2)
    18e2:	0100                	addi	s0,sp,128
    18e4:	0e05                	addi	t3,t3,1
    18e6:	0306                	slli	t1,t1,0x1
    18e8:	0900                	addi	s0,sp,144
    18ea:	0000                	unimp
    18ec:	0501                	addi	a0,a0,0
    18ee:	0011                	c.nop	4
    18f0:	0402                	c.slli64	s0
    18f2:	0302                	c.slli64	t1
    18f4:	0978                	addi	a4,sp,156
    18f6:	0006                	c.slli	zero,0x1
    18f8:	0501                	addi	a0,a0,0
    18fa:	04020003          	lb	zero,64(tp) # 40 <getcmd+0x40>
    18fe:	0302                	c.slli64	t1
    1900:	0900                	addi	s0,sp,144
    1902:	0004                	0x4
    1904:	0501                	addi	a0,a0,0
    1906:	0605                	addi	a2,a2,1
    1908:	04090103          	lb	sp,64(s2)
    190c:	0100                	addi	s0,sp,128
    190e:	0705                	addi	a4,a4,1
    1910:	0306                	slli	t1,t1,0x1
    1912:	0900                	addi	s0,sp,144
    1914:	0000                	unimp
    1916:	0501                	addi	a0,a0,0
    1918:	0605                	addi	a2,a2,1
    191a:	04090103          	lb	sp,64(s2)
    191e:	0100                	addi	s0,sp,128
    1920:	0705                	addi	a4,a4,1
    1922:	0306                	slli	t1,t1,0x1
    1924:	0900                	addi	s0,sp,144
    1926:	0000                	unimp
    1928:	0601                	addi	a2,a2,0
    192a:	04090103          	lb	sp,64(s2)
    192e:	0100                	addi	s0,sp,128
    1930:	0905                	addi	s2,s2,1
    1932:	0306                	slli	t1,t1,0x1
    1934:	0900                	addi	s0,sp,144
    1936:	0000                	unimp
    1938:	0501                	addi	a0,a0,0
    193a:	0901030f          	0x901030f
    193e:	0004                	0x4
    1940:	0501                	addi	a0,a0,0
    1942:	05030607          	0x5030607
    1946:	0409                	addi	s0,s0,2
    1948:	0100                	addi	s0,sp,128
    194a:	0905                	addi	s2,s2,1
    194c:	0306                	slli	t1,t1,0x1
    194e:	0900                	addi	s0,sp,144
    1950:	0000                	unimp
    1952:	0501                	addi	a0,a0,0
    1954:	060e                	slli	a2,a2,0x3
    1956:	04090203          	lb	tp,64(s2)
    195a:	0100                	addi	s0,sp,128
    195c:	1005                	c.nop	-31
    195e:	0306                	slli	t1,t1,0x1
    1960:	0900                	addi	s0,sp,144
    1962:	0000                	unimp
    1964:	0501                	addi	a0,a0,0
    1966:	060e                	slli	a2,a2,0x3
    1968:	04090203          	lb	tp,64(s2)
    196c:	0100                	addi	s0,sp,128
    196e:	1005                	c.nop	-31
    1970:	0306                	slli	t1,t1,0x1
    1972:	0900                	addi	s0,sp,144
    1974:	0000                	unimp
    1976:	0501                	addi	a0,a0,0
    1978:	060e                	slli	a2,a2,0x3
    197a:	04090203          	lb	tp,64(s2)
    197e:	0100                	addi	s0,sp,128
    1980:	1005                	c.nop	-31
    1982:	0306                	slli	t1,t1,0x1
    1984:	0900                	addi	s0,sp,144
    1986:	0000                	unimp
    1988:	0501                	addi	a0,a0,0
    198a:	060e                	slli	a2,a2,0x3
    198c:	04090203          	lb	tp,64(s2)
    1990:	0100                	addi	s0,sp,128
    1992:	1005                	c.nop	-31
    1994:	0306                	slli	t1,t1,0x1
    1996:	0900                	addi	s0,sp,144
    1998:	0000                	unimp
    199a:	0501                	addi	a0,a0,0
    199c:	060e                	slli	a2,a2,0x3
    199e:	08090803          	lb	a6,128(s2)
    19a2:	0100                	addi	s0,sp,128
    19a4:	1005                	c.nop	-31
    19a6:	0306                	slli	t1,t1,0x1
    19a8:	0900                	addi	s0,sp,144
    19aa:	0000                	unimp
    19ac:	0501                	addi	a0,a0,0
    19ae:	060e                	slli	a2,a2,0x3
    19b0:	08090203          	lb	tp,128(s2)
    19b4:	0100                	addi	s0,sp,128
    19b6:	1005                	c.nop	-31
    19b8:	0306                	slli	t1,t1,0x1
    19ba:	0900                	addi	s0,sp,144
    19bc:	0000                	unimp
    19be:	0501                	addi	a0,a0,0
    19c0:	0609                	addi	a2,a2,2
    19c2:	04090403          	lb	s0,64(s2)
    19c6:	0100                	addi	s0,sp,128
    19c8:	0c090103          	lb	sp,192(s2)
    19cc:	0100                	addi	s0,sp,128
    19ce:	0d05                	addi	s10,s10,1
    19d0:	0306                	slli	t1,t1,0x1
    19d2:	0902                	c.slli64	s2
    19d4:	000c                	0xc
    19d6:	0501                	addi	a0,a0,0
    19d8:	0609                	addi	a2,a2,2
    19da:	04096803          	lwu	a6,64(s2)
    19de:	0100                	addi	s0,sp,128
    19e0:	0d05                	addi	s10,s10,1
    19e2:	0306                	slli	t1,t1,0x1
    19e4:	0918                	addi	a4,sp,144
    19e6:	0018                	0x18
    19e8:	0501                	addi	a0,a0,0
    19ea:	0609                	addi	a2,a2,2
    19ec:	04096a03          	lwu	s4,64(s2)
    19f0:	0100                	addi	s0,sp,128
    19f2:	1605                	addi	a2,a2,-31
    19f4:	0306                	slli	t1,t1,0x1
    19f6:	0900                	addi	s0,sp,144
    19f8:	0000                	unimp
    19fa:	0501                	addi	a0,a0,0
    19fc:	0309                	addi	t1,t1,2
    19fe:	0900                	addi	s0,sp,144
    1a00:	0004                	0x4
    1a02:	0501                	addi	a0,a0,0
    1a04:	0316                	slli	t1,t1,0x5
    1a06:	0900                	addi	s0,sp,144
    1a08:	0012                	c.slli	zero,0x4
    1a0a:	0501                	addi	a0,a0,0
    1a0c:	030d                	addi	t1,t1,3
    1a0e:	0916                	slli	s2,s2,0x5
    1a10:	0002                	c.slli64	zero
    1a12:	0501                	addi	a0,a0,0
    1a14:	0609                	addi	a2,a2,2
    1a16:	04096c03          	lwu	s8,64(s2)
    1a1a:	0100                	addi	s0,sp,128
    1a1c:	0d05                	addi	s10,s10,1
    1a1e:	0306                	slli	t1,t1,0x1
    1a20:	0914                	addi	a3,sp,144
    1a22:	0018                	0x18
    1a24:	0501                	addi	a0,a0,0
    1a26:	0609                	addi	a2,a2,2
    1a28:	04096e03          	lwu	t3,64(s2)
    1a2c:	0100                	addi	s0,sp,128
    1a2e:	0305                	addi	t1,t1,1
    1a30:	0c096103          	lwu	sp,192(s2)
    1a34:	0100                	addi	s0,sp,128
    1a36:	00090103          	lb	sp,0(s2)
    1a3a:	0100                	addi	s0,sp,128
    1a3c:	0e090103          	lb	sp,224(s2)
    1a40:	0100                	addi	s0,sp,128
    1a42:	0c090103          	lb	sp,192(s2)
    1a46:	0100                	addi	s0,sp,128
    1a48:	0306                	slli	t1,t1,0x1
    1a4a:	097f                	0x97f
    1a4c:	0000                	unimp
    1a4e:	0501                	addi	a0,a0,0
    1a50:	0605                	addi	a2,a2,1
    1a52:	02090203          	lb	tp,32(s2)
    1a56:	0100                	addi	s0,sp,128
    1a58:	1705                	addi	a4,a4,-31
    1a5a:	0306                	slli	t1,t1,0x1
    1a5c:	0900                	addi	s0,sp,144
    1a5e:	0000                	unimp
    1a60:	0501                	addi	a0,a0,0
    1a62:	0305                	addi	t1,t1,1
    1a64:	0900                	addi	s0,sp,144
    1a66:	0004                	0x4
    1a68:	0501                	addi	a0,a0,0
    1a6a:	0330                	addi	a2,sp,392
    1a6c:	097f                	0x97f
    1a6e:	0010                	0x10
    1a70:	0501                	addi	a0,a0,0
    1a72:	09000303          	lb	t1,144(zero) # 90 <fork1+0x16>
    1a76:	0004                	0x4
    1a78:	0501                	addi	a0,a0,0
    1a7a:	0309                	addi	t1,t1,2
    1a7c:	091c                	addi	a5,sp,144
    1a7e:	0002                	c.slli64	zero
    1a80:	0501                	addi	a0,a0,0
    1a82:	030d                	addi	t1,t1,3
    1a84:	0912                	slli	s2,s2,0x4
    1a86:	0004                	0x4
    1a88:	0501                	addi	a0,a0,0
    1a8a:	0609                	addi	a2,a2,2
    1a8c:	04097003          	0x4097003
    1a90:	0100                	addi	s0,sp,128
    1a92:	0b05                	addi	s6,s6,1
    1a94:	0306                	slli	t1,t1,0x1
    1a96:	0900                	addi	s0,sp,144
    1a98:	0000                	unimp
    1a9a:	0501                	addi	a0,a0,0
    1a9c:	0609                	addi	a2,a2,2
    1a9e:	08090103          	lb	sp,128(s2)
    1aa2:	0100                	addi	s0,sp,128
    1aa4:	0b05                	addi	s6,s6,1
    1aa6:	0306                	slli	t1,t1,0x1
    1aa8:	0900                	addi	s0,sp,144
    1aaa:	0000                	unimp
    1aac:	0501                	addi	a0,a0,0
    1aae:	0902030f          	0x902030f
    1ab2:	0002                	c.slli64	zero
    1ab4:	0501                	addi	a0,a0,0
    1ab6:	030e                	slli	t1,t1,0x3
    1ab8:	0900                	addi	s0,sp,144
    1aba:	0004                	0x4
    1abc:	0501                	addi	a0,a0,0
    1abe:	0103060b          	0x103060b
    1ac2:	0209                	addi	tp,tp,2
    1ac4:	0100                	addi	s0,sp,128
    1ac6:	0a090103          	lb	sp,160(s2)
    1aca:	0100                	addi	s0,sp,128
    1acc:	0c05                	addi	s8,s8,1
    1ace:	0306                	slli	t1,t1,0x1
    1ad0:	0900                	addi	s0,sp,144
    1ad2:	0000                	unimp
    1ad4:	0501                	addi	a0,a0,0
    1ad6:	097e030f          	0x97e030f
    1ada:	0002                	c.slli64	zero
    1adc:	0501                	addi	a0,a0,0
    1ade:	030e                	slli	t1,t1,0x3
    1ae0:	0900                	addi	s0,sp,144
    1ae2:	0004                	0x4
    1ae4:	0501                	addi	a0,a0,0
    1ae6:	097d030b          	0x97d030b
    1aea:	0002                	c.slli64	zero
    1aec:	0501                	addi	a0,a0,0
    1aee:	030d                	addi	t1,t1,3
    1af0:	0910                	addi	a2,sp,144
    1af2:	0002                	c.slli64	zero
    1af4:	0301                	addi	t1,t1,0
    1af6:	0972                	slli	s2,s2,0x1c
    1af8:	0004                	0x4
    1afa:	0501                	addi	a0,a0,0
    1afc:	0901030f          	0x901030f
    1b00:	0008                	0x8
    1b02:	0501                	addi	a0,a0,0
    1b04:	0609                	addi	a2,a2,2
    1b06:	06090503          	lb	a0,96(s2)
    1b0a:	0100                	addi	s0,sp,128
    1b0c:	1205                	addi	tp,tp,-31
    1b0e:	0306                	slli	t1,t1,0x1
    1b10:	0900                	addi	s0,sp,144
    1b12:	0000                	unimp
    1b14:	0501                	addi	a0,a0,0
    1b16:	0309                	addi	t1,t1,2
    1b18:	0900                	addi	s0,sp,144
    1b1a:	0004                	0x4
    1b1c:	0501                	addi	a0,a0,0
    1b1e:	0312                	slli	t1,t1,0x4
    1b20:	0900                	addi	s0,sp,144
    1b22:	000e                	c.slli	zero,0x3
    1b24:	0501                	addi	a0,a0,0
    1b26:	030d                	addi	t1,t1,3
    1b28:	0908                	addi	a0,sp,144
    1b2a:	0002                	c.slli64	zero
    1b2c:	0501                	addi	a0,a0,0
    1b2e:	0609                	addi	a2,a2,2
    1b30:	04097a03          	0x4097a03
    1b34:	0100                	addi	s0,sp,128
    1b36:	0d05                	addi	s10,s10,1
    1b38:	0306                	slli	t1,t1,0x1
    1b3a:	0906                	slli	s2,s2,0x1
    1b3c:	000c                	0xc
    1b3e:	0501                	addi	a0,a0,0
    1b40:	0970030b          	0x970030b
    1b44:	0004                	0x4
    1b46:	0501                	addi	a0,a0,0
    1b48:	030d                	addi	t1,t1,3
    1b4a:	0910                	addi	a2,sp,144
    1b4c:	0002                	c.slli64	zero
    1b4e:	0501                	addi	a0,a0,0
    1b50:	0301                	addi	t1,t1,0
    1b52:	00040903          	lb	s2,0(s0)
    1b56:	0601                	addi	a2,a2,0
    1b58:	1e090403          	lb	s0,480(s2)
    1b5c:	0100                	addi	s0,sp,128
    1b5e:	0305                	addi	t1,t1,1
    1b60:	18090103          	lb	sp,384(s2)
    1b64:	0100                	addi	s0,sp,128
    1b66:	00090203          	lb	tp,0(s2)
    1b6a:	0100                	addi	s0,sp,128
    1b6c:	04090103          	lb	sp,64(s2)
    1b70:	0100                	addi	s0,sp,128
    1b72:	0105                	addi	sp,sp,1
    1b74:	0306                	slli	t1,t1,0x1
    1b76:	0901                	addi	s2,s2,0
    1b78:	000a                	c.slli	zero,0x2
    1b7a:	0601                	addi	a2,a2,0
    1b7c:	08090403          	lb	s0,128(s2)
    1b80:	0100                	addi	s0,sp,128
    1b82:	0305                	addi	t1,t1,1
    1b84:	1a090103          	lb	sp,416(s2)
    1b88:	0100                	addi	s0,sp,128
    1b8a:	00090203          	lb	tp,0(s2)
    1b8e:	0100                	addi	s0,sp,128
    1b90:	08090103          	lb	sp,128(s2)
    1b94:	0100                	addi	s0,sp,128
    1b96:	0105                	addi	sp,sp,1
    1b98:	0306                	slli	t1,t1,0x1
    1b9a:	0901                	addi	s2,s2,0
    1b9c:	000c                	0xc
    1b9e:	0901                	addi	s2,s2,0
    1ba0:	0008                	0x8
    1ba2:	0100                	addi	s0,sp,128
    1ba4:	f301                	bnez	a4,1aa4 <__BSS_END__+0x5ac>
    1ba6:	03000003          	lb	zero,48(zero) # 30 <getcmd+0x30>
    1baa:	4a00                	lw	s0,16(a2)
    1bac:	0000                	unimp
    1bae:	0100                	addi	s0,sp,128
    1bb0:	fb01                	bnez	a4,1ac0 <__BSS_END__+0x5c8>
    1bb2:	0d0e                	slli	s10,s10,0x3
    1bb4:	0100                	addi	s0,sp,128
    1bb6:	0101                	addi	sp,sp,0
    1bb8:	0001                	nop
    1bba:	0000                	unimp
    1bbc:	0001                	nop
    1bbe:	0100                	addi	s0,sp,128
    1bc0:	7375                	lui	t1,0xffffd
    1bc2:	7265                	lui	tp,0xffff9
    1bc4:	2e00                	fld	fs0,24(a2)
    1bc6:	72656b2f          	0x72656b2f
    1bca:	656e                	ld	a0,216(sp)
    1bcc:	006c                	addi	a1,sp,12
    1bce:	2f2e                	fld	ft10,200(sp)
    1bd0:	7375                	lui	t1,0xffffd
    1bd2:	7265                	lui	tp,0xffff9
    1bd4:	0000                	unimp
    1bd6:	6d75                	lui	s10,0x1d
    1bd8:	6c61                	lui	s8,0x18
    1bda:	6f6c                	ld	a1,216(a4)
    1bdc:	00632e63          	0x632e63
    1be0:	0001                	nop
    1be2:	7400                	ld	s0,40(s0)
    1be4:	7079                	c.lui	zero,0xffffe
    1be6:	7365                	lui	t1,0xffff9
    1be8:	682e                	ld	a6,200(sp)
    1bea:	0200                	addi	s0,sp,256
    1bec:	0000                	unimp
    1bee:	7375                	lui	t1,0xffffd
    1bf0:	7265                	lui	tp,0xffff9
    1bf2:	682e                	ld	a6,200(sp)
    1bf4:	0300                	addi	s0,sp,384
    1bf6:	0000                	unimp
    1bf8:	0500                	addi	s0,sp,640
    1bfa:	0001                	nop
    1bfc:	0209                	addi	tp,tp,2
    1bfe:	1194                	addi	a3,sp,224
    1c00:	0000                	unimp
    1c02:	0000                	unimp
    1c04:	0000                	unimp
    1c06:	05011903          	lh	s2,80(sp)
    1c0a:	09010303          	lb	t1,144(sp)
    1c0e:	0006                	c.slli	zero,0x1
    1c10:	0301                	addi	t1,t1,0
    1c12:	0902                	c.slli64	s2
    1c14:	0000                	unimp
    1c16:	0501                	addi	a0,a0,0
    1c18:	0606                	slli	a2,a2,0x1
    1c1a:	00090003          	lb	zero,0(s2)
    1c1e:	0100                	addi	s0,sp,128
    1c20:	0305                	addi	t1,t1,1
    1c22:	0306                	slli	t1,t1,0x1
    1c24:	0901                	addi	s2,s2,0
    1c26:	0004                	0x4
    1c28:	0501                	addi	a0,a0,0
    1c2a:	0609                	addi	a2,a2,2
    1c2c:	00090003          	lb	zero,0(s2)
    1c30:	0100                	addi	s0,sp,128
    1c32:	0305                	addi	t1,t1,1
    1c34:	0a090003          	lb	zero,160(s2)
    1c38:	0100                	addi	s0,sp,128
    1c3a:	0505                	addi	a0,a0,1
    1c3c:	0306                	slli	t1,t1,0x1
    1c3e:	0904                	addi	s1,sp,144
    1c40:	0002                	c.slli64	zero
    1c42:	0501                	addi	a0,a0,0
    1c44:	0610                	addi	a2,sp,768
    1c46:	00090003          	lb	zero,0(s2)
    1c4a:	0100                	addi	s0,sp,128
    1c4c:	0505                	addi	a0,a0,1
    1c4e:	0306                	slli	t1,t1,0x1
    1c50:	0901                	addi	s2,s2,0
    1c52:	0008                	0x8
    1c54:	0501                	addi	a0,a0,0
    1c56:	061c                	addi	a5,sp,768
    1c58:	00090003          	lb	zero,0(s2)
    1c5c:	0100                	addi	s0,sp,128
    1c5e:	0f05                	addi	t5,t5,1
    1c60:	04090003          	lb	zero,64(s2)
    1c64:	0100                	addi	s0,sp,128
    1c66:	0505                	addi	a0,a0,1
    1c68:	0306                	slli	t1,t1,0x1
    1c6a:	0904                	addi	s1,sp,144
    1c6c:	0006                	c.slli	zero,0x1
    1c6e:	0501                	addi	a0,a0,0
    1c70:	0003060f          	0x3060f
    1c74:	0009                	c.nop	2
    1c76:	0100                	addi	s0,sp,128
    1c78:	0505                	addi	a0,a0,1
    1c7a:	0306                	slli	t1,t1,0x1
    1c7c:	0901                	addi	s2,s2,0
    1c7e:	0008                	0x8
    1c80:	0501                	addi	a0,a0,0
    1c82:	0615                	addi	a2,a2,5
    1c84:	00090003          	lb	zero,0(s2)
    1c88:	0100                	addi	s0,sp,128
    1c8a:	0e05                	addi	t3,t3,1
    1c8c:	04090003          	lb	zero,64(s2)
    1c90:	0100                	addi	s0,sp,128
    1c92:	0505                	addi	a0,a0,1
    1c94:	0306                	slli	t1,t1,0x1
    1c96:	00040977          	0x40977
    1c9a:	0501                	addi	a0,a0,0
    1c9c:	0611                	addi	a2,a2,4
    1c9e:	00090003          	lb	zero,0(s2)
    1ca2:	0100                	addi	s0,sp,128
    1ca4:	0705                	addi	a4,a4,1
    1ca6:	02090003          	lb	zero,32(s2)
    1caa:	0100                	addi	s0,sp,128
    1cac:	2105                	addiw	sp,sp,1
    1cae:	0200                	addi	s0,sp,256
    1cb0:	0204                	addi	s1,sp,256
    1cb2:	04090003          	lb	zero,64(s2)
    1cb6:	0100                	addi	s0,sp,128
    1cb8:	0105                	addi	sp,sp,1
    1cba:	0200                	addi	s0,sp,256
    1cbc:	0104                	addi	s1,sp,128
    1cbe:	04097b03          	0x4097b03
    1cc2:	0100                	addi	s0,sp,128
    1cc4:	0305                	addi	t1,t1,1
    1cc6:	0200                	addi	s0,sp,256
    1cc8:	0104                	addi	s1,sp,128
    1cca:	02090403          	lb	s0,32(s2)
    1cce:	0100                	addi	s0,sp,128
    1cd0:	2705                	addiw	a4,a4,1
    1cd2:	0200                	addi	s0,sp,256
    1cd4:	0304                	addi	s1,sp,384
    1cd6:	04090003          	lb	zero,64(s2)
    1cda:	0100                	addi	s0,sp,128
    1cdc:	1205                	addi	tp,tp,-31
    1cde:	0200                	addi	s0,sp,256
    1ce0:	0304                	addi	s1,sp,384
    1ce2:	02090003          	lb	zero,32(s2)
    1ce6:	0100                	addi	s0,sp,128
    1ce8:	0505                	addi	a0,a0,1
    1cea:	0306                	slli	t1,t1,0x1
    1cec:	0901                	addi	s2,s2,0
    1cee:	0004                	0x4
    1cf0:	0501                	addi	a0,a0,0
    1cf2:	00030607          	0x30607
    1cf6:	0009                	c.nop	2
    1cf8:	0100                	addi	s0,sp,128
    1cfa:	0305                	addi	t1,t1,1
    1cfc:	0306                	slli	t1,t1,0x1
    1cfe:	0902                	c.slli64	s2
    1d00:	0004                	0x4
    1d02:	0501                	addi	a0,a0,0
    1d04:	0610                	addi	a2,sp,768
    1d06:	00090003          	lb	zero,0(s2)
    1d0a:	0100                	addi	s0,sp,128
    1d0c:	1d05                	addi	s10,s10,-31
    1d0e:	04090003          	lb	zero,64(s2)
    1d12:	0100                	addi	s0,sp,128
    1d14:	1005                	c.nop	-31
    1d16:	02090003          	lb	zero,32(s2)
    1d1a:	0100                	addi	s0,sp,128
    1d1c:	0905                	addi	s2,s2,1
    1d1e:	06090003          	lb	zero,96(s2)
    1d22:	0100                	addi	s0,sp,128
    1d24:	0505                	addi	a0,a0,1
    1d26:	04090003          	lb	zero,64(s2)
    1d2a:	0100                	addi	s0,sp,128
    1d2c:	0306                	slli	t1,t1,0x1
    1d2e:	0904                	addi	s1,sp,144
    1d30:	0004                	0x4
    1d32:	0501                	addi	a0,a0,0
    1d34:	0003060f          	0x3060f
    1d38:	0009                	c.nop	2
    1d3a:	0100                	addi	s0,sp,128
    1d3c:	0305                	addi	t1,t1,1
    1d3e:	0306                	slli	t1,t1,0x1
    1d40:	0901                	addi	s2,s2,0
    1d42:	0004                	0x4
    1d44:	0501                	addi	a0,a0,0
    1d46:	060e                	slli	a2,a2,0x3
    1d48:	00090003          	lb	zero,0(s2)
    1d4c:	0100                	addi	s0,sp,128
    1d4e:	0805                	addi	a6,a6,1
    1d50:	08090003          	lb	zero,128(s2)
    1d54:	0100                	addi	s0,sp,128
    1d56:	0505                	addi	a0,a0,1
    1d58:	04090003          	lb	zero,64(s2)
    1d5c:	0100                	addi	s0,sp,128
    1d5e:	0306                	slli	t1,t1,0x1
    1d60:	0904                	addi	s1,sp,144
    1d62:	0004                	0x4
    1d64:	0501                	addi	a0,a0,0
    1d66:	060e                	slli	a2,a2,0x3
    1d68:	00090003          	lb	zero,0(s2)
    1d6c:	0100                	addi	s0,sp,128
    1d6e:	0305                	addi	t1,t1,1
    1d70:	0306                	slli	t1,t1,0x1
    1d72:	0901                	addi	s2,s2,0
    1d74:	0002                	c.slli64	zero
    1d76:	0501                	addi	a0,a0,0
    1d78:	0609                	addi	a2,a2,2
    1d7a:	00090003          	lb	zero,0(s2)
    1d7e:	0100                	addi	s0,sp,128
    1d80:	0105                	addi	sp,sp,1
    1d82:	08090103          	lb	sp,128(s2)
    1d86:	0100                	addi	s0,sp,128
    1d88:	0306                	slli	t1,t1,0x1
    1d8a:	0915                	addi	s2,s2,5
    1d8c:	0006                	c.slli	zero,0x1
    1d8e:	0501                	addi	a0,a0,0
    1d90:	09010303          	lb	t1,144(sp)
    1d94:	0014                	0x14
    1d96:	0301                	addi	t1,t1,0
    1d98:	0901                	addi	s2,s2,0
    1d9a:	0000                	unimp
    1d9c:	0301                	addi	t1,t1,0
    1d9e:	0902                	c.slli64	s2
    1da0:	0000                	unimp
    1da2:	0501                	addi	a0,a0,0
    1da4:	0625                	addi	a2,a2,9
    1da6:	00090003          	lb	zero,0(s2)
    1daa:	0100                	addi	s0,sp,128
    1dac:	2905                	addiw	s2,s2,1
    1dae:	0a090003          	lb	zero,160(s2)
    1db2:	0100                	addi	s0,sp,128
    1db4:	0a05                	addi	s4,s4,1
    1db6:	04090003          	lb	zero,64(s2)
    1dba:	0100                	addi	s0,sp,128
    1dbc:	0305                	addi	t1,t1,1
    1dbe:	0306                	slli	t1,t1,0x1
    1dc0:	0901                	addi	s2,s2,0
    1dc2:	0006                	c.slli	zero,0x1
    1dc4:	0501                	addi	a0,a0,0
    1dc6:	060d                	addi	a2,a2,3
    1dc8:	00090003          	lb	zero,0(s2)
    1dcc:	0100                	addi	s0,sp,128
    1dce:	0505                	addi	a0,a0,1
    1dd0:	0a090003          	lb	zero,160(s2)
    1dd4:	0100                	addi	s0,sp,128
    1dd6:	0305                	addi	t1,t1,1
    1dd8:	0306                	slli	t1,t1,0x1
    1dda:	0904                	addi	s1,sp,144
    1ddc:	0002                	c.slli64	zero
    1dde:	0501                	addi	a0,a0,0
    1de0:	0609                	addi	a2,a2,2
    1de2:	00090003          	lb	zero,0(s2)
    1de6:	0100                	addi	s0,sp,128
    1de8:	0505                	addi	a0,a0,1
    1dea:	0306                	slli	t1,t1,0x1
    1dec:	0901                	addi	s2,s2,0
    1dee:	0002                	c.slli64	zero
    1df0:	0501                	addi	a0,a0,0
    1df2:	060c                	addi	a1,sp,768
    1df4:	00090003          	lb	zero,0(s2)
    1df8:	0100                	addi	s0,sp,128
    1dfa:	0705                	addi	a4,a4,1
    1dfc:	02090003          	lb	zero,32(s2)
    1e00:	0100                	addi	s0,sp,128
    1e02:	16096b03          	lwu	s6,352(s2)
    1e06:	0100                	addi	s0,sp,128
    1e08:	0a05                	addi	s4,s4,1
    1e0a:	04092003          	lw	zero,64(s2)
    1e0e:	0100                	addi	s0,sp,128
    1e10:	0505                	addi	a0,a0,1
    1e12:	08096103          	lwu	sp,128(s2)
    1e16:	0100                	addi	s0,sp,128
    1e18:	0306                	slli	t1,t1,0x1
    1e1a:	0910                	addi	a2,sp,144
    1e1c:	0004                	0x4
    1e1e:	0501                	addi	a0,a0,0
    1e20:	0618                	addi	a4,sp,768
    1e22:	00090003          	lb	zero,0(s2)
    1e26:	0100                	addi	s0,sp,128
    1e28:	1005                	c.nop	-31
    1e2a:	10090003          	lb	zero,256(s2)
    1e2e:	0100                	addi	s0,sp,128
    1e30:	0505                	addi	a0,a0,1
    1e32:	0306                	slli	t1,t1,0x1
    1e34:	0901                	addi	s2,s2,0
    1e36:	0002                	c.slli64	zero
    1e38:	0501                	addi	a0,a0,0
    1e3a:	0611                	addi	a2,a2,4
    1e3c:	00090003          	lb	zero,0(s2)
    1e40:	0100                	addi	s0,sp,128
    1e42:	0305                	addi	t1,t1,1
    1e44:	0306                	slli	t1,t1,0x1
    1e46:	0902                	c.slli64	s2
    1e48:	0004                	0x4
    1e4a:	0501                	addi	a0,a0,0
    1e4c:	0305                	addi	t1,t1,1
    1e4e:	0901                	addi	s2,s2,0
    1e50:	0000                	unimp
    1e52:	0501                	addi	a0,a0,0
    1e54:	09010307          	0x9010307
    1e58:	0002                	c.slli64	zero
    1e5a:	0501                	addi	a0,a0,0
    1e5c:	0609                	addi	a2,a2,2
    1e5e:	00090003          	lb	zero,0(s2)
    1e62:	0100                	addi	s0,sp,128
    1e64:	0306                	slli	t1,t1,0x1
    1e66:	00040903          	lb	s2,0(s0)
    1e6a:	0501                	addi	a0,a0,0
    1e6c:	00030613          	mv	a2,t1
    1e70:	0009                	c.nop	2
    1e72:	0100                	addi	s0,sp,128
    1e74:	0905                	addi	s2,s2,1
    1e76:	0306                	slli	t1,t1,0x1
    1e78:	0901                	addi	s2,s2,0
    1e7a:	0006                	c.slli	zero,0x1
    1e7c:	0501                	addi	a0,a0,0
    1e7e:	0612                	slli	a2,a2,0x4
    1e80:	00090003          	lb	zero,0(s2)
    1e84:	0100                	addi	s0,sp,128
    1e86:	0b05                	addi	s6,s6,1
    1e88:	04090003          	lb	zero,64(s2)
    1e8c:	0100                	addi	s0,sp,128
    1e8e:	0905                	addi	s2,s2,1
    1e90:	0306                	slli	t1,t1,0x1
    1e92:	0901                	addi	s2,s2,0
    1e94:	0004                	0x4
    1e96:	0501                	addi	a0,a0,0
    1e98:	00030613          	mv	a2,t1
    1e9c:	0009                	c.nop	2
    1e9e:	0100                	addi	s0,sp,128
    1ea0:	0705                	addi	a4,a4,1
    1ea2:	0306                	slli	t1,t1,0x1
    1ea4:	0902                	c.slli64	s2
    1ea6:	0004                	0x4
    1ea8:	0501                	addi	a0,a0,0
    1eaa:	060d                	addi	a2,a2,3
    1eac:	00090003          	lb	zero,0(s2)
    1eb0:	0100                	addi	s0,sp,128
    1eb2:	0705                	addi	a4,a4,1
    1eb4:	0306                	slli	t1,t1,0x1
    1eb6:	0901                	addi	s2,s2,0
    1eb8:	0008                	0x8
    1eba:	0501                	addi	a0,a0,0
    1ebc:	060e                	slli	a2,a2,0x3
    1ebe:	00090003          	lb	zero,0(s2)
    1ec2:	0100                	addi	s0,sp,128
    1ec4:	0105                	addi	sp,sp,1
    1ec6:	04090603          	lb	a2,64(s2)
    1eca:	0100                	addi	s0,sp,128
    1ecc:	0905                	addi	s2,s2,1
    1ece:	0306                	slli	t1,t1,0x1
    1ed0:	00140973          	0x140973
    1ed4:	0501                	addi	a0,a0,0
    1ed6:	061c                	addi	a5,sp,768
    1ed8:	00090003          	lb	zero,0(s2)
    1edc:	0100                	addi	s0,sp,128
    1ede:	1605                	addi	a2,a2,-31
    1ee0:	02090003          	lb	zero,32(s2)
    1ee4:	0100                	addi	s0,sp,128
    1ee6:	0305                	addi	t1,t1,1
    1ee8:	0306                	slli	t1,t1,0x1
    1eea:	096c                	addi	a1,sp,156
    1eec:	0004                	0x4
    1eee:	0301                	addi	t1,t1,0
    1ef0:	0901                	addi	s2,s2,0
    1ef2:	0000                	unimp
    1ef4:	0501                	addi	a0,a0,0
    1ef6:	060e                	slli	a2,a2,0x3
    1ef8:	00090003          	lb	zero,0(s2)
    1efc:	0100                	addi	s0,sp,128
    1efe:	0305                	addi	t1,t1,1
    1f00:	0306                	slli	t1,t1,0x1
    1f02:	0901                	addi	s2,s2,0
    1f04:	0004                	0x4
    1f06:	0301                	addi	t1,t1,0
    1f08:	0901                	addi	s2,s2,0
    1f0a:	000a                	c.slli	zero,0x2
    1f0c:	0501                	addi	a0,a0,0
    1f0e:	060a                	slli	a2,a2,0x2
    1f10:	00090003          	lb	zero,0(s2)
    1f14:	0100                	addi	s0,sp,128
    1f16:	0905                	addi	s2,s2,1
    1f18:	02091b03          	lh	s6,32(s2)
    1f1c:	0100                	addi	s0,sp,128
    1f1e:	2805                	addiw	a6,a6,1
    1f20:	02097303          	0x2097303
    1f24:	0100                	addi	s0,sp,128
    1f26:	0505                	addi	a0,a0,1
    1f28:	0306                	slli	t1,t1,0x1
    1f2a:	0901                	addi	s2,s2,0
    1f2c:	0002                	c.slli64	zero
    1f2e:	0501                	addi	a0,a0,0
    1f30:	060c                	addi	a1,sp,768
    1f32:	00090003          	lb	zero,0(s2)
    1f36:	0100                	addi	s0,sp,128
    1f38:	0705                	addi	a4,a4,1
    1f3a:	02090003          	lb	zero,32(s2)
    1f3e:	0100                	addi	s0,sp,128
    1f40:	0505                	addi	a0,a0,1
    1f42:	0306                	slli	t1,t1,0x1
    1f44:	0004090b          	0x4090b
    1f48:	0501                	addi	a0,a0,0
    1f4a:	00030607          	0x30607
    1f4e:	0009                	c.nop	2
    1f50:	0100                	addi	s0,sp,128
    1f52:	0306                	slli	t1,t1,0x1
    1f54:	0901                	addi	s2,s2,0
    1f56:	0008                	0x8
    1f58:	0501                	addi	a0,a0,0
    1f5a:	095a0303          	lb	t1,149(s4)
    1f5e:	0000                	unimp
    1f60:	0301                	addi	t1,t1,0
    1f62:	0901                	addi	s2,s2,0
    1f64:	0000                	unimp
    1f66:	0301                	addi	t1,t1,0
    1f68:	0902                	c.slli64	s2
    1f6a:	0000                	unimp
    1f6c:	0301                	addi	t1,t1,0
    1f6e:	0902                	c.slli64	s2
    1f70:	0000                	unimp
    1f72:	0501                	addi	a0,a0,0
    1f74:	00030607          	0x30607
    1f78:	0009                	c.nop	2
    1f7a:	0100                	addi	s0,sp,128
    1f7c:	0305                	addi	t1,t1,1
    1f7e:	0306                	slli	t1,t1,0x1
    1f80:	0901                	addi	s2,s2,0
    1f82:	000a                	c.slli	zero,0x2
    1f84:	0501                	addi	a0,a0,0
    1f86:	0605                	addi	a2,a2,1
    1f88:	00090003          	lb	zero,0(s2)
    1f8c:	0100                	addi	s0,sp,128
    1f8e:	1005                	c.nop	-31
    1f90:	04092103          	lw	sp,64(s2)
    1f94:	0100                	addi	s0,sp,128
    1f96:	0409                	addi	s0,s0,2
    1f98:	0000                	unimp
    1f9a:	0101                	addi	sp,sp,0

Disassembly of section .debug_frame:

0000000000000000 <.debug_frame>:
getcmd():
/home/one/xv6-labs-2020/user/sh.c:136
   0:	000c                	0xc
   2:	0000                	unimp
   4:	ffff                	0xffff
   6:	ffff                	0xffff
   8:	0001                	nop
   a:	7c01                	lui	s8,0xfffe0
   c:	0d01                	addi	s10,s10,0
   e:	0002                	c.slli64	zero
/home/one/xv6-labs-2020/user/sh.c:137
  10:	0034                	addi	a3,sp,8
	...
  1e:	0000                	unimp
  20:	0054                	addi	a3,sp,4
/home/one/xv6-labs-2020/user/sh.c:138
  22:	0000                	unimp
  24:	0000                	unimp
  26:	0000                	unimp
  28:	0e42                	slli	t3,t3,0x10
  2a:	4820                	lw	s0,80(s0)
  2c:	0281                	addi	t0,t0,0
  2e:	0488                	addi	a0,sp,576
/home/one/xv6-labs-2020/user/sh.c:139
  30:	0689                	addi	a3,a3,2
  32:	0892                	slli	a7,a7,0x4
  34:	0c42                	slli	s8,s8,0x10
  36:	0008                	0x8
  38:	c17e                	sw	t6,128(sp)
  3a:	c842                	sw	a6,16(sp)
/home/one/xv6-labs-2020/user/sh.c:140
  3c:	020c                	addi	a1,sp,256
  3e:	4220                	lw	s0,64(a2)
  40:	42c9                	li	t0,18
  42:	42d2                	lw	t0,20(sp)
/home/one/xv6-labs-2020/user/sh.c:143
  44:	000e                	c.slli	zero,0x3
  46:	0000                	unimp
  48:	0024                	addi	s1,sp,8
  4a:	0000                	unimp
  4c:	0000                	unimp
  4e:	0000                	unimp
  50:	0054                	addi	a3,sp,4
  52:	0000                	unimp
panic():
/home/one/xv6-labs-2020/user/sh.c:177
  54:	0000                	unimp
  56:	0000                	unimp
  58:	0026                	c.slli	zero,0x9
  5a:	0000                	unimp
/home/one/xv6-labs-2020/user/sh.c:178
  5c:	0000                	unimp
  5e:	0000                	unimp
  60:	0e42                	slli	t3,t3,0x10
  62:	4410                	lw	a2,8(s0)
  64:	0281                	addi	t0,t0,0
  66:	0488                	addi	a0,sp,576
  68:	0c42                	slli	s8,s8,0x10
  6a:	0008                	0x8
  6c:	0000                	unimp
  6e:	0000                	unimp
/home/one/xv6-labs-2020/user/sh.c:179
  70:	0034                	addi	a3,sp,8
  72:	0000                	unimp
  74:	0000                	unimp
  76:	0000                	unimp
  78:	007a                	c.slli	zero,0x1e
fork1():
/home/one/xv6-labs-2020/user/sh.c:184
  7a:	0000                	unimp
  7c:	0000                	unimp
  7e:	0000                	unimp
  80:	002e                	c.slli	zero,0xb
/home/one/xv6-labs-2020/user/sh.c:187
  82:	0000                	unimp
  84:	0000                	unimp
  86:	0000                	unimp
  88:	0e42                	slli	t3,t3,0x10
/home/one/xv6-labs-2020/user/sh.c:188
  8a:	4410                	lw	a2,8(s0)
  8c:	0281                	addi	t0,t0,0
  8e:	0488                	addi	a0,sp,576
/home/one/xv6-labs-2020/user/sh.c:191
  90:	0c42                	slli	s8,s8,0x10
  92:	0008                	0x8
  94:	0a50                	addi	a2,sp,276
  96:	42c1                	li	t0,16
/home/one/xv6-labs-2020/user/sh.c:189
  98:	0cc8                	addi	a0,sp,596
  9a:	1002                	c.slli	zero,0x20
  9c:	0e42                	slli	t3,t3,0x10
  9e:	4200                	lw	s0,0(a2)
  a0:	0000000b          	0xb
  a4:	0000                	unimp
  a6:	0000                	unimp
runcmd():
/home/one/xv6-labs-2020/user/sh.c:59
  a8:	0024                	addi	s1,sp,8
  aa:	0000                	unimp
  ac:	0000                	unimp
  ae:	0000                	unimp
  b0:	00a8                	addi	a0,sp,72
/home/one/xv6-labs-2020/user/sh.c:67
  b2:	0000                	unimp
  b4:	0000                	unimp
/home/one/xv6-labs-2020/user/sh.c:70
  b6:	0000                	unimp
  b8:	01ce                	slli	gp,gp,0x13
  ba:	0000                	unimp
  bc:	0000                	unimp
  be:	0000                	unimp
  c0:	0e42                	slli	t3,t3,0x10
  c2:	4630                	lw	a2,72(a2)
  c4:	0281                	addi	t0,t0,0
  c6:	0488                	addi	a0,sp,576
  c8:	0689                	addi	a3,a3,2
  ca:	0c42                	slli	s8,s8,0x10
  cc:	0008                	0x8
  ce:	0000                	unimp
  d0:	0034                	addi	a3,sp,8
  d2:	0000                	unimp
/home/one/xv6-labs-2020/user/sh.c:68
  d4:	0000                	unimp
  d6:	0000                	unimp
  d8:	0276                	slli	tp,tp,0x1d
  da:	0000                	unimp
  dc:	0000                	unimp
/home/one/xv6-labs-2020/user/sh.c:72
  de:	0000                	unimp
  e0:	0036                	c.slli	zero,0xd
  e2:	0000                	unimp
  e4:	0000                	unimp
  e6:	0000                	unimp
  e8:	0e42                	slli	t3,t3,0x10
  ea:	4620                	lw	s0,72(a2)
  ec:	0281                	addi	t0,t0,0
/home/one/xv6-labs-2020/user/sh.c:76
  ee:	0488                	addi	a0,sp,576
  f0:	0689                	addi	a3,a3,2
/home/one/xv6-labs-2020/user/sh.c:79
  f2:	0c42                	slli	s8,s8,0x10
  f4:	0008                	0x8
  f6:	c164                	sw	s1,68(a0)
  f8:	c842                	sw	a6,16(sp)
  fa:	020c                	addi	a1,sp,256
  fc:	4220                	lw	s0,64(a2)
/home/one/xv6-labs-2020/user/sh.c:80
  fe:	42c9                	li	t0,18
 100:	000e                	c.slli	zero,0x3
 102:	0000                	unimp
 104:	0000                	unimp
 106:	0000                	unimp
 108:	0044                	addi	s1,sp,4
 10a:	0000                	unimp
 10c:	0000                	unimp
 10e:	0000                	unimp
 110:	02ac                	addi	a1,sp,328
/home/one/xv6-labs-2020/user/sh.c:131
 112:	0000                	unimp
 114:	0000                	unimp
 116:	0000                	unimp
 118:	0068                	addi	a0,sp,12
 11a:	0000                	unimp
/home/one/xv6-labs-2020/user/sh.c:77
 11c:	0000                	unimp
 11e:	0000                	unimp
 120:	0e42                	slli	t3,t3,0x10
 122:	5040                	lw	s0,36(s0)
 124:	0281                	addi	t0,t0,0
/home/one/xv6-labs-2020/user/sh.c:85
 126:	0488                	addi	a0,sp,576
 128:	0689                	addi	a3,a3,2
 12a:	0892                	slli	a7,a7,0x4
 12c:	0c940a93          	addi	s5,s0,201
/home/one/xv6-labs-2020/user/sh.c:86
 130:	0e95                	addi	t4,t4,5
 132:	1096                	slli	ra,ra,0x25
 134:	0c42                	slli	s8,s8,0x10
 136:	0008                	0x8
 138:	4202                	lw	tp,0(sp)
 13a:	42c1                	li	t0,16
 13c:	0cc8                	addi	a0,sp,596
 13e:	4002                	0x4002
/home/one/xv6-labs-2020/user/sh.c:90
 140:	c942                	sw	a6,144(sp)
 142:	d242                	sw	a6,36(sp)
 144:	d342                	sw	a6,164(sp)
 146:	d442                	sw	a6,40(sp)
 148:	d542                	sw	a6,168(sp)
/home/one/xv6-labs-2020/user/sh.c:87
 14a:	d642                	sw	a6,44(sp)
 14c:	0e42                	slli	t3,t3,0x10
 14e:	0000                	unimp
 150:	003c                	addi	a5,sp,8
 152:	0000                	unimp
 154:	0000                	unimp
 156:	0000                	unimp
 158:	0314                	addi	a3,sp,384
 15a:	0000                	unimp
 15c:	0000                	unimp
/home/one/xv6-labs-2020/user/sh.c:88
 15e:	0000                	unimp
 160:	0046                	c.slli	zero,0x11
 162:	0000                	unimp
 164:	0000                	unimp
 166:	0000                	unimp
/home/one/xv6-labs-2020/user/sh.c:95
 168:	0e42                	slli	t3,t3,0x10
 16a:	4a30                	lw	a2,80(a2)
 16c:	0281                	addi	t0,t0,0
 16e:	0488                	addi	a0,sp,576
 170:	0689                	addi	a3,a3,2
/home/one/xv6-labs-2020/user/sh.c:97
 172:	0892                	slli	a7,a7,0x4
 174:	0c420a93          	addi	s5,tp,196 # ffffffffffff90c4 <__global_pointer$+0xffffffffffff745c>
 178:	0008                	0x8
 17a:	c16c                	sw	a1,68(a0)
/home/one/xv6-labs-2020/user/sh.c:98
 17c:	c842                	sw	a6,16(sp)
 17e:	020c                	addi	a1,sp,256
 180:	4230                	lw	a2,64(a2)
 182:	42c9                	li	t0,18
 184:	42d2                	lw	t0,20(sp)
/home/one/xv6-labs-2020/user/sh.c:96
 186:	000e42d3          	fadd.s	ft5,ft8,ft0,rmm
 18a:	0000                	unimp
 18c:	0000                	unimp
 18e:	0000                	unimp
/home/one/xv6-labs-2020/user/sh.c:103
 190:	003c                	addi	a5,sp,8
 192:	0000                	unimp
 194:	0000                	unimp
 196:	0000                	unimp
 198:	035a                	slli	t1,t1,0x16
 19a:	0000                	unimp
 19c:	0000                	unimp
 19e:	0000                	unimp
/home/one/xv6-labs-2020/user/sh.c:105
 1a0:	0046                	c.slli	zero,0x11
 1a2:	0000                	unimp
 1a4:	0000                	unimp
 1a6:	0000                	unimp
 1a8:	0e42                	slli	t3,t3,0x10
/home/one/xv6-labs-2020/user/sh.c:112
 1aa:	4a30                	lw	a2,80(a2)
 1ac:	0281                	addi	t0,t0,0
 1ae:	0488                	addi	a0,sp,576
 1b0:	0689                	addi	a3,a3,2
 1b2:	0892                	slli	a7,a7,0x4
/home/one/xv6-labs-2020/user/sh.c:119
 1b4:	0c420a93          	addi	s5,tp,196 # c4 <runcmd+0x1c>
 1b8:	0008                	0x8
 1ba:	c16c                	sw	a1,68(a0)
 1bc:	c842                	sw	a6,16(sp)
 1be:	020c                	addi	a1,sp,256
/home/one/xv6-labs-2020/user/sh.c:120
 1c0:	4230                	lw	a2,64(a2)
 1c2:	42c9                	li	t0,18
 1c4:	42d2                	lw	t0,20(sp)
 1c6:	000e42d3          	fadd.s	ft5,ft8,ft0,rmm
 1ca:	0000                	unimp
/home/one/xv6-labs-2020/user/sh.c:121
 1cc:	0000                	unimp
 1ce:	0000                	unimp
 1d0:	0034                	addi	a3,sp,8
 1d2:	0000                	unimp
 1d4:	0000                	unimp
/home/one/xv6-labs-2020/user/sh.c:122
 1d6:	0000                	unimp
 1d8:	03a0                	addi	s0,sp,456
 1da:	0000                	unimp
 1dc:	0000                	unimp
 1de:	0000                	unimp
/home/one/xv6-labs-2020/user/sh.c:123
 1e0:	003c                	addi	a5,sp,8
/home/one/xv6-labs-2020/user/sh.c:104
 1e2:	0000                	unimp
 1e4:	0000                	unimp
 1e6:	0000                	unimp
 1e8:	0e42                	slli	t3,t3,0x10
 1ea:	4820                	lw	s0,80(s0)
 1ec:	0281                	addi	t0,t0,0
 1ee:	0488                	addi	a0,sp,576
 1f0:	0689                	addi	a3,a3,2
/home/one/xv6-labs-2020/user/sh.c:106
 1f2:	0892                	slli	a7,a7,0x4
 1f4:	0c42                	slli	s8,s8,0x10
 1f6:	0008                	0x8
 1f8:	c166                	sw	s9,128(sp)
 1fa:	c842                	sw	a6,16(sp)
/home/one/xv6-labs-2020/user/sh.c:107
 1fc:	020c                	addi	a1,sp,256
 1fe:	4220                	lw	s0,64(a2)
 200:	42c9                	li	t0,18
 202:	42d2                	lw	t0,20(sp)
 204:	000e                	c.slli	zero,0x3
 206:	0000                	unimp
/home/one/xv6-labs-2020/user/sh.c:108
 208:	004c                	addi	a1,sp,4
 20a:	0000                	unimp
 20c:	0000                	unimp
 20e:	0000                	unimp
 210:	03dc                	addi	a5,sp,452
 212:	0000                	unimp
/home/one/xv6-labs-2020/user/sh.c:109
 214:	0000                	unimp
 216:	0000                	unimp
 218:	0144                	addi	s1,sp,132
 21a:	0000                	unimp
 21c:	0000                	unimp
 21e:	0000                	unimp
/home/one/xv6-labs-2020/user/sh.c:110
 220:	0e42                	slli	t3,t3,0x10
 222:	5040                	lw	s0,36(s0)
 224:	0281                	addi	t0,t0,0
 226:	0488                	addi	a0,sp,576
 228:	0689                	addi	a3,a3,2
/home/one/xv6-labs-2020/user/sh.c:113
 22a:	0892                	slli	a7,a7,0x4
 22c:	0c940a93          	addi	s5,s0,201
 230:	0e95                	addi	t4,t4,5
/home/one/xv6-labs-2020/user/sh.c:114
 232:	1096                	slli	ra,ra,0x25
 234:	0c42                	slli	s8,s8,0x10
 236:	0008                	0x8
 238:	8002                	0x8002
 23a:	c10a                	sw	sp,128(sp)
 23c:	c842                	sw	a6,16(sp)
/home/one/xv6-labs-2020/user/sh.c:115
 23e:	020c                	addi	a1,sp,256
 240:	4240                	lw	s0,4(a2)
 242:	42c9                	li	t0,18
 244:	42d2                	lw	t0,20(sp)
 246:	42d442d3          	0x42d442d3
/home/one/xv6-labs-2020/user/sh.c:116
 24a:	42d5                	li	t0,21
 24c:	42d6                	lw	t0,84(sp)
 24e:	000e                	c.slli	zero,0x3
 250:	0b42                	slli	s6,s6,0x10
 252:	0000                	unimp
 254:	0000                	unimp
/home/one/xv6-labs-2020/user/sh.c:117
 256:	0000                	unimp
 258:	0044                	addi	s1,sp,4
 25a:	0000                	unimp
 25c:	0000                	unimp
 25e:	0000                	unimp
/home/one/xv6-labs-2020/user/sh.c:127
 260:	0520                	addi	s0,sp,648
 262:	0000                	unimp
 264:	0000                	unimp
 266:	0000                	unimp
 268:	006a                	c.slli	zero,0x1a
 26a:	0000                	unimp
/home/one/xv6-labs-2020/user/sh.c:128
 26c:	0000                	unimp
 26e:	0000                	unimp
 270:	0e42                	slli	t3,t3,0x10
 272:	4e40                	lw	s0,28(a2)
 274:	0281                	addi	t0,t0,0
execcmd():
/home/one/xv6-labs-2020/user/sh.c:198
 276:	0488                	addi	a0,sp,576
 278:	0689                	addi	a3,a3,2
 27a:	0892                	slli	a7,a7,0x4
 27c:	0c940a93          	addi	s5,s0,201
/home/one/xv6-labs-2020/user/sh.c:201
 280:	0e95                	addi	t4,t4,5
 282:	0c42                	slli	s8,s8,0x10
 284:	0008                	0x8
 286:	0a78                	addi	a4,sp,284
 288:	42c1                	li	t0,16
 28a:	0cc8                	addi	a0,sp,596
 28c:	4002                	0x4002
/home/one/xv6-labs-2020/user/sh.c:202
 28e:	c942                	sw	a6,144(sp)
 290:	d242                	sw	a6,36(sp)
 292:	d342                	sw	a6,164(sp)
 294:	d442                	sw	a6,40(sp)
 296:	d542                	sw	a6,168(sp)
 298:	0e42                	slli	t3,t3,0x10
 29a:	4200                	lw	s0,0(a2)
/home/one/xv6-labs-2020/user/sh.c:203
 29c:	0000000b          	0xb
/home/one/xv6-labs-2020/user/sh.c:205
 2a0:	0054                	addi	a3,sp,4
 2a2:	0000                	unimp
 2a4:	0000                	unimp
 2a6:	0000                	unimp
 2a8:	058a                	slli	a1,a1,0x2
 2aa:	0000                	unimp
redircmd():
/home/one/xv6-labs-2020/user/sh.c:209
 2ac:	0000                	unimp
 2ae:	0000                	unimp
 2b0:	00fc                	addi	a5,sp,76
 2b2:	0000                	unimp
 2b4:	0000                	unimp
 2b6:	0000                	unimp
 2b8:	0e42                	slli	t3,t3,0x10
 2ba:	5670                	lw	a2,108(a2)
 2bc:	0281                	addi	t0,t0,0
 2be:	0488                	addi	a0,sp,576
 2c0:	0689                	addi	a3,a3,2
 2c2:	0892                	slli	a7,a7,0x4
 2c4:	0c940a93          	addi	s5,s0,201
 2c8:	0e95                	addi	t4,t4,5
/home/one/xv6-labs-2020/user/sh.c:212
 2ca:	1096                	slli	ra,ra,0x25
 2cc:	14981297          	auipc	t0,0x14981
 2d0:	1699                	addi	a3,a3,-26
 2d2:	0c42                	slli	s8,s8,0x10
 2d4:	0008                	0x8
 2d6:	ca02                	sw	zero,20(sp)
/home/one/xv6-labs-2020/user/sh.c:213
 2d8:	42c1                	li	t0,16
 2da:	0cc8                	addi	a0,sp,596
 2dc:	7002                	0x7002
 2de:	c942                	sw	a6,144(sp)
 2e0:	d242                	sw	a6,36(sp)
 2e2:	d342                	sw	a6,164(sp)
 2e4:	d442                	sw	a6,40(sp)
/home/one/xv6-labs-2020/user/sh.c:214
 2e6:	d542                	sw	a6,168(sp)
 2e8:	d642                	sw	a6,44(sp)
/home/one/xv6-labs-2020/user/sh.c:215
 2ea:	d742                	sw	a6,172(sp)
 2ec:	d842                	sw	a6,48(sp)
/home/one/xv6-labs-2020/user/sh.c:216
 2ee:	d942                	sw	a6,176(sp)
 2f0:	0e42                	slli	t3,t3,0x10
/home/one/xv6-labs-2020/user/sh.c:217
 2f2:	0000                	unimp
 2f4:	0000                	unimp
/home/one/xv6-labs-2020/user/sh.c:218
 2f6:	0000                	unimp
 2f8:	0054                	addi	a3,sp,4
/home/one/xv6-labs-2020/user/sh.c:219
 2fa:	0000                	unimp
 2fc:	0000                	unimp
/home/one/xv6-labs-2020/user/sh.c:221
 2fe:	0000                	unimp
 300:	0686                	slli	a3,a3,0x1
 302:	0000                	unimp
 304:	0000                	unimp
 306:	0000                	unimp
 308:	0104                	addi	s1,sp,128
 30a:	0000                	unimp
 30c:	0000                	unimp
 30e:	0000                	unimp
 310:	0e42                	slli	t3,t3,0x10
 312:	5670                	lw	a2,108(a2)
pipecmd():
/home/one/xv6-labs-2020/user/sh.c:225
 314:	0281                	addi	t0,t0,0
 316:	0488                	addi	a0,sp,576
 318:	0689                	addi	a3,a3,2
 31a:	0892                	slli	a7,a7,0x4
 31c:	0c940a93          	addi	s5,s0,201
 320:	0e95                	addi	t4,t4,5
 322:	1096                	slli	ra,ra,0x25
 324:	14981297          	auipc	t0,0x14981
/home/one/xv6-labs-2020/user/sh.c:228
 328:	1699                	addi	a3,a3,-26
 32a:	0c42                	slli	s8,s8,0x10
 32c:	0008                	0x8
 32e:	5602                	lw	a2,32(sp)
 330:	c10a                	sw	sp,128(sp)
/home/one/xv6-labs-2020/user/sh.c:229
 332:	c842                	sw	a6,16(sp)
 334:	020c                	addi	a1,sp,256
 336:	4270                	lw	a2,68(a2)
 338:	42c9                	li	t0,18
 33a:	42d2                	lw	t0,20(sp)
 33c:	42d442d3          	0x42d442d3
/home/one/xv6-labs-2020/user/sh.c:230
 340:	42d5                	li	t0,21
/home/one/xv6-labs-2020/user/sh.c:231
 342:	42d6                	lw	t0,84(sp)
 344:	42d842d7          	0x42d842d7
/home/one/xv6-labs-2020/user/sh.c:232
 348:	42d9                	li	t0,22
/home/one/xv6-labs-2020/user/sh.c:234
 34a:	000e                	c.slli	zero,0x3
 34c:	0b42                	slli	s6,s6,0x10
 34e:	0000                	unimp
 350:	003c                	addi	a5,sp,8
 352:	0000                	unimp
 354:	0000                	unimp
 356:	0000                	unimp
 358:	078a                	slli	a5,a5,0x2
listcmd():
/home/one/xv6-labs-2020/user/sh.c:238
 35a:	0000                	unimp
 35c:	0000                	unimp
 35e:	0000                	unimp
 360:	006e                	c.slli	zero,0x1b
 362:	0000                	unimp
 364:	0000                	unimp
 366:	0000                	unimp
 368:	0e42                	slli	t3,t3,0x10
 36a:	4a30                	lw	a2,80(a2)
/home/one/xv6-labs-2020/user/sh.c:241
 36c:	0281                	addi	t0,t0,0
 36e:	0488                	addi	a0,sp,576
 370:	0689                	addi	a3,a3,2
 372:	0892                	slli	a7,a7,0x4
 374:	0c420a93          	addi	s5,tp,196 # c4 <runcmd+0x1c>
/home/one/xv6-labs-2020/user/sh.c:242
 378:	0008                	0x8
 37a:	0a68                	addi	a0,sp,284
 37c:	42c1                	li	t0,16
 37e:	0cc8                	addi	a0,sp,596
 380:	3002                	fld	ft0,32(sp)
 382:	c942                	sw	a6,144(sp)
/home/one/xv6-labs-2020/user/sh.c:243
 384:	d242                	sw	a6,36(sp)
 386:	d342                	sw	a6,164(sp)
/home/one/xv6-labs-2020/user/sh.c:244
 388:	0e42                	slli	t3,t3,0x10
 38a:	4200                	lw	s0,0(a2)
/home/one/xv6-labs-2020/user/sh.c:245
 38c:	0000000b          	0xb
/home/one/xv6-labs-2020/user/sh.c:247
 390:	0044                	addi	s1,sp,4
 392:	0000                	unimp
 394:	0000                	unimp
 396:	0000                	unimp
 398:	07f8                	addi	a4,sp,972
 39a:	0000                	unimp
 39c:	0000                	unimp
 39e:	0000                	unimp
backcmd():
/home/one/xv6-labs-2020/user/sh.c:251
 3a0:	00a8                	addi	a0,sp,72
 3a2:	0000                	unimp
 3a4:	0000                	unimp
 3a6:	0000                	unimp
 3a8:	0e42                	slli	t3,t3,0x10
 3aa:	4c30                	lw	a2,88(s0)
 3ac:	0281                	addi	t0,t0,0
/home/one/xv6-labs-2020/user/sh.c:254
 3ae:	0488                	addi	a0,sp,576
 3b0:	0689                	addi	a3,a3,2
 3b2:	0892                	slli	a7,a7,0x4
 3b4:	0c940a93          	addi	s5,s0,201
 3b8:	0c42                	slli	s8,s8,0x10
/home/one/xv6-labs-2020/user/sh.c:255
 3ba:	0008                	0x8
 3bc:	5e02                	lw	t3,32(sp)
 3be:	c10a                	sw	sp,128(sp)
 3c0:	c842                	sw	a6,16(sp)
 3c2:	020c                	addi	a1,sp,256
 3c4:	4230                	lw	a2,64(a2)
/home/one/xv6-labs-2020/user/sh.c:256
 3c6:	42c9                	li	t0,18
 3c8:	42d2                	lw	t0,20(sp)
/home/one/xv6-labs-2020/user/sh.c:257
 3ca:	42d442d3          	0x42d442d3
/home/one/xv6-labs-2020/user/sh.c:259
 3ce:	000e                	c.slli	zero,0x3
 3d0:	0b42                	slli	s6,s6,0x10
 3d2:	0000                	unimp
 3d4:	0000                	unimp
 3d6:	0000                	unimp
 3d8:	003c                	addi	a5,sp,8
 3da:	0000                	unimp
gettoken():
/home/one/xv6-labs-2020/user/sh.c:268
 3dc:	0000                	unimp
 3de:	0000                	unimp
 3e0:	08a0                	addi	s0,sp,88
 3e2:	0000                	unimp
 3e4:	0000                	unimp
 3e6:	0000                	unimp
 3e8:	00a4                	addi	s1,sp,72
 3ea:	0000                	unimp
 3ec:	0000                	unimp
 3ee:	0000                	unimp
 3f0:	0e42                	slli	t3,t3,0x10
 3f2:	4a30                	lw	a2,80(a2)
 3f4:	0281                	addi	t0,t0,0
 3f6:	0488                	addi	a0,sp,576
/home/one/xv6-labs-2020/user/sh.c:272
 3f8:	0689                	addi	a3,a3,2
/home/one/xv6-labs-2020/user/sh.c:273
 3fa:	0892                	slli	a7,a7,0x4
 3fc:	0c420a93          	addi	s5,tp,196 # c4 <runcmd+0x1c>
 400:	0008                	0x8
 402:	6a02                	ld	s4,0(sp)
 404:	c10a                	sw	sp,128(sp)
/home/one/xv6-labs-2020/user/sh.c:273 (discriminator 1)
 406:	c842                	sw	a6,16(sp)
 408:	020c                	addi	a1,sp,256
 40a:	4230                	lw	a2,64(a2)
 40c:	42c9                	li	t0,18
 40e:	42d2                	lw	t0,20(sp)
 410:	000e42d3          	fadd.s	ft5,ft8,ft0,rmm
 414:	0b42                	slli	s6,s6,0x10
/home/one/xv6-labs-2020/user/sh.c:274
 416:	0000                	unimp
/home/one/xv6-labs-2020/user/sh.c:273
 418:	0034                	addi	a3,sp,8
 41a:	0000                	unimp
/home/one/xv6-labs-2020/user/sh.c:275
 41c:	0000                	unimp
 41e:	0000                	unimp
/home/one/xv6-labs-2020/user/sh.c:276
 420:	0944                	addi	s1,sp,148
 422:	0000                	unimp
/home/one/xv6-labs-2020/user/sh.c:277
 424:	0000                	unimp
 426:	0000                	unimp
 428:	0098                	addi	a4,sp,64
 42a:	0000                	unimp
/home/one/xv6-labs-2020/user/sh.c:278
 42c:	0000                	unimp
 42e:	0000                	unimp
 430:	0e42                	slli	t3,t3,0x10
 432:	4620                	lw	s0,72(a2)
 434:	0281                	addi	t0,t0,0
 436:	0488                	addi	a0,sp,576
 438:	0689                	addi	a3,a3,2
 43a:	0c42                	slli	s8,s8,0x10
 43c:	0008                	0x8
/home/one/xv6-labs-2020/user/sh.c:302
 43e:	4e02                	lw	t3,0(sp)
 440:	c10a                	sw	sp,128(sp)
/home/one/xv6-labs-2020/user/sh.c:303
 442:	c842                	sw	a6,16(sp)
 444:	020c                	addi	a1,sp,256
/home/one/xv6-labs-2020/user/sh.c:305
 446:	4220                	lw	s0,64(a2)
 448:	42c9                	li	t0,18
 44a:	000e                	c.slli	zero,0x3
 44c:	0b42                	slli	s6,s6,0x10
 44e:	0000                	unimp
 450:	003c                	addi	a5,sp,8
/home/one/xv6-labs-2020/user/sh.c:305 (discriminator 1)
 452:	0000                	unimp
 454:	0000                	unimp
 456:	0000                	unimp
 458:	09dc                	addi	a5,sp,212
 45a:	0000                	unimp
 45c:	0000                	unimp
 45e:	0000                	unimp
 460:	0088                	addi	a0,sp,64
/home/one/xv6-labs-2020/user/sh.c:306
 462:	0000                	unimp
/home/one/xv6-labs-2020/user/sh.c:305
 464:	0000                	unimp
 466:	0000                	unimp
/home/one/xv6-labs-2020/user/sh.c:307
 468:	0e42                	slli	t3,t3,0x10
 46a:	4830                	lw	a2,80(s0)
/home/one/xv6-labs-2020/user/sh.c:309
 46c:	0281                	addi	t0,t0,0
 46e:	0488                	addi	a0,sp,576
 470:	0689                	addi	a3,a3,2
 472:	0892                	slli	a7,a7,0x4
 474:	0c42                	slli	s8,s8,0x10
 476:	0008                	0x8
 478:	5002                	0x5002
 47a:	c10a                	sw	sp,128(sp)
 47c:	c842                	sw	a6,16(sp)
 47e:	020c                	addi	a1,sp,256
 480:	4230                	lw	a2,64(a2)
/home/one/xv6-labs-2020/user/sh.c:278
 482:	42c9                	li	t0,18
 484:	42d2                	lw	t0,20(sp)
 486:	000e                	c.slli	zero,0x3
 488:	0b42                	slli	s6,s6,0x10
/home/one/xv6-labs-2020/user/sh.c:298
 48a:	0000                	unimp
 48c:	0000                	unimp
 48e:	0000                	unimp
 490:	002c                	addi	a1,sp,8
 492:	0000                	unimp
 494:	0000                	unimp
 496:	0000                	unimp
 498:	0a64                	addi	s1,sp,284
 49a:	0000                	unimp
 49c:	0000                	unimp
/home/one/xv6-labs-2020/user/sh.c:298 (discriminator 1)
 49e:	0000                	unimp
 4a0:	00f4                	addi	a3,sp,76
 4a2:	0000                	unimp
 4a4:	0000                	unimp
 4a6:	0000                	unimp
 4a8:	0e42                	slli	t3,t3,0x10
 4aa:	4e40                	lw	s0,28(a2)
 4ac:	0281                	addi	t0,t0,0
/home/one/xv6-labs-2020/user/sh.c:298 (discriminator 2)
 4ae:	0488                	addi	a0,sp,576
 4b0:	0689                	addi	a3,a3,2
 4b2:	0892                	slli	a7,a7,0x4
 4b4:	0c940a93          	addi	s5,s0,201
 4b8:	0e95                	addi	t4,t4,5
 4ba:	0c42                	slli	s8,s8,0x10
 4bc:	0008                	0x8
/home/one/xv6-labs-2020/user/sh.c:299
 4be:	0000                	unimp
/home/one/xv6-labs-2020/user/sh.c:298
 4c0:	000c                	0xc
 4c2:	0000                	unimp
/home/one/xv6-labs-2020/user/sh.c:302
 4c4:	ffff                	0xffff
 4c6:	ffff                	0xffff
 4c8:	0001                	nop
 4ca:	7c01                	lui	s8,0xfffe0
 4cc:	0d01                	addi	s10,s10,0
/home/one/xv6-labs-2020/user/sh.c:278
 4ce:	0002                	c.slli64	zero
 4d0:	002c                	addi	a1,sp,8
 4d2:	0000                	unimp
 4d4:	04c0                	addi	s0,sp,580
 4d6:	0000                	unimp
 4d8:	0b58                	addi	a4,sp,404
 4da:	0000                	unimp
 4dc:	0000                	unimp
 4de:	0000                	unimp
 4e0:	001c                	0x1c
 4e2:	0000                	unimp
 4e4:	0000                	unimp
 4e6:	0000                	unimp
/home/one/xv6-labs-2020/user/sh.c:287
 4e8:	0e42                	slli	t3,t3,0x10
/home/one/xv6-labs-2020/user/sh.c:288
 4ea:	4210                	lw	a2,0(a2)
/home/one/xv6-labs-2020/user/sh.c:278
 4ec:	0288                	addi	a0,sp,320
 4ee:	0c42                	slli	s8,s8,0x10
 4f0:	0008                	0x8
 4f2:	c852                	sw	s4,16(sp)
 4f4:	020c                	addi	a1,sp,256
/home/one/xv6-labs-2020/user/sh.c:290
 4f6:	4210                	lw	a2,0(a2)
 4f8:	000e                	c.slli	zero,0x3
/home/one/xv6-labs-2020/user/sh.c:291
 4fa:	0000                	unimp
 4fc:	0000                	unimp
 4fe:	0000                	unimp
 500:	002c                	addi	a1,sp,8
/home/one/xv6-labs-2020/user/sh.c:293
 502:	0000                	unimp
/home/one/xv6-labs-2020/user/sh.c:292
 504:	04c0                	addi	s0,sp,580
 506:	0000                	unimp
/home/one/xv6-labs-2020/user/sh.c:291
 508:	0b74                	addi	a3,sp,412
 50a:	0000                	unimp
/home/one/xv6-labs-2020/user/sh.c:290
 50c:	0000                	unimp
/home/one/xv6-labs-2020/user/sh.c:277
 50e:	0000                	unimp
 510:	0034                	addi	a3,sp,8
 512:	0000                	unimp
/home/one/xv6-labs-2020/user/sh.c:297
 514:	0000                	unimp
 516:	0000                	unimp
 518:	0e42                	slli	t3,t3,0x10
 51a:	4210                	lw	a2,0(a2)
 51c:	0288                	addi	a0,sp,320
 51e:	0c42                	slli	s8,s8,0x10
peek():
/home/one/xv6-labs-2020/user/sh.c:313
 520:	0008                	0x8
 522:	c86a                	sw	s10,16(sp)
 524:	020c                	addi	a1,sp,256
 526:	4210                	lw	a2,0(a2)
 528:	000e                	c.slli	zero,0x3
 52a:	0000                	unimp
 52c:	0000                	unimp
 52e:	0000                	unimp
 530:	002c                	addi	a1,sp,8
 532:	0000                	unimp
 534:	04c0                	addi	s0,sp,580
 536:	0000                	unimp
/home/one/xv6-labs-2020/user/sh.c:316
 538:	0ba8                	addi	a0,sp,472
/home/one/xv6-labs-2020/user/sh.c:317
 53a:	0000                	unimp
 53c:	0000                	unimp
 53e:	0000                	unimp
 540:	002a                	c.slli	zero,0xa
 542:	0000                	unimp
 544:	0000                	unimp
/home/one/xv6-labs-2020/user/sh.c:317 (discriminator 1)
 546:	0000                	unimp
 548:	0e42                	slli	t3,t3,0x10
 54a:	4210                	lw	a2,0(a2)
 54c:	0288                	addi	a0,sp,320
 54e:	0c42                	slli	s8,s8,0x10
 550:	0008                	0x8
 552:	0a5c                	addi	a5,sp,276
 554:	0cc8                	addi	a0,sp,596
/home/one/xv6-labs-2020/user/sh.c:318
 556:	1002                	c.slli	zero,0x20
/home/one/xv6-labs-2020/user/sh.c:317
 558:	0e42                	slli	t3,t3,0x10
 55a:	4200                	lw	s0,0(a2)
/home/one/xv6-labs-2020/user/sh.c:319
 55c:	0000000b          	0xb
/home/one/xv6-labs-2020/user/sh.c:320
 560:	002c                	addi	a1,sp,8
 562:	0000                	unimp
 564:	04c0                	addi	s0,sp,580
 566:	0000                	unimp
/home/one/xv6-labs-2020/user/sh.c:321 (discriminator 6)
 568:	0bd2                	slli	s7,s7,0x14
 56a:	0000                	unimp
 56c:	0000                	unimp
 56e:	0000                	unimp
 570:	0026                	c.slli	zero,0x9
 572:	0000                	unimp
 574:	0000                	unimp
 576:	0000                	unimp
 578:	0e42                	slli	t3,t3,0x10
/home/one/xv6-labs-2020/user/sh.c:320 (discriminator 1)
 57a:	4210                	lw	a2,0(a2)
 57c:	0288                	addi	a0,sp,320
 57e:	0c42                	slli	s8,s8,0x10
 580:	0008                	0x8
 582:	c85c                	sw	a5,20(s0)
 584:	020c                	addi	a1,sp,256
 586:	4210                	lw	a2,0(a2)
 588:	000e                	c.slli	zero,0x3
parseredirs():
/home/one/xv6-labs-2020/user/sh.c:377
 58a:	0000                	unimp
 58c:	0000                	unimp
 58e:	0000                	unimp
 590:	002c                	addi	a1,sp,8
 592:	0000                	unimp
 594:	04c0                	addi	s0,sp,580
 596:	0000                	unimp
 598:	0bf8                	addi	a4,sp,476
 59a:	0000                	unimp
 59c:	0000                	unimp
 59e:	0000                	unimp
 5a0:	002a                	c.slli	zero,0xa
 5a2:	0000                	unimp
 5a4:	0000                	unimp
 5a6:	0000                	unimp
 5a8:	0e42                	slli	t3,t3,0x10
/home/one/xv6-labs-2020/user/sh.c:381
 5aa:	4210                	lw	a2,0(a2)
 5ac:	0288                	addi	a0,sp,320
 5ae:	0c42                	slli	s8,s8,0x10
 5b0:	0008                	0x8
/home/one/xv6-labs-2020/user/sh.c:383
 5b2:	0a5c                	addi	a5,sp,276
 5b4:	0cc8                	addi	a0,sp,596
/home/one/xv6-labs-2020/user/sh.c:385
 5b6:	1002                	c.slli	zero,0x20
 5b8:	0e42                	slli	t3,t3,0x10
/home/one/xv6-labs-2020/user/sh.c:381
 5ba:	4200                	lw	s0,0(a2)
/home/one/xv6-labs-2020/user/sh.c:384
 5bc:	0000000b          	0xb
 5c0:	004c                	addi	a1,sp,4
 5c2:	0000                	unimp
 5c4:	04c0                	addi	s0,sp,580
 5c6:	0000                	unimp
 5c8:	0c22                	slli	s8,s8,0x8
 5ca:	0000                	unimp
/home/one/xv6-labs-2020/user/sh.c:387
 5cc:	0000                	unimp
 5ce:	0000                	unimp
 5d0:	0074                	addi	a3,sp,12
 5d2:	0000                	unimp
 5d4:	0000                	unimp
 5d6:	0000                	unimp
 5d8:	0e42                	slli	t3,t3,0x10
 5da:	5260                	lw	s0,100(a2)
 5dc:	0281                	addi	t0,t0,0
 5de:	0488                	addi	a0,sp,576
 5e0:	0689                	addi	a3,a3,2
 5e2:	0892                	slli	a7,a7,0x4
/home/one/xv6-labs-2020/user/sh.c:385
 5e4:	0c940a93          	addi	s5,s0,201
 5e8:	0e95                	addi	t4,t4,5
 5ea:	1096                	slli	ra,ra,0x25
/home/one/xv6-labs-2020/user/sh.c:381
 5ec:	0c421297          	auipc	t0,0xc421
 5f0:	0008                	0x8
 5f2:	4a02                	lw	s4,0(sp)
 5f4:	42c1                	li	t0,16
 5f6:	0cc8                	addi	a0,sp,596
 5f8:	6002                	0x6002
 5fa:	c942                	sw	a6,144(sp)
/home/one/xv6-labs-2020/user/sh.c:382
 5fc:	d242                	sw	a6,36(sp)
 5fe:	d342                	sw	a6,164(sp)
 600:	d442                	sw	a6,40(sp)
 602:	d542                	sw	a6,168(sp)
 604:	d642                	sw	a6,44(sp)
 606:	d742                	sw	a6,172(sp)
 608:	0e42                	slli	t3,t3,0x10
 60a:	0000                	unimp
 60c:	0000                	unimp
/home/one/xv6-labs-2020/user/sh.c:383
 60e:	0000                	unimp
 610:	003c                	addi	a5,sp,8
 612:	0000                	unimp
 614:	04c0                	addi	s0,sp,580
 616:	0000                	unimp
 618:	0c96                	slli	s9,s9,0x5
 61a:	0000                	unimp
 61c:	0000                	unimp
 61e:	0000                	unimp
 620:	0046                	c.slli	zero,0x11
 622:	0000                	unimp
 624:	0000                	unimp
/home/one/xv6-labs-2020/user/sh.c:385
 626:	0000                	unimp
 628:	0e42                	slli	t3,t3,0x10
 62a:	4820                	lw	s0,80(s0)
 62c:	0281                	addi	t0,t0,0
 62e:	0488                	addi	a0,sp,576
 630:	0689                	addi	a3,a3,2
/home/one/xv6-labs-2020/user/sh.c:393
 632:	0892                	slli	a7,a7,0x4
 634:	0c42                	slli	s8,s8,0x10
 636:	0008                	0x8
 638:	0a6c                	addi	a1,sp,284
 63a:	42c1                	li	t0,16
 63c:	0cc8                	addi	a0,sp,596
 63e:	2002                	fld	ft0,0(sp)
 640:	c942                	sw	a6,144(sp)
 642:	d242                	sw	a6,36(sp)
 644:	0e42                	slli	t3,t3,0x10
 646:	4200                	lw	s0,0(a2)
 648:	0000000b          	0xb
/home/one/xv6-labs-2020/user/sh.c:394
 64c:	0000                	unimp
/home/one/xv6-labs-2020/user/sh.c:390
 64e:	0000                	unimp
 650:	002c                	addi	a1,sp,8
 652:	0000                	unimp
 654:	04c0                	addi	s0,sp,580
 656:	0000                	unimp
 658:	0cdc                	addi	a5,sp,596
 65a:	0000                	unimp
 65c:	0000                	unimp
 65e:	0000                	unimp
 660:	004a                	c.slli	zero,0x12
 662:	0000                	unimp
 664:	0000                	unimp
 666:	0000                	unimp
/home/one/xv6-labs-2020/user/sh.c:391
 668:	0e42                	slli	t3,t3,0x10
/home/one/xv6-labs-2020/user/sh.c:398
 66a:	4210                	lw	a2,0(a2)
 66c:	0288                	addi	a0,sp,320
 66e:	0c42                	slli	s8,s8,0x10
 670:	0008                	0x8
 672:	0a7c                	addi	a5,sp,284
 674:	0cc8                	addi	a0,sp,596
 676:	1002                	c.slli	zero,0x20
 678:	0e42                	slli	t3,t3,0x10
 67a:	4200                	lw	s0,0(a2)
 67c:	0000000b          	0xb
 680:	002c                	addi	a1,sp,8
 682:	0000                	unimp
 684:	04c0                	addi	s0,sp,580
parseexec():
/home/one/xv6-labs-2020/user/sh.c:418
 686:	0000                	unimp
 688:	0d26                	slli	s10,s10,0x9
 68a:	0000                	unimp
 68c:	0000                	unimp
 68e:	0000                	unimp
 690:	005c                	addi	a5,sp,4
 692:	0000                	unimp
 694:	0000                	unimp
 696:	0000                	unimp
 698:	0e42                	slli	t3,t3,0x10
 69a:	4210                	lw	a2,0(a2)
 69c:	0288                	addi	a0,sp,320
 69e:	0c42                	slli	s8,s8,0x10
 6a0:	0008                	0x8
 6a2:	0a68                	addi	a0,sp,284
/home/one/xv6-labs-2020/user/sh.c:424
 6a4:	0cc8                	addi	a0,sp,596
 6a6:	1002                	c.slli	zero,0x20
 6a8:	0e42                	slli	t3,t3,0x10
 6aa:	4200                	lw	s0,0(a2)
 6ac:	0000000b          	0xb
 6b0:	002c                	addi	a1,sp,8
 6b2:	0000                	unimp
 6b4:	04c0                	addi	s0,sp,580
 6b6:	0000                	unimp
/home/one/xv6-labs-2020/user/sh.c:427
 6b8:	0d82                	c.slli64	s11
 6ba:	0000                	unimp
 6bc:	0000                	unimp
 6be:	0000                	unimp
 6c0:	0046                	c.slli	zero,0x11
/home/one/xv6-labs-2020/user/sh.c:431
 6c2:	0000                	unimp
 6c4:	0000                	unimp
 6c6:	0000                	unimp
 6c8:	0e42                	slli	t3,t3,0x10
 6ca:	4210                	lw	a2,0(a2)
 6cc:	0288                	addi	a0,sp,320
 6ce:	0c42                	slli	s8,s8,0x10
/home/one/xv6-labs-2020/user/sh.c:432
 6d0:	0008                	0x8
 6d2:	0a74                	addi	a3,sp,284
 6d4:	0cc8                	addi	a0,sp,596
 6d6:	1002                	c.slli	zero,0x20
 6d8:	0e42                	slli	t3,t3,0x10
 6da:	4200                	lw	s0,0(a2)
/home/one/xv6-labs-2020/user/sh.c:435
 6dc:	0000000b          	0xb
/home/one/xv6-labs-2020/user/sh.c:440
 6e0:	002c                	addi	a1,sp,8
/home/one/xv6-labs-2020/user/sh.c:432
 6e2:	0000                	unimp
/home/one/xv6-labs-2020/user/sh.c:425
 6e4:	04c0                	addi	s0,sp,580
 6e6:	0000                	unimp
 6e8:	0dc8                	addi	a0,sp,724
 6ea:	0000                	unimp
 6ec:	0000                	unimp
 6ee:	0000                	unimp
 6f0:	0018                	0x18
/home/one/xv6-labs-2020/user/sh.c:447
 6f2:	0000                	unimp
 6f4:	0000                	unimp
 6f6:	0000                	unimp
 6f8:	0e42                	slli	t3,t3,0x10
 6fa:	4410                	lw	a2,8(s0)
 6fc:	0281                	addi	t0,t0,0
 6fe:	0488                	addi	a0,sp,576
 700:	0c42                	slli	s8,s8,0x10
 702:	0008                	0x8
 704:	c14a                	sw	s2,128(sp)
 706:	c842                	sw	a6,16(sp)
 708:	020c                	addi	a1,sp,256
 70a:	4210                	lw	a2,0(a2)
 70c:	000e                	c.slli	zero,0x3
/home/one/xv6-labs-2020/user/sh.c:436
 70e:	0000                	unimp
 710:	000c                	0xc
 712:	0000                	unimp
 714:	ffff                	0xffff
 716:	ffff                	0xffff
 718:	0001                	nop
 71a:	7c01                	lui	s8,0xfffe0
 71c:	0d01                	addi	s10,s10,0
/home/one/xv6-labs-2020/user/sh.c:442
 71e:	0002                	c.slli64	zero
 720:	002c                	addi	a1,sp,8
 722:	0000                	unimp
 724:	0710                	addi	a2,sp,896
 726:	0000                	unimp
 728:	0e88                	addi	a0,sp,848
 72a:	0000                	unimp
 72c:	0000                	unimp
/home/one/xv6-labs-2020/user/sh.c:432
 72e:	0000                	unimp
 730:	0022                	c.slli	zero,0x8
 732:	0000                	unimp
 734:	0000                	unimp
 736:	0000                	unimp
 738:	0e42                	slli	t3,t3,0x10
 73a:	4420                	lw	s0,72(s0)
 73c:	0281                	addi	t0,t0,0
/home/one/xv6-labs-2020/user/sh.c:433
 73e:	0488                	addi	a0,sp,576
 740:	0c42                	slli	s8,s8,0x10
 742:	0008                	0x8
 744:	c154                	sw	a3,4(a0)
 746:	c842                	sw	a6,16(sp)
 748:	020c                	addi	a1,sp,256
 74a:	4220                	lw	s0,64(a2)
 74c:	000e                	c.slli	zero,0x3
 74e:	0000                	unimp
 750:	003c                	addi	a5,sp,8
 752:	0000                	unimp
/home/one/xv6-labs-2020/user/sh.c:435
 754:	0710                	addi	a2,sp,896
 756:	0000                	unimp
/home/one/xv6-labs-2020/user/sh.c:437
 758:	0eaa                	slli	t4,t4,0xa
 75a:	0000                	unimp
 75c:	0000                	unimp
/home/one/xv6-labs-2020/user/sh.c:438
 75e:	0000                	unimp
 760:	00ac                	addi	a1,sp,72
 762:	0000                	unimp
/home/one/xv6-labs-2020/user/sh.c:439
 764:	0000                	unimp
/home/one/xv6-labs-2020/user/sh.c:440
 766:	0000                	unimp
 768:	0e42                	slli	t3,t3,0x10
 76a:	4a40                	lw	s0,20(a2)
/home/one/xv6-labs-2020/user/sh.c:441
 76c:	0281                	addi	t0,t0,0
 76e:	0488                	addi	a0,sp,576
 770:	0689                	addi	a3,a3,2
 772:	0892                	slli	a7,a7,0x4
 774:	0c420a93          	addi	s5,tp,196 # c4 <runcmd+0x1c>
 778:	0008                	0x8
 77a:	9202                	jalr	tp
/home/one/xv6-labs-2020/user/sh.c:444
 77c:	42c1                	li	t0,16
 77e:	0cc8                	addi	a0,sp,596
 780:	4002                	0x4002
 782:	c942                	sw	a6,144(sp)
/home/one/xv6-labs-2020/user/sh.c:445
 784:	d242                	sw	a6,36(sp)
 786:	d342                	sw	a6,164(sp)
/home/one/xv6-labs-2020/user/sh.c:446
 788:	0e42                	slli	t3,t3,0x10
parsepipe():
/home/one/xv6-labs-2020/user/sh.c:364
 78a:	0000                	unimp
 78c:	0000                	unimp
 78e:	0000                	unimp
 790:	005c                	addi	a5,sp,4
 792:	0000                	unimp
 794:	0710                	addi	a2,sp,896
 796:	0000                	unimp
 798:	0f56                	slli	t5,t5,0x15
 79a:	0000                	unimp
/home/one/xv6-labs-2020/user/sh.c:367
 79c:	0000                	unimp
 79e:	0000                	unimp
 7a0:	01da                	slli	gp,gp,0x16
 7a2:	0000                	unimp
 7a4:	0000                	unimp
/home/one/xv6-labs-2020/user/sh.c:368
 7a6:	0000                	unimp
 7a8:	0e42                	slli	t3,t3,0x10
 7aa:	0180                	addi	s0,sp,192
 7ac:	815a                	mv	sp,s6
 7ae:	8802                	jr	a6
 7b0:	8904                	0x8904
 7b2:	9206                	add	tp,tp,ra
 7b4:	9308                	0x9308
 7b6:	940a                	add	s0,s0,sp
 7b8:	950c                	0x950c
 7ba:	960e                	add	a2,a2,gp
/home/one/xv6-labs-2020/user/sh.c:373
 7bc:	9710                	0x9710
 7be:	9812                	add	a6,a6,tp
 7c0:	9914                	0x9914
 7c2:	9a16                	add	s4,s4,t0
 7c4:	9b18                	0x9b18
 7c6:	421a                	lw	tp,132(sp)
 7c8:	080c                	addi	a1,sp,16
 7ca:	0300                	addi	s0,sp,384
/home/one/xv6-labs-2020/user/sh.c:369
 7cc:	01a0                	addi	s0,sp,200
 7ce:	42c1                	li	t0,16
 7d0:	0cc8                	addi	a0,sp,596
 7d2:	8002                	0x8002
 7d4:	4201                	li	tp,0
 7d6:	42c9                	li	t0,18
 7d8:	42d2                	lw	t0,20(sp)
 7da:	42d442d3          	0x42d442d3
/home/one/xv6-labs-2020/user/sh.c:370
 7de:	42d5                	li	t0,21
 7e0:	42d6                	lw	t0,84(sp)
 7e2:	42d842d7          	0x42d842d7
 7e6:	42d9                	li	t0,22
 7e8:	42da                	lw	t0,148(sp)
 7ea:	000e42db          	0xe42db
 7ee:	0000                	unimp
 7f0:	002c                	addi	a1,sp,8
 7f2:	0000                	unimp
 7f4:	0710                	addi	a2,sp,896
/home/one/xv6-labs-2020/user/sh.c:372
 7f6:	0000                	unimp
parseline():
/home/one/xv6-labs-2020/user/sh.c:347
 7f8:	1130                	addi	a2,sp,168
 7fa:	0000                	unimp
 7fc:	0000                	unimp
 7fe:	0000                	unimp
 800:	002e                	c.slli	zero,0xb
 802:	0000                	unimp
 804:	0000                	unimp
 806:	0000                	unimp
 808:	0e42                	slli	t3,t3,0x10
 80a:	4450                	lw	a2,12(s0)
/home/one/xv6-labs-2020/user/sh.c:350
 80c:	0e81                	addi	t4,t4,0
 80e:	1088                	addi	a0,sp,96
 810:	0c42                	slli	s8,s8,0x10
 812:	3008                	fld	fa0,32(s0)
 814:	c160                	sw	s0,68(a0)
/home/one/xv6-labs-2020/user/sh.c:351
 816:	c842                	sw	a6,16(sp)
 818:	020c                	addi	a1,sp,256
 81a:	4250                	lw	a2,4(a2)
 81c:	000e                	c.slli	zero,0x3
 81e:	0000                	unimp
 820:	002c                	addi	a1,sp,8
 822:	0000                	unimp
 824:	0710                	addi	a2,sp,896
 826:	0000                	unimp
 828:	115e                	slli	sp,sp,0x37
 82a:	0000                	unimp
 82c:	0000                	unimp
/home/one/xv6-labs-2020/user/sh.c:352
 82e:	0000                	unimp
 830:	0036                	c.slli	zero,0xd
 832:	0000                	unimp
 834:	0000                	unimp
 836:	0000                	unimp
 838:	0e42                	slli	t3,t3,0x10
 83a:	4460                	lw	s0,76(s0)
 83c:	1281                	addi	t0,t0,-32
/home/one/xv6-labs-2020/user/sh.c:353
 83e:	1488                	addi	a0,sp,608
 840:	0c42                	slli	s8,s8,0x10
 842:	4008                	lw	a0,0(s0)
 844:	c168                	sw	a0,68(a0)
 846:	c842                	sw	a6,16(sp)
 848:	020c                	addi	a1,sp,256
 84a:	4260                	lw	s0,68(a2)
/home/one/xv6-labs-2020/user/sh.c:355
 84c:	000e                	c.slli	zero,0x3
 84e:	0000                	unimp
 850:	000c                	0xc
 852:	0000                	unimp
 854:	ffff                	0xffff
 856:	ffff                	0xffff
 858:	0001                	nop
 85a:	7c01                	lui	s8,0xfffe0
 85c:	0d01                	addi	s10,s10,0
 85e:	0002                	c.slli64	zero
 860:	002c                	addi	a1,sp,8
/home/one/xv6-labs-2020/user/sh.c:360
 862:	0000                	unimp
 864:	0850                	addi	a2,sp,20
 866:	0000                	unimp
 868:	1194                	addi	a3,sp,224
 86a:	0000                	unimp
 86c:	0000                	unimp
 86e:	0000                	unimp
 870:	008a                	slli	ra,ra,0x2
 872:	0000                	unimp
/home/one/xv6-labs-2020/user/sh.c:356
 874:	0000                	unimp
 876:	0000                	unimp
 878:	0e42                	slli	t3,t3,0x10
 87a:	4210                	lw	a2,0(a2)
 87c:	0288                	addi	a0,sp,320
 87e:	0c42                	slli	s8,s8,0x10
 880:	0008                	0x8
 882:	8002                	0x8002
/home/one/xv6-labs-2020/user/sh.c:357
 884:	0cc8                	addi	a0,sp,596
 886:	1002                	c.slli	zero,0x20
 888:	0e42                	slli	t3,t3,0x10
 88a:	0000                	unimp
 88c:	0000                	unimp
 88e:	0000                	unimp
 890:	004c                	addi	a1,sp,4
 892:	0000                	unimp
 894:	0850                	addi	a2,sp,20
 896:	0000                	unimp
 898:	121e                	slli	tp,tp,0x27
 89a:	0000                	unimp
 89c:	0000                	unimp
/home/one/xv6-labs-2020/user/sh.c:359
 89e:	0000                	unimp
parseblock():
/home/one/xv6-labs-2020/user/sh.c:402
 8a0:	00e6                	slli	ra,ra,0x19
 8a2:	0000                	unimp
 8a4:	0000                	unimp
 8a6:	0000                	unimp
 8a8:	0e42                	slli	t3,t3,0x10
 8aa:	5040                	lw	s0,36(s0)
 8ac:	0281                	addi	t0,t0,0
 8ae:	0488                	addi	a0,sp,576
 8b0:	0689                	addi	a3,a3,2
/home/one/xv6-labs-2020/user/sh.c:405
 8b2:	0892                	slli	a7,a7,0x4
 8b4:	0c940a93          	addi	s5,s0,201
 8b8:	0e95                	addi	t4,t4,5
 8ba:	1096                	slli	ra,ra,0x25
 8bc:	0c42                	slli	s8,s8,0x10
 8be:	0008                	0x8
 8c0:	8602                	jr	a2
 8c2:	c10a                	sw	sp,128(sp)
/home/one/xv6-labs-2020/user/sh.c:407
 8c4:	c842                	sw	a6,16(sp)
 8c6:	020c                	addi	a1,sp,256
 8c8:	4240                	lw	s0,4(a2)
 8ca:	42c9                	li	t0,18
 8cc:	42d2                	lw	t0,20(sp)
 8ce:	42d442d3          	0x42d442d3
 8d2:	42d5                	li	t0,21
/home/one/xv6-labs-2020/user/sh.c:408
 8d4:	42d6                	lw	t0,84(sp)
 8d6:	000e                	c.slli	zero,0x3
 8d8:	0b42                	slli	s6,s6,0x10
 8da:	0000                	unimp
 8dc:	0000                	unimp
	...

Disassembly of section .debug_str:

0000000000000000 <.debug_str>:
getcmd():
/home/one/xv6-labs-2020/user/sh.c:136
   0:	636c                	ld	a1,192(a4)
   2:	646d                	lui	s0,0x1b
   4:	7000                	ld	s0,32(s0)
   6:	7261                	lui	tp,0xffff8
   8:	6d636573          	csrrsi	a0,0x6d6,6
   c:	0064                	addi	s1,sp,12
   e:	7572                	ld	a0,312(sp)
/home/one/xv6-labs-2020/user/sh.c:137
  10:	636e                	ld	t1,216(sp)
  12:	646d                	lui	s0,0x1b
  14:	6200                	ld	s0,0(a2)
  16:	6361                	lui	t1,0x18
  18:	646d636b          	0x646d636b
  1c:	7000                	ld	s0,32(s0)
  1e:	7261                	lui	tp,0xffff8
  20:	65726573          	csrrsi	a0,0x657,4
/home/one/xv6-labs-2020/user/sh.c:138
  24:	6964                	ld	s1,208(a0)
  26:	7372                	ld	t1,312(sp)
  28:	7700                	ld	s0,40(a4)
  2a:	6968                	ld	a0,208(a0)
  2c:	6574                	ld	a3,200(a0)
  2e:	63617073          	csrci	0x636,2
/home/one/xv6-labs-2020/user/sh.c:139
  32:	0065                	c.nop	25
  34:	69646863          	bltu	s0,s6,6c4 <parseexec+0x3e>
  38:	0072                	c.slli	zero,0x1c
  3a:	6170                	ld	a2,192(a0)
/home/one/xv6-labs-2020/user/sh.c:140
  3c:	696e                	ld	s2,216(sp)
  3e:	656c0063          	beq	s8,s6,67e <parseredirs+0xf4>
  42:	7466                	ld	s0,120(sp)
/home/one/xv6-labs-2020/user/sh.c:143
  44:	6c00                	ld	s0,24(s0)
  46:	7369                	lui	t1,0xffffa
  48:	6374                	ld	a3,192(a4)
  4a:	646d                	lui	s0,0x1b
  4c:	7300                	ld	s0,32(a4)
  4e:	7274                	ld	a3,224(a2)
  50:	00726863          	bltu	tp,t2,60 <panic+0xc>
panic():
/home/one/xv6-labs-2020/user/sh.c:177
  54:	7865                	lui	a6,0xffff9
  56:	6365                	lui	t1,0x19
  58:	00646d63          	bltu	s0,t1,72 <panic+0x1e>
/home/one/xv6-labs-2020/user/sh.c:178
  5c:	736f6c63          	bltu	t5,s6,794 <parsepipe+0xa>
  60:	0065                	c.nop	25
  62:	6c727473          	csrrci	s0,0x6c7,4
  66:	6e65                	lui	t3,0x19
  68:	7500                	ld	s0,40(a0)
  6a:	2f726573          	csrrsi	a0,0x2f7,4
  6e:	632e6873          	csrrsi	a6,0x632,28
/home/one/xv6-labs-2020/user/sh.c:179
  72:	7300                	ld	s0,32(a4)
  74:	6d79                	lui	s10,0x1e
  76:	6f62                	ld	t5,24(sp)
  78:	736c                	ld	a1,224(a4)
fork1():
/home/one/xv6-labs-2020/user/sh.c:184
  7a:	7500                	ld	s0,40(a0)
  7c:	736e                	ld	t1,248(sp)
  7e:	6769                	lui	a4,0x1a
  80:	656e                	ld	a0,216(sp)
/home/one/xv6-labs-2020/user/sh.c:187
  82:	2064                	fld	fs1,192(s0)
  84:	72616863          	bltu	sp,t1,7b4 <parsepipe+0x2a>
  88:	6e00                	ld	s0,24(a2)
/home/one/xv6-labs-2020/user/sh.c:188
  8a:	7562                	ld	a0,56(sp)
  8c:	0066                	c.slli	zero,0x19
  8e:	6f66                	ld	t5,88(sp)
/home/one/xv6-labs-2020/user/sh.c:191
  90:	6b72                	ld	s6,280(sp)
  92:	6c00                	ld	s0,24(s0)
  94:	20676e6f          	jal	t3,7629a <__global_pointer$+0x74632>
/home/one/xv6-labs-2020/user/sh.c:189
  98:	6e75                	lui	t3,0x1d
  9a:	6e676973          	csrrsi	s2,0x6e6,14
  9e:	6465                	lui	s0,0x19
  a0:	6920                	ld	s0,80(a0)
  a2:	746e                	ld	s0,248(sp)
  a4:	6f00                	ld	s0,24(a4)
  a6:	6570                	ld	a2,200(a0)
runcmd():
/home/one/xv6-labs-2020/user/sh.c:59
  a8:	006e                	c.slli	zero,0x1b
  aa:	726f6873          	csrrsi	a6,0x726,30
  ae:	2074                	fld	fa3,192(s0)
  b0:	6e75                	lui	t3,0x1d
/home/one/xv6-labs-2020/user/sh.c:67
  b2:	6e676973          	csrrsi	s2,0x6e6,14
/home/one/xv6-labs-2020/user/sh.c:70
  b6:	6465                	lui	s0,0x19
  b8:	6920                	ld	s0,80(a0)
  ba:	746e                	ld	s0,248(sp)
  bc:	7000                	ld	s0,32(s0)
  be:	6565                	lui	a0,0x19
  c0:	6170006b          	0x6170006b
  c4:	7372                	ld	t1,312(sp)
  c6:	7065                	c.lui	zero,0xffff9
  c8:	7069                	c.lui	zero,0xffffa
  ca:	0065                	c.nop	25
  cc:	6170                	ld	a2,192(a0)
  ce:	7372                	ld	t1,312(sp)
  d0:	6265                	lui	tp,0x19
  d2:	6f6c                	ld	a1,216(a4)
/home/one/xv6-labs-2020/user/sh.c:68
  d4:	73006b63          	bltu	zero,a6,80a <parseline+0x12>
  d8:	6275                	lui	tp,0x1d
  da:	00646d63          	bltu	s0,t1,f4 <runcmd+0x4c>
/home/one/xv6-labs-2020/user/sh.c:72
  de:	73746567          	0x73746567
  e2:	6d00                	ld	s0,24(a0)
  e4:	6961                	lui	s2,0x18
  e6:	006e                	c.slli	zero,0x1b
  e8:	656d                	lui	a0,0x1b
  ea:	736d                	lui	t1,0xffffb
  ec:	7465                	lui	s0,0xffff9
/home/one/xv6-labs-2020/user/sh.c:76
  ee:	7700                	ld	s0,40(a4)
  f0:	6961                	lui	s2,0x18
/home/one/xv6-labs-2020/user/sh.c:79
  f2:	0074                	addi	a3,sp,12
  f4:	6972                	ld	s2,280(sp)
  f6:	00746867          	0x746867
  fa:	6970                	ld	a2,208(a0)
  fc:	6570                	ld	a2,200(a0)
/home/one/xv6-labs-2020/user/sh.c:80
  fe:	00646d63          	bltu	s0,t1,118 <runcmd+0x70>
 102:	63746567          	0x63746567
 106:	646d                	lui	s0,0x1b
 108:	6d00                	ld	s0,24(a0)
 10a:	0065646f          	jal	s0,56110 <__global_pointer$+0x544a8>
 10e:	74746567          	0x74746567
/home/one/xv6-labs-2020/user/sh.c:131
 112:	6e656b6f          	jal	s6,567f8 <__global_pointer$+0x54b90>
 116:	7400                	ld	s0,40(s0)
 118:	00736b6f          	jal	s6,3691e <__global_pointer$+0x34cb6>
/home/one/xv6-labs-2020/user/sh.c:77
 11c:	7261                	lui	tp,0xffff8
 11e:	66006367          	0x66006367
 122:	316b726f          	jal	tp,b7438 <__global_pointer$+0xb57d0>
/home/one/xv6-labs-2020/user/sh.c:85
 126:	6600                	ld	s0,8(a2)
 128:	7270                	ld	a2,224(a2)
 12a:	6e69                	lui	t3,0x1a
 12c:	6674                	ld	a3,200(a2)
 12e:	2f00                	fld	fs0,24(a4)
/home/one/xv6-labs-2020/user/sh.c:86
 130:	6f68                	ld	a0,216(a4)
 132:	656d                	lui	a0,0x1b
 134:	656e6f2f          	0x656e6f2f
 138:	3676782f          	0x3676782f
 13c:	6c2d                	lui	s8,0xb
 13e:	6261                	lui	tp,0x18
/home/one/xv6-labs-2020/user/sh.c:90
 140:	30322d73          	csrrs	s10,mideleg,tp
 144:	3032                	fld	ft0,296(sp)
 146:	7400                	ld	s0,40(s0)
 148:	7079                	c.lui	zero,0xffffe
/home/one/xv6-labs-2020/user/sh.c:87
 14a:	0065                	c.nop	25
 14c:	7865                	lui	a6,0xffff9
 14e:	7469                	lui	s0,0xffffa
 150:	6e00                	ld	s0,24(a2)
 152:	6c75                	lui	s8,0x1d
 154:	6574                	ld	a3,200(a0)
 156:	6d72                	ld	s10,280(sp)
 158:	6e69                	lui	t3,0x1a
 15a:	7461                	lui	s0,0xffff8
 15c:	0065                	c.nop	25
/home/one/xv6-labs-2020/user/sh.c:88
 15e:	20554e47          	fmsub.s	ft8,fa0,ft5,ft4,rmm
 162:	20373143          	fmadd.s	ft2,fa4,ft3,ft4,rup
 166:	2e38                	fld	fa4,88(a2)
/home/one/xv6-labs-2020/user/sh.c:95
 168:	20302e33          	0x20302e33
 16c:	6d2d                	lui	s10,0xb
 16e:	646f6d63          	bltu	t5,t1,7c8 <parsepipe+0x3e>
/home/one/xv6-labs-2020/user/sh.c:97
 172:	6c65                	lui	s8,0x19
 174:	6d3d                	lui	s10,0xf
 176:	6465                	lui	s0,0x19
 178:	6e61                	lui	t3,0x18
 17a:	2079                	0x2079
/home/one/xv6-labs-2020/user/sh.c:98
 17c:	6d2d                	lui	s10,0xb
 17e:	6f6e                	ld	t5,216(sp)
 180:	722d                	lui	tp,0xfffeb
 182:	6c65                	lui	s8,0x19
 184:	7861                	lui	a6,0xffff8
/home/one/xv6-labs-2020/user/sh.c:96
 186:	2d20                	fld	fs0,88(a0)
 188:	616d                	addi	sp,sp,240
 18a:	6372                	ld	t1,280(sp)
 18c:	3d68                	fld	fa0,248(a0)
 18e:	7672                	ld	a2,312(sp)
/home/one/xv6-labs-2020/user/sh.c:103
 190:	3436                	fld	fs0,360(sp)
 192:	6d69                	lui	s10,0x1a
 194:	6661                	lui	a2,0x18
 196:	6364                	ld	s1,192(a4)
 198:	2d20                	fld	fs0,88(a0)
 19a:	616d                	addi	sp,sp,240
 19c:	6962                	ld	s2,24(sp)
 19e:	6c3d                	lui	s8,0xf
/home/one/xv6-labs-2020/user/sh.c:105
 1a0:	3670                	fld	fa2,232(a2)
 1a2:	6434                	ld	a3,72(s0)
 1a4:	2d20                	fld	fs0,88(a0)
 1a6:	62646767          	0x62646767
/home/one/xv6-labs-2020/user/sh.c:112
 1aa:	2d20                	fld	fs0,88(a0)
 1ac:	662d204f          	fnmadd.q	ft0,fs10,ft2,fa2,rdn
 1b0:	6f6e                	ld	t5,216(sp)
 1b2:	6f2d                	lui	t5,0xb
/home/one/xv6-labs-2020/user/sh.c:119
 1b4:	696d                	lui	s2,0x1b
 1b6:	2d74                	fld	fa3,216(a0)
 1b8:	7266                	ld	tp,120(sp)
 1ba:	6d61                	lui	s10,0x18
 1bc:	2d65                	addiw	s10,s10,25
 1be:	6f70                	ld	a2,216(a4)
/home/one/xv6-labs-2020/user/sh.c:120
 1c0:	6e69                	lui	t3,0x1a
 1c2:	6574                	ld	a3,200(a0)
 1c4:	2072                	fld	ft0,280(sp)
 1c6:	662d                	lui	a2,0xb
 1c8:	7266                	ld	tp,120(sp)
 1ca:	6565                	lui	a0,0x19
/home/one/xv6-labs-2020/user/sh.c:121
 1cc:	6e617473          	csrrci	s0,0x6e6,2
 1d0:	6964                	ld	s1,208(a0)
 1d2:	676e                	ld	a4,216(sp)
 1d4:	2d20                	fld	fs0,88(a0)
/home/one/xv6-labs-2020/user/sh.c:122
 1d6:	6e66                	ld	t3,88(sp)
 1d8:	6f632d6f          	jal	s10,328ce <__global_pointer$+0x30c66>
 1dc:	6d6d                	lui	s10,0x1b
 1de:	2d206e6f          	jal	t3,64b0 <__global_pointer$+0x4848>
/home/one/xv6-labs-2020/user/sh.c:104
 1e2:	6e66                	ld	t3,88(sp)
 1e4:	74732d6f          	jal	s10,3312a <__global_pointer$+0x314c2>
 1e8:	6361                	lui	t1,0x18
 1ea:	72702d6b          	0x72702d6b
 1ee:	6365746f          	jal	s0,57824 <__global_pointer$+0x55bbc>
/home/one/xv6-labs-2020/user/sh.c:106
 1f2:	6f74                	ld	a3,216(a4)
 1f4:	2072                	fld	ft0,280(sp)
 1f6:	662d                	lui	a2,0xb
 1f8:	6f6e                	ld	t5,216(sp)
 1fa:	702d                	c.lui	zero,0xfffeb
/home/one/xv6-labs-2020/user/sh.c:107
 1fc:	6569                	lui	a0,0x1a
 1fe:	7000                	ld	s0,32(s0)
 200:	00646d63          	bltu	s0,t1,21a <runcmd+0x172>
 204:	6665                	lui	a2,0x19
 206:	6c69                	lui	s8,0x1a
/home/one/xv6-labs-2020/user/sh.c:108
 208:	0065                	c.nop	25
 20a:	6165                	addi	sp,sp,112
 20c:	6772                	ld	a4,280(sp)
 20e:	0076                	c.slli	zero,0x1d
 210:	6572                	ld	a0,280(sp)
 212:	6964                	ld	s1,208(a0)
/home/one/xv6-labs-2020/user/sh.c:109
 214:	6372                	ld	t1,280(sp)
 216:	646d                	lui	s0,0x1b
 218:	7000                	ld	s0,32(s0)
 21a:	7261                	lui	tp,0xffff8
 21c:	78656573          	csrrsi	a0,0x786,10
/home/one/xv6-labs-2020/user/sh.c:110
 220:	6365                	lui	t1,0x19
 222:	6d00                	ld	s0,24(a0)
 224:	6c61                	lui	s8,0x18
 226:	6f6c                	ld	a1,216(a4)
 228:	61700063          	beq	zero,s7,828 <parseline+0x30>
/home/one/xv6-labs-2020/user/sh.c:113
 22c:	7372                	ld	t1,312(sp)
 22e:	6c65                	lui	s8,0x19
 230:	6e69                	lui	t3,0x1a
/home/one/xv6-labs-2020/user/sh.c:114
 232:	0065                	c.nop	25
 234:	656d                	lui	a0,0x1b
 236:	6d6d                	lui	s10,0x1b
 238:	0065766f          	jal	a2,5723e <__global_pointer$+0x555d6>
 23c:	656d                	lui	a0,0x1b
/home/one/xv6-labs-2020/user/sh.c:115
 23e:	636d                	lui	t1,0x1b
 240:	706d                	c.lui	zero,0xffffb
 242:	7500                	ld	s0,40(a0)
 244:	6e69                	lui	t3,0x1a
 246:	3674                	fld	fa3,232(a2)
 248:	0034                	addi	a3,sp,8
/home/one/xv6-labs-2020/user/sh.c:116
 24a:	7376                	ld	t1,376(sp)
 24c:	6372                	ld	t1,280(sp)
 24e:	7300                	ld	s0,32(a4)
 250:	7274                	ld	a3,224(a2)
 252:	00797063          	bgeu	s2,t2,252 <runcmd+0x1aa>
/home/one/xv6-labs-2020/user/sh.c:117
 256:	6375                	lui	t1,0x1d
 258:	6168                	ld	a0,192(a0)
 25a:	0072                	c.slli	zero,0x1c
 25c:	63727473          	csrrci	s0,0x637,4
/home/one/xv6-labs-2020/user/sh.c:127
 260:	706d                	c.lui	zero,0xffffb
 262:	6600                	ld	s0,8(a2)
 264:	74617473          	csrrci	s0,0x746,2
 268:	7200                	ld	s0,32(a2)
 26a:	6165                	addi	sp,sp,112
/home/one/xv6-labs-2020/user/sh.c:128
 26c:	0064                	addi	s1,sp,12
 26e:	6975                	lui	s2,0x1d
 270:	746e                	ld	s0,248(sp)
 272:	7600                	ld	s0,40(a2)
 274:	7364                	ld	s1,224(a4)
execcmd():
/home/one/xv6-labs-2020/user/sh.c:198
 276:	0074                	addi	a3,sp,12
 278:	7461                	lui	s0,0xffff8
 27a:	7500696f          	jal	s2,69ca <__global_pointer$+0x4d62>
 27e:	2f726573          	csrrsi	a0,0x2f7,4
/home/one/xv6-labs-2020/user/sh.c:201
 282:	6c75                	lui	s8,0x1d
 284:	6269                	lui	tp,0x1a
 286:	632e                	ld	t1,200(sp)
 288:	6300                	ld	s0,0(a4)
 28a:	7364                	ld	s1,224(a4)
 28c:	0074                	addi	a3,sp,12
/home/one/xv6-labs-2020/user/sh.c:202
 28e:	656d                	lui	a0,0x1b
 290:	636d                	lui	t1,0x1b
 292:	7970                	ld	a2,240(a0)
 294:	7300                	ld	s0,32(a4)
 296:	6f68                	ld	a0,216(a4)
 298:	7472                	ld	s0,312(sp)
 29a:	6920                	ld	s0,80(a0)
/home/one/xv6-labs-2020/user/sh.c:203
 29c:	746e                	ld	s0,248(sp)
 29e:	6e00                	ld	s0,24(a2)
/home/one/xv6-labs-2020/user/sh.c:205
 2a0:	696c                	ld	a1,208(a0)
 2a2:	6b6e                	ld	s6,216(sp)
 2a4:	7300                	ld	s0,32(a4)
 2a6:	7a69                	lui	s4,0xffffa
 2a8:	0065                	c.nop	25
 2aa:	7375                	lui	t1,0xffffd
redircmd():
/home/one/xv6-labs-2020/user/sh.c:209
 2ac:	7265                	lui	tp,0xffff9
 2ae:	7973752f          	0x7973752f
 2b2:	00532e73          	csrrs	t3,utvec,t1
 2b6:	20554e47          	fmsub.s	ft8,fa0,ft5,ft4,rmm
 2ba:	5341                	li	t1,-16
 2bc:	3220                	fld	fs0,96(a2)
 2be:	332e                	fld	ft6,232(sp)
 2c0:	0032                	c.slli	zero,0xc
 2c2:	5f5f 7562 6c69      	0x6c6975625f5f
 2c8:	6974                	ld	a3,208(a0)
/home/one/xv6-labs-2020/user/sh.c:212
 2ca:	5f6e                	lw	t5,248(sp)
 2cc:	6176                	ld	sp,344(sp)
 2ce:	6c5f 7369 0074      	0x7473696c5f
 2d4:	74617473          	csrrci	s0,0x746,2
/home/one/xv6-labs-2020/user/sh.c:213
 2d8:	0065                	c.nop	25
 2da:	7375                	lui	t1,0xffffd
 2dc:	7265                	lui	tp,0xffff9
 2de:	6972702f          	0x6972702f
 2e2:	746e                	ld	s0,248(sp)
 2e4:	2e66                	fld	ft8,88(sp)
/home/one/xv6-labs-2020/user/sh.c:214
 2e6:	75700063          	beq	zero,s7,a26 <parsecmd+0x4a>
/home/one/xv6-labs-2020/user/sh.c:215
 2ea:	6374                	ld	a3,192(a4)
 2ec:	7600                	ld	s0,40(a2)
/home/one/xv6-labs-2020/user/sh.c:216
 2ee:	7270                	ld	a2,224(a2)
 2f0:	6e69                	lui	t3,0x1a
/home/one/xv6-labs-2020/user/sh.c:217
 2f2:	6674                	ld	a3,200(a2)
 2f4:	5f00                	lw	s0,56(a4)
/home/one/xv6-labs-2020/user/sh.c:218
 2f6:	675f 756e 5f63      	0x5f63756e675f
/home/one/xv6-labs-2020/user/sh.c:219
 2fc:	6176                	ld	sp,344(sp)
/home/one/xv6-labs-2020/user/sh.c:221
 2fe:	6c5f 7369 0074      	0x7473696c5f
 304:	7270                	ld	a2,224(a2)
 306:	6e69                	lui	t3,0x1a
 308:	6974                	ld	a3,208(a0)
 30a:	746e                	ld	s0,248(sp)
 30c:	7700                	ld	s0,40(a4)
 30e:	6972                	ld	s2,280(sp)
 310:	6574                	ld	a3,200(a0)
 312:	6200                	ld	s0,0(a2)
pipecmd():
/home/one/xv6-labs-2020/user/sh.c:225
 314:	7361                	lui	t1,0xffff8
 316:	0065                	c.nop	25
 318:	6964                	ld	s1,208(a0)
 31a:	73746967          	0x73746967
 31e:	7000                	ld	s0,32(s0)
 320:	6972                	ld	s2,280(sp)
 322:	746e                	ld	s0,248(sp)
 324:	7470                	ld	a2,232(s0)
/home/one/xv6-labs-2020/user/sh.c:228
 326:	0072                	c.slli	zero,0x1c
 328:	626e                	ld	tp,216(sp)
 32a:	7479                	lui	s0,0xffffe
 32c:	7365                	lui	t1,0xffff9
 32e:	7500                	ld	s0,40(a0)
 330:	2f726573          	csrrsi	a0,0x2f7,4
/home/one/xv6-labs-2020/user/sh.c:229
 334:	6d75                	lui	s10,0x1d
 336:	6c61                	lui	s8,0x18
 338:	6f6c                	ld	a1,216(a4)
 33a:	00632e63          	0x632e63
/home/one/xv6-labs-2020/user/sh.c:230
 33e:	6548                	ld	a0,136(a0)
 340:	6461                	lui	s0,0x18
/home/one/xv6-labs-2020/user/sh.c:231
 342:	7265                	lui	tp,0xffff9
 344:	7300                	ld	s0,32(a4)
/home/one/xv6-labs-2020/user/sh.c:232
 346:	7262                	ld	tp,56(sp)
 348:	756e006b          	0x756e006b
/home/one/xv6-labs-2020/user/sh.c:234
 34c:	696e                	ld	s2,216(sp)
 34e:	7374                	ld	a3,224(a4)
 350:	6600                	ld	s0,8(a2)
 352:	6572                	ld	a0,280(sp)
 354:	7065                	c.lui	zero,0xffff9
 356:	6800                	ld	s0,16(s0)
 358:	6165                	addi	sp,sp,112
listcmd():
/home/one/xv6-labs-2020/user/sh.c:238
 35a:	6564                	ld	s1,200(a0)
 35c:	0072                	c.slli	zero,0x1c
 35e:	6f6c                	ld	a1,216(a4)
 360:	676e                	ld	a4,216(sp)
 362:	6920                	ld	s0,80(a0)
 364:	746e                	ld	s0,248(sp)
 366:	6d00                	ld	s0,24(a0)
 368:	6365726f          	jal	tp,5799e <__global_pointer$+0x55d36>
/home/one/xv6-labs-2020/user/sh.c:241
 36c:	0065726f          	jal	tp,57372 <__global_pointer$+0x5570a>
 370:	7270                	ld	a2,224(a2)
 372:	7665                	lui	a2,0xffff9
 374:	0070                	addi	a2,sp,12
 376:	6c41                	lui	s8,0x10
/home/one/xv6-labs-2020/user/sh.c:242
 378:	6769                	lui	a4,0x1a
 37a:	006e                	c.slli	zero,0x1b
 37c:	7266                	ld	tp,120(sp)
 37e:	6565                	lui	a0,0x19
	...

Disassembly of section .debug_loc:

0000000000000000 <.debug_loc>:
getcmd():
/home/one/xv6-labs-2020/user/sh.c:136
       0:	0944                	addi	s1,sp,148
       2:	0000                	unimp
       4:	0000                	unimp
       6:	0000                	unimp
       8:	0988                	addi	a0,sp,208
       a:	0000                	unimp
       c:	0000                	unimp
       e:	0000                	unimp
/home/one/xv6-labs-2020/user/sh.c:137
      10:	0001                	nop
      12:	885a                	mv	a6,s6
      14:	0009                	c.nop	2
      16:	0000                	unimp
      18:	0000                	unimp
      1a:	a000                	fsd	fs0,0(s0)
      1c:	0009                	c.nop	2
      1e:	0000                	unimp
      20:	0000                	unimp
/home/one/xv6-labs-2020/user/sh.c:138
      22:	0100                	addi	s0,sp,128
      24:	5900                	lw	s0,48(a0)
      26:	09a0                	addi	s0,sp,216
      28:	0000                	unimp
      2a:	0000                	unimp
      2c:	0000                	unimp
      2e:	09a4                	addi	s1,sp,216
/home/one/xv6-labs-2020/user/sh.c:139
      30:	0000                	unimp
      32:	0000                	unimp
      34:	0000                	unimp
      36:	0001                	nop
      38:	a45a                	fsd	fs6,8(sp)
      3a:	0009                	c.nop	2
/home/one/xv6-labs-2020/user/sh.c:140
      3c:	0000                	unimp
      3e:	0000                	unimp
      40:	dc00                	sw	s0,56(s0)
      42:	0009                	c.nop	2
/home/one/xv6-labs-2020/user/sh.c:143
      44:	0000                	unimp
      46:	0000                	unimp
      48:	0100                	addi	s0,sp,128
      4a:	5900                	lw	s0,48(a0)
	...
panic():
/home/one/xv6-labs-2020/user/sh.c:178
      5c:	0970                	addi	a2,sp,156
      5e:	0000                	unimp
      60:	0000                	unimp
      62:	0000                	unimp
      64:	0978                	addi	a4,sp,156
      66:	0000                	unimp
      68:	0000                	unimp
      6a:	0000                	unimp
      6c:	0002                	c.slli64	zero
      6e:	9f30                	0x9f30
	...
fork1():
/home/one/xv6-labs-2020/user/sh.c:184
      80:	09ba                	slli	s3,s3,0xe
/home/one/xv6-labs-2020/user/sh.c:187
      82:	0000                	unimp
      84:	0000                	unimp
      86:	0000                	unimp
      88:	09d0                	addi	a2,sp,212
/home/one/xv6-labs-2020/user/sh.c:188
      8a:	0000                	unimp
      8c:	0000                	unimp
      8e:	0000                	unimp
/home/one/xv6-labs-2020/user/sh.c:191
      90:	0001                	nop
      92:	0059                	c.nop	22
	...
/home/one/xv6-labs-2020/user/sh.c:189
      a0:	0000                	unimp
      a2:	a400                	fsd	fs0,8(s0)
      a4:	0009                	c.nop	2
      a6:	0000                	unimp
runcmd():
/home/one/xv6-labs-2020/user/sh.c:59
      a8:	0000                	unimp
      aa:	ba00                	fsd	fs0,48(a2)
      ac:	0009                	c.nop	2
      ae:	0000                	unimp
      b0:	0000                	unimp
/home/one/xv6-labs-2020/user/sh.c:67
      b2:	0100                	addi	s0,sp,128
      b4:	5900                	lw	s0,48(a0)
	...
/home/one/xv6-labs-2020/user/sh.c:70
      c6:	0988                	addi	a0,sp,208
      c8:	0000                	unimp
      ca:	0000                	unimp
      cc:	0000                	unimp
      ce:	0998                	addi	a4,sp,208
      d0:	0000                	unimp
      d2:	0000                	unimp
/home/one/xv6-labs-2020/user/sh.c:68
      d4:	0000                	unimp
      d6:	0001                	nop
      d8:	0059                	c.nop	22
	...
/home/one/xv6-labs-2020/user/sh.c:72
      e6:	0000                	unimp
      e8:	8600                	0x8600
      ea:	0006                	c.slli	zero,0x1
      ec:	0000                	unimp
/home/one/xv6-labs-2020/user/sh.c:76
      ee:	0000                	unimp
      f0:	b300                	fsd	fs0,32(a4)
/home/one/xv6-labs-2020/user/sh.c:79
      f2:	0006                	c.slli	zero,0x1
      f4:	0000                	unimp
      f6:	0000                	unimp
      f8:	0100                	addi	s0,sp,128
      fa:	5a00                	lw	s0,48(a2)
      fc:	000006b3          	add	a3,zero,zero
/home/one/xv6-labs-2020/user/sh.c:80
     100:	0000                	unimp
     102:	0000                	unimp
     104:	06fe                	slli	a3,a3,0x1f
     106:	0000                	unimp
     108:	0000                	unimp
     10a:	0000                	unimp
     10c:	0001                	nop
     10e:	0006fe63          	bgeu	a3,zero,12a <runcmd+0x82>
/home/one/xv6-labs-2020/user/sh.c:131
     112:	0000                	unimp
     114:	0000                	unimp
     116:	0e00                	addi	s0,sp,784
     118:	00000007          	0x7
/home/one/xv6-labs-2020/user/sh.c:77
     11c:	0000                	unimp
     11e:	0400                	addi	s0,sp,512
     120:	f300                	sd	s0,32(a4)
     122:	5a01                	li	s4,-32
     124:	0e9f 0007 0000      	0x70e9f
/home/one/xv6-labs-2020/user/sh.c:85
     12a:	0000                	unimp
     12c:	8a00                	0x8a00
     12e:	00000007          	0x7
/home/one/xv6-labs-2020/user/sh.c:86
     132:	0000                	unimp
     134:	0100                	addi	s0,sp,128
     136:	6300                	ld	s0,0(a4)
	...
/home/one/xv6-labs-2020/user/sh.c:90
     148:	0686                	slli	a3,a3,0x1
/home/one/xv6-labs-2020/user/sh.c:87
     14a:	0000                	unimp
     14c:	0000                	unimp
     14e:	0000                	unimp
     150:	000006b3          	add	a3,zero,zero
     154:	0000                	unimp
     156:	0000                	unimp
     158:	0001                	nop
     15a:	0006b35b          	0x6b35b
/home/one/xv6-labs-2020/user/sh.c:88
     15e:	0000                	unimp
     160:	0000                	unimp
     162:	0000                	unimp
     164:	00000007          	0x7
/home/one/xv6-labs-2020/user/sh.c:95
     168:	0000                	unimp
     16a:	0100                	addi	s0,sp,128
     16c:	6400                	ld	s0,8(s0)
     16e:	0700                	addi	s0,sp,896
     170:	0000                	unimp
/home/one/xv6-labs-2020/user/sh.c:97
     172:	0000                	unimp
     174:	0000                	unimp
     176:	070e                	slli	a4,a4,0x3
     178:	0000                	unimp
     17a:	0000                	unimp
/home/one/xv6-labs-2020/user/sh.c:98
     17c:	0000                	unimp
     17e:	0004                	0x4
     180:	9f5b01f3          	0x9f5b01f3
     184:	070e                	slli	a4,a4,0x3
/home/one/xv6-labs-2020/user/sh.c:96
     186:	0000                	unimp
     188:	0000                	unimp
     18a:	0000                	unimp
     18c:	078a                	slli	a5,a5,0x2
     18e:	0000                	unimp
/home/one/xv6-labs-2020/user/sh.c:103
     190:	0000                	unimp
     192:	0000                	unimp
     194:	0001                	nop
     196:	0064                	addi	s1,sp,12
	...
/home/one/xv6-labs-2020/user/sh.c:105
     1a4:	0000                	unimp
     1a6:	0e00                	addi	s0,sp,784
     1a8:	00000007          	0x7
/home/one/xv6-labs-2020/user/sh.c:112
     1ac:	0000                	unimp
     1ae:	1600                	addi	s0,sp,800
     1b0:	00000007          	0x7
/home/one/xv6-labs-2020/user/sh.c:119
     1b4:	0000                	unimp
     1b6:	0100                	addi	s0,sp,128
     1b8:	5a00                	lw	s0,48(a2)
     1ba:	071e                	slli	a4,a4,0x7
     1bc:	0000                	unimp
     1be:	0000                	unimp
/home/one/xv6-labs-2020/user/sh.c:120
     1c0:	0000                	unimp
     1c2:	0724                	addi	s1,sp,904
     1c4:	0000                	unimp
     1c6:	0000                	unimp
     1c8:	0000                	unimp
     1ca:	0001                	nop
/home/one/xv6-labs-2020/user/sh.c:121
     1cc:	525a                	lw	tp,180(sp)
     1ce:	00000007          	0x7
     1d2:	0000                	unimp
     1d4:	7400                	ld	s0,40(s0)
/home/one/xv6-labs-2020/user/sh.c:122
     1d6:	00000007          	0x7
     1da:	0000                	unimp
     1dc:	0100                	addi	s0,sp,128
     1de:	5a00                	lw	s0,48(a2)
	...
/home/one/xv6-labs-2020/user/sh.c:104
     1f0:	06c2                	slli	a3,a3,0x10
/home/one/xv6-labs-2020/user/sh.c:106
     1f2:	0000                	unimp
     1f4:	0000                	unimp
     1f6:	0000                	unimp
     1f8:	06e4                	addi	s1,sp,844
     1fa:	0000                	unimp
/home/one/xv6-labs-2020/user/sh.c:107
     1fc:	0000                	unimp
     1fe:	0000                	unimp
     200:	0002                	c.slli64	zero
     202:	9f30                	0x9f30
     204:	070e                	slli	a4,a4,0x3
     206:	0000                	unimp
/home/one/xv6-labs-2020/user/sh.c:108
     208:	0000                	unimp
     20a:	0000                	unimp
     20c:	071e                	slli	a4,a4,0x7
     20e:	0000                	unimp
     210:	0000                	unimp
     212:	0000                	unimp
/home/one/xv6-labs-2020/user/sh.c:109
     214:	0001                	nop
     216:	2e62                	fld	ft8,24(sp)
     218:	00000007          	0x7
     21c:	0000                	unimp
     21e:	6600                	ld	s0,8(a2)
/home/one/xv6-labs-2020/user/sh.c:110
     220:	00000007          	0x7
     224:	0000                	unimp
     226:	0100                	addi	s0,sp,128
     228:	6200                	ld	s0,0(a2)
/home/one/xv6-labs-2020/user/sh.c:113
     22a:	077c                	addi	a5,sp,908
     22c:	0000                	unimp
     22e:	0000                	unimp
     230:	0000                	unimp
/home/one/xv6-labs-2020/user/sh.c:114
     232:	077e                	slli	a4,a4,0x1f
     234:	0000                	unimp
     236:	0000                	unimp
     238:	0000                	unimp
     23a:	0001                	nop
     23c:	0062                	c.slli	zero,0x18
	...
/home/one/xv6-labs-2020/user/sh.c:116
     24a:	0000                	unimp
     24c:	c200                	sw	s0,0(a2)
     24e:	0006                	c.slli	zero,0x1
     250:	0000                	unimp
     252:	0000                	unimp
     254:	cd00                	sw	s0,24(a0)
/home/one/xv6-labs-2020/user/sh.c:117
     256:	0006                	c.slli	zero,0x1
     258:	0000                	unimp
     25a:	0000                	unimp
     25c:	0100                	addi	s0,sp,128
     25e:	5a00                	lw	s0,48(a2)
/home/one/xv6-labs-2020/user/sh.c:127
     260:	06cd                	addi	a3,a3,19
     262:	0000                	unimp
     264:	0000                	unimp
     266:	0000                	unimp
     268:	06e4                	addi	s1,sp,844
     26a:	0000                	unimp
/home/one/xv6-labs-2020/user/sh.c:128
     26c:	0000                	unimp
     26e:	0000                	unimp
     270:	0001                	nop
     272:	0e68                	addi	a0,sp,796
     274:	00000007          	0x7
execcmd():
/home/one/xv6-labs-2020/user/sh.c:198
     278:	0000                	unimp
     27a:	8a00                	0x8a00
     27c:	00000007          	0x7
/home/one/xv6-labs-2020/user/sh.c:201
     280:	0000                	unimp
     282:	0100                	addi	s0,sp,128
     284:	6800                	ld	s0,16(s0)
	...
/home/one/xv6-labs-2020/user/sh.c:202
     296:	06c2                	slli	a3,a3,0x10
     298:	0000                	unimp
     29a:	0000                	unimp
/home/one/xv6-labs-2020/user/sh.c:203
     29c:	0000                	unimp
     29e:	06cd                	addi	a3,a3,19
/home/one/xv6-labs-2020/user/sh.c:205
     2a0:	0000                	unimp
     2a2:	0000                	unimp
     2a4:	0000                	unimp
     2a6:	0001                	nop
     2a8:	cd5a                	sw	s6,152(sp)
     2aa:	0006                	c.slli	zero,0x1
redircmd():
/home/one/xv6-labs-2020/user/sh.c:209
     2ac:	0000                	unimp
     2ae:	0000                	unimp
     2b0:	d000                	sw	s0,32(s0)
     2b2:	0006                	c.slli	zero,0x1
     2b4:	0000                	unimp
     2b6:	0000                	unimp
     2b8:	0100                	addi	s0,sp,128
     2ba:	6800                	ld	s0,16(s0)
     2bc:	06d0                	addi	a2,sp,836
     2be:	0000                	unimp
     2c0:	0000                	unimp
     2c2:	0000                	unimp
     2c4:	06e4                	addi	s1,sp,844
     2c6:	0000                	unimp
     2c8:	0000                	unimp
/home/one/xv6-labs-2020/user/sh.c:212
     2ca:	0000                	unimp
     2cc:	0001                	nop
     2ce:	0e5a                	slli	t3,t3,0x16
     2d0:	00000007          	0x7
     2d4:	0000                	unimp
     2d6:	2e00                	fld	fs0,24(a2)
/home/one/xv6-labs-2020/user/sh.c:213
     2d8:	00000007          	0x7
     2dc:	0000                	unimp
     2de:	0100                	addi	s0,sp,128
     2e0:	6500                	ld	s0,8(a0)
     2e2:	072e                	slli	a4,a4,0xb
     2e4:	0000                	unimp
/home/one/xv6-labs-2020/user/sh.c:214
     2e6:	0000                	unimp
     2e8:	0000                	unimp
/home/one/xv6-labs-2020/user/sh.c:215
     2ea:	0734                	addi	a3,sp,904
     2ec:	0000                	unimp
/home/one/xv6-labs-2020/user/sh.c:216
     2ee:	0000                	unimp
     2f0:	0000                	unimp
/home/one/xv6-labs-2020/user/sh.c:217
     2f2:	0001                	nop
     2f4:	345a                	fld	fs0,432(sp)
/home/one/xv6-labs-2020/user/sh.c:218
     2f6:	00000007          	0x7
/home/one/xv6-labs-2020/user/sh.c:219
     2fa:	0000                	unimp
     2fc:	8a00                	0x8a00
/home/one/xv6-labs-2020/user/sh.c:221
     2fe:	00000007          	0x7
     302:	0000                	unimp
     304:	0100                	addi	s0,sp,128
     306:	6500                	ld	s0,8(a0)
	...
pipecmd():
/home/one/xv6-labs-2020/user/sh.c:225
     318:	08a0                	addi	s0,sp,88
     31a:	0000                	unimp
     31c:	0000                	unimp
     31e:	0000                	unimp
     320:	08c1                	addi	a7,a7,16
     322:	0000                	unimp
     324:	0000                	unimp
/home/one/xv6-labs-2020/user/sh.c:228
     326:	0000                	unimp
     328:	0001                	nop
     32a:	c15a                	sw	s6,128(sp)
     32c:	0008                	0x8
     32e:	0000                	unimp
     330:	0000                	unimp
/home/one/xv6-labs-2020/user/sh.c:229
     332:	1c00                	addi	s0,sp,560
     334:	0009                	c.nop	2
     336:	0000                	unimp
     338:	0000                	unimp
     33a:	0100                	addi	s0,sp,128
     33c:	5900                	lw	s0,48(a0)
/home/one/xv6-labs-2020/user/sh.c:230
     33e:	091c                	addi	a5,sp,144
     340:	0000                	unimp
/home/one/xv6-labs-2020/user/sh.c:231
     342:	0000                	unimp
     344:	0000                	unimp
/home/one/xv6-labs-2020/user/sh.c:232
     346:	0924                	addi	s1,sp,152
     348:	0000                	unimp
/home/one/xv6-labs-2020/user/sh.c:234
     34a:	0000                	unimp
     34c:	0000                	unimp
     34e:	0004                	0x4
     350:	9f5a01f3          	0x9f5a01f3
     354:	0924                	addi	s1,sp,152
     356:	0000                	unimp
     358:	0000                	unimp
listcmd():
/home/one/xv6-labs-2020/user/sh.c:238
     35a:	0000                	unimp
     35c:	0944                	addi	s1,sp,148
     35e:	0000                	unimp
     360:	0000                	unimp
     362:	0000                	unimp
     364:	0001                	nop
     366:	0059                	c.nop	22
	...
/home/one/xv6-labs-2020/user/sh.c:241
     374:	0000                	unimp
     376:	a000                	fsd	fs0,0(s0)
/home/one/xv6-labs-2020/user/sh.c:242
     378:	0008                	0x8
     37a:	0000                	unimp
     37c:	0000                	unimp
     37e:	c100                	sw	s0,0(a0)
     380:	0008                	0x8
     382:	0000                	unimp
/home/one/xv6-labs-2020/user/sh.c:243
     384:	0000                	unimp
     386:	0100                	addi	s0,sp,128
/home/one/xv6-labs-2020/user/sh.c:244
     388:	5b00                	lw	s0,48(a4)
     38a:	08c1                	addi	a7,a7,16
/home/one/xv6-labs-2020/user/sh.c:245
     38c:	0000                	unimp
     38e:	0000                	unimp
/home/one/xv6-labs-2020/user/sh.c:247
     390:	0000                	unimp
     392:	091e                	slli	s2,s2,0x7
     394:	0000                	unimp
     396:	0000                	unimp
     398:	0000                	unimp
     39a:	0001                	nop
     39c:	1e62                	slli	t3,t3,0x38
     39e:	0009                	c.nop	2
backcmd():
/home/one/xv6-labs-2020/user/sh.c:251
     3a0:	0000                	unimp
     3a2:	0000                	unimp
     3a4:	2400                	fld	fs0,8(s0)
     3a6:	0009                	c.nop	2
     3a8:	0000                	unimp
     3aa:	0000                	unimp
     3ac:	0400                	addi	s0,sp,512
/home/one/xv6-labs-2020/user/sh.c:254
     3ae:	f300                	sd	s0,32(a4)
     3b0:	5b01                	li	s6,-32
     3b2:	249f 0009 0000      	0x9249f
     3b8:	0000                	unimp
/home/one/xv6-labs-2020/user/sh.c:255
     3ba:	4400                	lw	s0,8(s0)
     3bc:	0009                	c.nop	2
     3be:	0000                	unimp
     3c0:	0000                	unimp
     3c2:	0100                	addi	s0,sp,128
     3c4:	6200                	ld	s0,0(a2)
	...
/home/one/xv6-labs-2020/user/sh.c:259
     3d6:	08e2                	slli	a7,a7,0x18
     3d8:	0000                	unimp
     3da:	0000                	unimp
gettoken():
/home/one/xv6-labs-2020/user/sh.c:268
     3dc:	0000                	unimp
     3de:	08ee                	slli	a7,a7,0x1b
     3e0:	0000                	unimp
     3e2:	0000                	unimp
     3e4:	0000                	unimp
     3e6:	0001                	nop
     3e8:	ee5a                	sd	s6,280(sp)
     3ea:	0008                	0x8
     3ec:	0000                	unimp
     3ee:	0000                	unimp
     3f0:	1600                	addi	s0,sp,800
     3f2:	0009                	c.nop	2
     3f4:	0000                	unimp
     3f6:	0000                	unimp
/home/one/xv6-labs-2020/user/sh.c:272
     3f8:	0100                	addi	s0,sp,128
/home/one/xv6-labs-2020/user/sh.c:273
     3fa:	6300                	ld	s0,0(a4)
     3fc:	0916                	slli	s2,s2,0x5
     3fe:	0000                	unimp
     400:	0000                	unimp
     402:	0000                	unimp
     404:	0924                	addi	s1,sp,152
/home/one/xv6-labs-2020/user/sh.c:273 (discriminator 1)
     406:	0000                	unimp
     408:	0000                	unimp
     40a:	0000                	unimp
     40c:	0001                	nop
     40e:	345a                	fld	fs0,432(sp)
     410:	0009                	c.nop	2
     412:	0000                	unimp
     414:	0000                	unimp
/home/one/xv6-labs-2020/user/sh.c:274
     416:	4400                	lw	s0,8(s0)
/home/one/xv6-labs-2020/user/sh.c:273
     418:	0009                	c.nop	2
     41a:	0000                	unimp
/home/one/xv6-labs-2020/user/sh.c:275
     41c:	0000                	unimp
     41e:	0100                	addi	s0,sp,128
/home/one/xv6-labs-2020/user/sh.c:276
     420:	6300                	ld	s0,0(a4)
	...
/home/one/xv6-labs-2020/user/sh.c:278
     432:	058a                	slli	a1,a1,0x2
     434:	0000                	unimp
     436:	0000                	unimp
     438:	0000                	unimp
     43a:	05bc                	addi	a5,sp,712
     43c:	0000                	unimp
/home/one/xv6-labs-2020/user/sh.c:302
     43e:	0000                	unimp
     440:	0000                	unimp
/home/one/xv6-labs-2020/user/sh.c:303
     442:	0001                	nop
     444:	bc5a                	fsd	fs6,56(sp)
/home/one/xv6-labs-2020/user/sh.c:305
     446:	0005                	c.nop	1
     448:	0000                	unimp
     44a:	0000                	unimp
     44c:	e400                	sd	s0,8(s0)
     44e:	0005                	c.nop	1
     450:	0000                	unimp
/home/one/xv6-labs-2020/user/sh.c:305 (discriminator 1)
     452:	0000                	unimp
     454:	0100                	addi	s0,sp,128
     456:	6600                	ld	s0,8(a2)
     458:	05e4                	addi	s1,sp,716
     45a:	0000                	unimp
     45c:	0000                	unimp
     45e:	0000                	unimp
     460:	05ec                	addi	a1,sp,716
/home/one/xv6-labs-2020/user/sh.c:306
     462:	0000                	unimp
/home/one/xv6-labs-2020/user/sh.c:305
     464:	0000                	unimp
     466:	0000                	unimp
/home/one/xv6-labs-2020/user/sh.c:307
     468:	0001                	nop
     46a:	ec5a                	sd	s6,24(sp)
/home/one/xv6-labs-2020/user/sh.c:309
     46c:	0005                	c.nop	1
     46e:	0000                	unimp
     470:	0000                	unimp
     472:	4c00                	lw	s0,24(s0)
     474:	0006                	c.slli	zero,0x1
     476:	0000                	unimp
     478:	0000                	unimp
     47a:	0100                	addi	s0,sp,128
     47c:	6600                	ld	s0,8(a2)
     47e:	064c                	addi	a1,sp,772
     480:	0000                	unimp
/home/one/xv6-labs-2020/user/sh.c:278
     482:	0000                	unimp
     484:	0000                	unimp
     486:	064e                	slli	a2,a2,0x13
     488:	0000                	unimp
/home/one/xv6-labs-2020/user/sh.c:298
     48a:	0000                	unimp
     48c:	0000                	unimp
     48e:	0001                	nop
     490:	4e5a                	lw	t3,148(sp)
     492:	0006                	c.slli	zero,0x1
     494:	0000                	unimp
     496:	0000                	unimp
     498:	6800                	ld	s0,16(s0)
     49a:	0006                	c.slli	zero,0x1
     49c:	0000                	unimp
/home/one/xv6-labs-2020/user/sh.c:298 (discriminator 1)
     49e:	0000                	unimp
     4a0:	0100                	addi	s0,sp,128
     4a2:	6600                	ld	s0,8(a2)
     4a4:	0668                	addi	a0,sp,780
     4a6:	0000                	unimp
     4a8:	0000                	unimp
     4aa:	0000                	unimp
     4ac:	066a                	slli	a2,a2,0x1a
/home/one/xv6-labs-2020/user/sh.c:298 (discriminator 2)
     4ae:	0000                	unimp
     4b0:	0000                	unimp
     4b2:	0000                	unimp
     4b4:	0001                	nop
     4b6:	6a5a                	ld	s4,400(sp)
     4b8:	0006                	c.slli	zero,0x1
     4ba:	0000                	unimp
     4bc:	0000                	unimp
/home/one/xv6-labs-2020/user/sh.c:299
     4be:	7c00                	ld	s0,56(s0)
/home/one/xv6-labs-2020/user/sh.c:298
     4c0:	0006                	c.slli	zero,0x1
     4c2:	0000                	unimp
/home/one/xv6-labs-2020/user/sh.c:302
     4c4:	0000                	unimp
     4c6:	0100                	addi	s0,sp,128
     4c8:	6600                	ld	s0,8(a2)
     4ca:	067c                	addi	a5,sp,780
     4cc:	0000                	unimp
/home/one/xv6-labs-2020/user/sh.c:278
     4ce:	0000                	unimp
     4d0:	0000                	unimp
     4d2:	0686                	slli	a3,a3,0x1
     4d4:	0000                	unimp
     4d6:	0000                	unimp
     4d8:	0000                	unimp
     4da:	0001                	nop
     4dc:	005a                	c.slli	zero,0x16
	...
/home/one/xv6-labs-2020/user/sh.c:288
     4ea:	0000                	unimp
/home/one/xv6-labs-2020/user/sh.c:278
     4ec:	8a00                	0x8a00
     4ee:	0005                	c.nop	1
     4f0:	0000                	unimp
     4f2:	0000                	unimp
     4f4:	bc00                	fsd	fs0,56(s0)
/home/one/xv6-labs-2020/user/sh.c:290
     4f6:	0005                	c.nop	1
     4f8:	0000                	unimp
/home/one/xv6-labs-2020/user/sh.c:291
     4fa:	0000                	unimp
     4fc:	0100                	addi	s0,sp,128
     4fe:	5b00                	lw	s0,48(a4)
     500:	05bc                	addi	a5,sp,712
/home/one/xv6-labs-2020/user/sh.c:293
     502:	0000                	unimp
/home/one/xv6-labs-2020/user/sh.c:292
     504:	0000                	unimp
     506:	0000                	unimp
/home/one/xv6-labs-2020/user/sh.c:291
     508:	0676                	slli	a2,a2,0x1d
     50a:	0000                	unimp
/home/one/xv6-labs-2020/user/sh.c:290
     50c:	0000                	unimp
/home/one/xv6-labs-2020/user/sh.c:277
     50e:	0000                	unimp
     510:	0001                	nop
     512:	00067663          	bgeu	a2,zero,51e <gettoken+0x142>
/home/one/xv6-labs-2020/user/sh.c:297
     516:	0000                	unimp
     518:	0000                	unimp
     51a:	8600                	0x8600
     51c:	0006                	c.slli	zero,0x1
     51e:	0000                	unimp
peek():
/home/one/xv6-labs-2020/user/sh.c:313
     520:	0000                	unimp
     522:	0400                	addi	s0,sp,512
     524:	f300                	sd	s0,32(a4)
     526:	5b01                	li	s6,-32
     528:	009f 0000 0000      	0x9f
	...
     536:	0000                	unimp
/home/one/xv6-labs-2020/user/sh.c:316
     538:	8a00                	0x8a00
/home/one/xv6-labs-2020/user/sh.c:317
     53a:	0005                	c.nop	1
     53c:	0000                	unimp
     53e:	0000                	unimp
     540:	bc00                	fsd	fs0,56(s0)
     542:	0005                	c.nop	1
     544:	0000                	unimp
/home/one/xv6-labs-2020/user/sh.c:317 (discriminator 1)
     546:	0000                	unimp
     548:	0100                	addi	s0,sp,128
     54a:	5c00                	lw	s0,56(s0)
     54c:	05bc                	addi	a5,sp,712
     54e:	0000                	unimp
     550:	0000                	unimp
     552:	0000                	unimp
     554:	0674                	addi	a3,sp,780
/home/one/xv6-labs-2020/user/sh.c:318
     556:	0000                	unimp
/home/one/xv6-labs-2020/user/sh.c:317
     558:	0000                	unimp
     55a:	0000                	unimp
/home/one/xv6-labs-2020/user/sh.c:319
     55c:	0001                	nop
     55e:	7462                	ld	s0,56(sp)
/home/one/xv6-labs-2020/user/sh.c:320
     560:	0006                	c.slli	zero,0x1
     562:	0000                	unimp
     564:	0000                	unimp
     566:	8600                	0x8600
/home/one/xv6-labs-2020/user/sh.c:321 (discriminator 6)
     568:	0006                	c.slli	zero,0x1
     56a:	0000                	unimp
     56c:	0000                	unimp
     56e:	0400                	addi	s0,sp,512
     570:	f300                	sd	s0,32(a4)
     572:	5c01                	li	s8,-32
     574:	009f 0000 0000      	0x9f
	...
/home/one/xv6-labs-2020/user/sh.c:320 (discriminator 1)
     582:	0000                	unimp
     584:	bc00                	fsd	fs0,56(s0)
     586:	0005                	c.nop	1
     588:	0000                	unimp
parseredirs():
/home/one/xv6-labs-2020/user/sh.c:377
     58a:	0000                	unimp
     58c:	e400                	sd	s0,8(s0)
     58e:	0005                	c.nop	1
     590:	0000                	unimp
     592:	0000                	unimp
     594:	0100                	addi	s0,sp,128
     596:	5900                	lw	s0,48(a0)
     598:	060e                	slli	a2,a2,0x3
     59a:	0000                	unimp
     59c:	0000                	unimp
     59e:	0000                	unimp
     5a0:	066a                	slli	a2,a2,0x1a
     5a2:	0000                	unimp
     5a4:	0000                	unimp
     5a6:	0000                	unimp
     5a8:	0001                	nop
/home/one/xv6-labs-2020/user/sh.c:381
     5aa:	0059                	c.nop	22
	...
/home/one/xv6-labs-2020/user/sh.c:385
     5b8:	0000                	unimp
/home/one/xv6-labs-2020/user/sh.c:381
     5ba:	8a00                	0x8a00
/home/one/xv6-labs-2020/user/sh.c:384
     5bc:	00000007          	0x7
     5c0:	0000                	unimp
     5c2:	a300                	fsd	fs0,0(a4)
     5c4:	00000007          	0x7
     5c8:	0000                	unimp
     5ca:	0100                	addi	s0,sp,128
/home/one/xv6-labs-2020/user/sh.c:387
     5cc:	5a00                	lw	s0,48(a2)
     5ce:	000007a3          	sb	zero,15(zero) # f <getcmd+0xf>
     5d2:	0000                	unimp
     5d4:	0000                	unimp
     5d6:	07c6                	slli	a5,a5,0x11
     5d8:	0000                	unimp
     5da:	0000                	unimp
     5dc:	0000                	unimp
     5de:	0001                	nop
     5e0:	c662                	sw	s8,12(sp)
     5e2:	00000007          	0x7
/home/one/xv6-labs-2020/user/sh.c:385
     5e6:	0000                	unimp
     5e8:	cc00                	sw	s0,24(s0)
     5ea:	00000007          	0x7
/home/one/xv6-labs-2020/user/sh.c:381
     5ee:	0000                	unimp
     5f0:	0400                	addi	s0,sp,512
     5f2:	f300                	sd	s0,32(a4)
     5f4:	5a01                	li	s4,-32
     5f6:	cc9f 0007 0000      	0x7cc9f
/home/one/xv6-labs-2020/user/sh.c:382
     5fc:	0000                	unimp
     5fe:	f800                	sd	s0,48(s0)
     600:	00000007          	0x7
     604:	0000                	unimp
     606:	0100                	addi	s0,sp,128
     608:	6200                	ld	s0,0(a2)
	...
/home/one/xv6-labs-2020/user/sh.c:383
     61a:	078a                	slli	a5,a5,0x2
     61c:	0000                	unimp
     61e:	0000                	unimp
     620:	0000                	unimp
     622:	000007a3          	sb	zero,15(zero) # f <getcmd+0xf>
/home/one/xv6-labs-2020/user/sh.c:385
     626:	0000                	unimp
     628:	0000                	unimp
     62a:	0001                	nop
     62c:	0007a35b          	0x7a35b
     630:	0000                	unimp
/home/one/xv6-labs-2020/user/sh.c:393
     632:	0000                	unimp
     634:	c800                	sw	s0,16(s0)
     636:	00000007          	0x7
     63a:	0000                	unimp
     63c:	0100                	addi	s0,sp,128
     63e:	6300                	ld	s0,0(a4)
     640:	07c8                	addi	a0,sp,964
     642:	0000                	unimp
     644:	0000                	unimp
     646:	0000                	unimp
     648:	07cc                	addi	a1,sp,964
     64a:	0000                	unimp
/home/one/xv6-labs-2020/user/sh.c:394
     64c:	0000                	unimp
/home/one/xv6-labs-2020/user/sh.c:390
     64e:	0000                	unimp
     650:	0004                	0x4
     652:	9f5b01f3          	0x9f5b01f3
     656:	07cc                	addi	a1,sp,964
     658:	0000                	unimp
     65a:	0000                	unimp
     65c:	0000                	unimp
     65e:	07f8                	addi	a4,sp,972
     660:	0000                	unimp
     662:	0000                	unimp
     664:	0000                	unimp
     666:	0001                	nop
/home/one/xv6-labs-2020/user/sh.c:391
     668:	00000063          	beqz	zero,668 <parseredirs+0xde>
	...
/home/one/xv6-labs-2020/user/sh.c:398
     678:	a600                	fsd	fs0,8(a2)
     67a:	00000007          	0x7
     67e:	0000                	unimp
     680:	c400                	sw	s0,8(s0)
     682:	00000007          	0x7
parseexec():
/home/one/xv6-labs-2020/user/sh.c:418
     686:	0000                	unimp
     688:	0100                	addi	s0,sp,128
     68a:	5900                	lw	s0,48(a0)
     68c:	07c4                	addi	s1,sp,964
     68e:	0000                	unimp
     690:	0000                	unimp
     692:	0000                	unimp
     694:	07cc                	addi	a1,sp,964
     696:	0000                	unimp
     698:	0000                	unimp
     69a:	0000                	unimp
     69c:	0001                	nop
     69e:	cc5a                	sw	s6,24(sp)
     6a0:	00000007          	0x7
/home/one/xv6-labs-2020/user/sh.c:424
     6a4:	0000                	unimp
     6a6:	f800                	sd	s0,48(s0)
     6a8:	00000007          	0x7
     6ac:	0000                	unimp
     6ae:	0100                	addi	s0,sp,128
     6b0:	5900                	lw	s0,48(a0)
	...
/home/one/xv6-labs-2020/user/sh.c:431
     6c2:	07f8                	addi	a4,sp,972
     6c4:	0000                	unimp
     6c6:	0000                	unimp
     6c8:	0000                	unimp
     6ca:	00000813          	li	a6,0
     6ce:	0000                	unimp
/home/one/xv6-labs-2020/user/sh.c:432
     6d0:	0000                	unimp
     6d2:	0001                	nop
     6d4:	135a                	slli	t1,t1,0x36
     6d6:	0008                	0x8
     6d8:	0000                	unimp
     6da:	0000                	unimp
/home/one/xv6-labs-2020/user/sh.c:435
     6dc:	6a00                	ld	s0,16(a2)
     6de:	0008                	0x8
/home/one/xv6-labs-2020/user/sh.c:440
     6e0:	0000                	unimp
/home/one/xv6-labs-2020/user/sh.c:432
     6e2:	0000                	unimp
/home/one/xv6-labs-2020/user/sh.c:425
     6e4:	0100                	addi	s0,sp,128
     6e6:	5900                	lw	s0,48(a0)
     6e8:	086a                	slli	a6,a6,0x1a
     6ea:	0000                	unimp
     6ec:	0000                	unimp
     6ee:	0000                	unimp
     6f0:	0874                	addi	a3,sp,28
/home/one/xv6-labs-2020/user/sh.c:447
     6f2:	0000                	unimp
     6f4:	0000                	unimp
     6f6:	0000                	unimp
     6f8:	0004                	0x4
     6fa:	9f5a01f3          	0x9f5a01f3
     6fe:	0874                	addi	a3,sp,28
     700:	0000                	unimp
     702:	0000                	unimp
     704:	0000                	unimp
     706:	08a0                	addi	s0,sp,88
     708:	0000                	unimp
     70a:	0000                	unimp
     70c:	0000                	unimp
/home/one/xv6-labs-2020/user/sh.c:436
     70e:	0001                	nop
     710:	0059                	c.nop	22
	...
/home/one/xv6-labs-2020/user/sh.c:442
     71e:	0000                	unimp
     720:	f800                	sd	s0,48(s0)
     722:	00000007          	0x7
     726:	0000                	unimp
     728:	1300                	addi	s0,sp,416
     72a:	0008                	0x8
     72c:	0000                	unimp
/home/one/xv6-labs-2020/user/sh.c:432
     72e:	0000                	unimp
     730:	0100                	addi	s0,sp,128
     732:	5b00                	lw	s0,48(a4)
     734:	00000813          	li	a6,0
     738:	0000                	unimp
     73a:	0000                	unimp
     73c:	086c                	addi	a1,sp,28
/home/one/xv6-labs-2020/user/sh.c:433
     73e:	0000                	unimp
     740:	0000                	unimp
     742:	0000                	unimp
     744:	0001                	nop
     746:	6c62                	ld	s8,24(sp)
     748:	0008                	0x8
     74a:	0000                	unimp
     74c:	0000                	unimp
     74e:	7400                	ld	s0,40(s0)
     750:	0008                	0x8
     752:	0000                	unimp
/home/one/xv6-labs-2020/user/sh.c:435
     754:	0000                	unimp
     756:	0400                	addi	s0,sp,512
/home/one/xv6-labs-2020/user/sh.c:437
     758:	f300                	sd	s0,32(a4)
     75a:	5b01                	li	s6,-32
     75c:	749f 0008 0000      	0x8749f
/home/one/xv6-labs-2020/user/sh.c:438
     762:	0000                	unimp
/home/one/xv6-labs-2020/user/sh.c:439
     764:	a000                	fsd	fs0,0(s0)
/home/one/xv6-labs-2020/user/sh.c:440
     766:	0008                	0x8
     768:	0000                	unimp
     76a:	0000                	unimp
/home/one/xv6-labs-2020/user/sh.c:441
     76c:	0100                	addi	s0,sp,128
     76e:	6200                	ld	s0,0(a2)
	...
/home/one/xv6-labs-2020/user/sh.c:444
     780:	0816                	slli	a6,a6,0x5
     782:	0000                	unimp
/home/one/xv6-labs-2020/user/sh.c:445
     784:	0000                	unimp
     786:	0000                	unimp
/home/one/xv6-labs-2020/user/sh.c:446
     788:	0824                	addi	s1,sp,24
parsepipe():
/home/one/xv6-labs-2020/user/sh.c:364
     78a:	0000                	unimp
     78c:	0000                	unimp
     78e:	0000                	unimp
     790:	0001                	nop
     792:	245a                	fld	fs0,400(sp)
     794:	0008                	0x8
     796:	0000                	unimp
     798:	0000                	unimp
     79a:	4a00                	lw	s0,16(a2)
/home/one/xv6-labs-2020/user/sh.c:367
     79c:	0008                	0x8
     79e:	0000                	unimp
     7a0:	0000                	unimp
     7a2:	0100                	addi	s0,sp,128
     7a4:	6300                	ld	s0,0(a4)
/home/one/xv6-labs-2020/user/sh.c:368
     7a6:	084a                	slli	a6,a6,0x12
     7a8:	0000                	unimp
     7aa:	0000                	unimp
     7ac:	0000                	unimp
     7ae:	084c                	addi	a1,sp,20
     7b0:	0000                	unimp
     7b2:	0000                	unimp
     7b4:	0000                	unimp
     7b6:	0001                	nop
     7b8:	4c5a                	lw	s8,148(sp)
     7ba:	0008                	0x8
/home/one/xv6-labs-2020/user/sh.c:373
     7bc:	0000                	unimp
     7be:	0000                	unimp
     7c0:	6e00                	ld	s0,24(a2)
     7c2:	0008                	0x8
     7c4:	0000                	unimp
     7c6:	0000                	unimp
     7c8:	0100                	addi	s0,sp,128
     7ca:	6300                	ld	s0,0(a4)
/home/one/xv6-labs-2020/user/sh.c:369
     7cc:	086e                	slli	a6,a6,0x1b
     7ce:	0000                	unimp
     7d0:	0000                	unimp
     7d2:	0000                	unimp
     7d4:	0874                	addi	a3,sp,28
     7d6:	0000                	unimp
     7d8:	0000                	unimp
     7da:	0000                	unimp
/home/one/xv6-labs-2020/user/sh.c:370
     7dc:	0001                	nop
     7de:	745a                	ld	s0,432(sp)
     7e0:	0008                	0x8
     7e2:	0000                	unimp
     7e4:	0000                	unimp
     7e6:	9e00                	0x9e00
     7e8:	0008                	0x8
     7ea:	0000                	unimp
     7ec:	0000                	unimp
     7ee:	0100                	addi	s0,sp,128
     7f0:	6300                	ld	s0,0(a4)
     7f2:	089e                	slli	a7,a7,0x7
     7f4:	0000                	unimp
/home/one/xv6-labs-2020/user/sh.c:372
     7f6:	0000                	unimp
parseline():
/home/one/xv6-labs-2020/user/sh.c:347
     7f8:	0000                	unimp
     7fa:	08a0                	addi	s0,sp,88
     7fc:	0000                	unimp
     7fe:	0000                	unimp
     800:	0000                	unimp
     802:	0001                	nop
     804:	005a                	c.slli	zero,0x16
	...
/home/one/xv6-labs-2020/user/sh.c:350
     812:	0000                	unimp
     814:	dc00                	sw	s0,56(s0)
/home/one/xv6-labs-2020/user/sh.c:351
     816:	0009                	c.nop	2
     818:	0000                	unimp
     81a:	0000                	unimp
     81c:	f500                	sd	s0,40(a0)
     81e:	0009                	c.nop	2
     820:	0000                	unimp
     822:	0000                	unimp
     824:	0100                	addi	s0,sp,128
     826:	5a00                	lw	s0,48(a2)
	...
/home/one/xv6-labs-2020/user/sh.c:352
     838:	09fc                	addi	a5,sp,220
     83a:	0000                	unimp
     83c:	0000                	unimp
/home/one/xv6-labs-2020/user/sh.c:353
     83e:	0000                	unimp
     840:	0a3c                	addi	a5,sp,280
     842:	0000                	unimp
     844:	0000                	unimp
     846:	0000                	unimp
     848:	0001                	nop
     84a:	4259                	li	tp,22
/home/one/xv6-labs-2020/user/sh.c:355
     84c:	000a                	c.slli	zero,0x2
     84e:	0000                	unimp
     850:	0000                	unimp
     852:	6400                	ld	s0,8(s0)
     854:	000a                	c.slli	zero,0x2
     856:	0000                	unimp
     858:	0000                	unimp
     85a:	0100                	addi	s0,sp,128
     85c:	5900                	lw	s0,48(a0)
	...
/home/one/xv6-labs-2020/user/sh.c:360
     86e:	0a0c                	addi	a1,sp,272
     870:	0000                	unimp
     872:	0000                	unimp
/home/one/xv6-labs-2020/user/sh.c:356
     874:	0000                	unimp
     876:	0a1a                	slli	s4,s4,0x6
     878:	0000                	unimp
     87a:	0000                	unimp
     87c:	0000                	unimp
     87e:	0001                	nop
     880:	1a5a                	slli	s4,s4,0x36
     882:	000a                	c.slli	zero,0x2
/home/one/xv6-labs-2020/user/sh.c:357
     884:	0000                	unimp
     886:	0000                	unimp
     888:	3e00                	fld	fs0,56(a2)
     88a:	000a                	c.slli	zero,0x2
     88c:	0000                	unimp
     88e:	0000                	unimp
     890:	0100                	addi	s0,sp,128
     892:	6200                	ld	s0,0(a2)
     894:	0a3e                	slli	s4,s4,0xf
     896:	0000                	unimp
     898:	0000                	unimp
     89a:	0000                	unimp
     89c:	0a42                	slli	s4,s4,0x10
/home/one/xv6-labs-2020/user/sh.c:359
     89e:	0000                	unimp
parseblock():
/home/one/xv6-labs-2020/user/sh.c:402
     8a0:	0000                	unimp
     8a2:	0000                	unimp
     8a4:	0001                	nop
     8a6:	425a                	lw	tp,148(sp)
     8a8:	000a                	c.slli	zero,0x2
     8aa:	0000                	unimp
     8ac:	0000                	unimp
     8ae:	6400                	ld	s0,8(s0)
     8b0:	000a                	c.slli	zero,0x2
/home/one/xv6-labs-2020/user/sh.c:405
     8b2:	0000                	unimp
     8b4:	0000                	unimp
     8b6:	0100                	addi	s0,sp,128
     8b8:	6200                	ld	s0,0(a2)
	...
/home/one/xv6-labs-2020/user/sh.c:407
     8ca:	0520                	addi	s0,sp,648
     8cc:	0000                	unimp
     8ce:	0000                	unimp
     8d0:	0000                	unimp
     8d2:	0546                	slli	a0,a0,0x11
/home/one/xv6-labs-2020/user/sh.c:408
     8d4:	0000                	unimp
     8d6:	0000                	unimp
     8d8:	0000                	unimp
     8da:	0001                	nop
     8dc:	465a                	lw	a2,148(sp)
     8de:	0005                	c.nop	1
     8e0:	0000                	unimp
/home/one/xv6-labs-2020/user/sh.c:409
     8e2:	0000                	unimp
     8e4:	7400                	ld	s0,40(s0)
     8e6:	0005                	c.nop	1
     8e8:	0000                	unimp
     8ea:	0000                	unimp
     8ec:	0100                	addi	s0,sp,128
     8ee:	6400                	ld	s0,8(s0)
     8f0:	0574                	addi	a3,sp,652
     8f2:	0000                	unimp
     8f4:	0000                	unimp
     8f6:	0000                	unimp
/home/one/xv6-labs-2020/user/sh.c:411
     8f8:	057a                	slli	a0,a0,0x1e
     8fa:	0000                	unimp
     8fc:	0000                	unimp
     8fe:	0000                	unimp
     900:	0004                	0x4
     902:	9f5a01f3          	0x9f5a01f3
     906:	057a                	slli	a0,a0,0x1e
/home/one/xv6-labs-2020/user/sh.c:412
     908:	0000                	unimp
     90a:	0000                	unimp
     90c:	0000                	unimp
     90e:	058a                	slli	a1,a1,0x2
     910:	0000                	unimp
     912:	0000                	unimp
     914:	0000                	unimp
/home/one/xv6-labs-2020/user/sh.c:414
     916:	0001                	nop
     918:	0064                	addi	s1,sp,12
	...
/home/one/xv6-labs-2020/user/sh.c:406
     926:	0000                	unimp
     928:	2000                	fld	fs0,0(s0)
     92a:	0005                	c.nop	1
     92c:	0000                	unimp
     92e:	0000                	unimp
     930:	4600                	lw	s0,8(a2)
     932:	0005                	c.nop	1
/home/one/xv6-labs-2020/user/sh.c:410
     934:	0000                	unimp
     936:	0000                	unimp
     938:	0100                	addi	s0,sp,128
     93a:	5b00                	lw	s0,48(a4)
     93c:	0546                	slli	a0,a0,0x11
     93e:	0000                	unimp
     940:	0000                	unimp
     942:	0000                	unimp
nulterminate():
/home/one/xv6-labs-2020/user/sh.c:452
     944:	0570                	addi	a2,sp,652
     946:	0000                	unimp
     948:	0000                	unimp
     94a:	0000                	unimp
     94c:	0001                	nop
     94e:	7062                	0x7062
/home/one/xv6-labs-2020/user/sh.c:460
     950:	0005                	c.nop	1
/home/one/xv6-labs-2020/user/sh.c:463
     952:	0000                	unimp
     954:	0000                	unimp
     956:	7a00                	ld	s0,48(a2)
     958:	0005                	c.nop	1
     95a:	0000                	unimp
     95c:	0000                	unimp
     95e:	0400                	addi	s0,sp,512
     960:	f300                	sd	s0,32(a4)
     962:	5b01                	li	s6,-32
     964:	7a9f 0005 0000      	0x57a9f
     96a:	0000                	unimp
     96c:	8a00                	0x8a00
     96e:	0005                	c.nop	1
/home/one/xv6-labs-2020/user/sh.c:466
     970:	0000                	unimp
     972:	0000                	unimp
     974:	0100                	addi	s0,sp,128
     976:	6200                	ld	s0,0(a2)
	...
/home/one/xv6-labs-2020/user/sh.c:472
     988:	0520                	addi	s0,sp,648
     98a:	0000                	unimp
     98c:	0000                	unimp
     98e:	0000                	unimp
     990:	0546                	slli	a0,a0,0x11
/home/one/xv6-labs-2020/user/sh.c:473
     992:	0000                	unimp
     994:	0000                	unimp
     996:	0000                	unimp
/home/one/xv6-labs-2020/user/sh.c:494
     998:	0001                	nop
     99a:	465c                	lw	a5,12(a2)
     99c:	0005                	c.nop	1
     99e:	0000                	unimp
     9a0:	0000                	unimp
     9a2:	7600                	ld	s0,40(a2)
/home/one/xv6-labs-2020/user/sh.c:478
     9a4:	0005                	c.nop	1
     9a6:	0000                	unimp
     9a8:	0000                	unimp
     9aa:	0100                	addi	s0,sp,128
     9ac:	6500                	ld	s0,8(a0)
/home/one/xv6-labs-2020/user/sh.c:479
     9ae:	0576                	slli	a0,a0,0x1d
     9b0:	0000                	unimp
     9b2:	0000                	unimp
     9b4:	0000                	unimp
     9b6:	057a                	slli	a0,a0,0x1e
/home/one/xv6-labs-2020/user/sh.c:480
     9b8:	0000                	unimp
/home/one/xv6-labs-2020/user/sh.c:484
     9ba:	0000                	unimp
     9bc:	0000                	unimp
     9be:	0004                	0x4
     9c0:	9f5c01f3          	0x9f5c01f3
/home/one/xv6-labs-2020/user/sh.c:485
     9c4:	057a                	slli	a0,a0,0x1e
     9c6:	0000                	unimp
     9c8:	0000                	unimp
     9ca:	0000                	unimp
     9cc:	058a                	slli	a1,a1,0x2
/home/one/xv6-labs-2020/user/sh.c:486
     9ce:	0000                	unimp
/home/one/xv6-labs-2020/user/sh.c:490
     9d0:	0000                	unimp
     9d2:	0000                	unimp
     9d4:	0001                	nop
     9d6:	0065                	c.nop	25
	...
parsecmd():
/home/one/xv6-labs-2020/user/sh.c:330
     9e4:	0000                	unimp
     9e6:	3a00                	fld	fs0,48(a2)
     9e8:	0005                	c.nop	1
     9ea:	0000                	unimp
/home/one/xv6-labs-2020/user/sh.c:334
     9ec:	0000                	unimp
     9ee:	6e00                	ld	s0,24(a2)
     9f0:	0005                	c.nop	1
     9f2:	0000                	unimp
     9f4:	0000                	unimp
     9f6:	0100                	addi	s0,sp,128
     9f8:	5900                	lw	s0,48(a0)
     9fa:	057a                	slli	a0,a0,0x1e
/home/one/xv6-labs-2020/user/sh.c:335
     9fc:	0000                	unimp
     9fe:	0000                	unimp
     a00:	0000                	unimp
     a02:	058a                	slli	a1,a1,0x2
     a04:	0000                	unimp
     a06:	0000                	unimp
     a08:	0000                	unimp
     a0a:	0001                	nop
/home/one/xv6-labs-2020/user/sh.c:336
     a0c:	0059                	c.nop	22
	...
     a1a:	0000                	unimp
     a1c:	dc00                	sw	s0,56(s0)
     a1e:	00000003          	lb	zero,0(zero) # 0 <getcmd>
/home/one/xv6-labs-2020/user/sh.c:337
     a22:	0000                	unimp
     a24:	0600                	addi	s0,sp,768
     a26:	0004                	0x4
     a28:	0000                	unimp
/home/one/xv6-labs-2020/user/sh.c:341
     a2a:	0000                	unimp
     a2c:	0100                	addi	s0,sp,128
     a2e:	5a00                	lw	s0,48(a2)
     a30:	0406                	slli	s0,s0,0x1
     a32:	0000                	unimp
/home/one/xv6-labs-2020/user/sh.c:343
     a34:	0000                	unimp
     a36:	0000                	unimp
     a38:	047a                	slli	s0,s0,0x1e
     a3a:	0000                	unimp
     a3c:	0000                	unimp
     a3e:	0000                	unimp
     a40:	0001                	nop
/home/one/xv6-labs-2020/user/sh.c:338
     a42:	7a64                	ld	s1,240(a2)
     a44:	0004                	0x4
     a46:	0000                	unimp
     a48:	0000                	unimp
     a4a:	8200                	0x8200
     a4c:	0004                	0x4
     a4e:	0000                	unimp
     a50:	0000                	unimp
     a52:	0400                	addi	s0,sp,512
/home/one/xv6-labs-2020/user/sh.c:339
     a54:	f300                	sd	s0,32(a4)
     a56:	5a01                	li	s4,-32
     a58:	829f 0004 0000      	0x4829f
     a5e:	0000                	unimp
     a60:	2000                	fld	fs0,0(s0)
     a62:	0005                	c.nop	1
main():
/home/one/xv6-labs-2020/user/sh.c:147
     a64:	0000                	unimp
     a66:	0000                	unimp
     a68:	0100                	addi	s0,sp,128
     a6a:	6400                	ld	s0,8(s0)
	...
/home/one/xv6-labs-2020/user/sh.c:152
     a7c:	03dc                	addi	a5,sp,452
     a7e:	0000                	unimp
     a80:	0000                	unimp
     a82:	0000                	unimp
     a84:	0406                	slli	s0,s0,0x1
     a86:	0000                	unimp
     a88:	0000                	unimp
     a8a:	0000                	unimp
     a8c:	0001                	nop
/home/one/xv6-labs-2020/user/sh.c:153
     a8e:	0004065b          	0x4065b
     a92:	0000                	unimp
/home/one/xv6-labs-2020/user/sh.c:154
     a94:	0000                	unimp
     a96:	7600                	ld	s0,40(a2)
     a98:	0004                	0x4
     a9a:	0000                	unimp
/home/one/xv6-labs-2020/user/sh.c:160
     a9c:	0000                	unimp
     a9e:	0100                	addi	s0,sp,128
     aa0:	6200                	ld	s0,0(a2)
     aa2:	0476                	slli	s0,s0,0x1d
/home/one/xv6-labs-2020/user/sh.c:161
     aa4:	0000                	unimp
     aa6:	0000                	unimp
     aa8:	0000                	unimp
     aaa:	0482                	c.slli64	s1
/home/one/xv6-labs-2020/user/sh.c:164
     aac:	0000                	unimp
     aae:	0000                	unimp
     ab0:	0000                	unimp
     ab2:	0004                	0x4
/home/one/xv6-labs-2020/user/sh.c:165
     ab4:	9f5b01f3          	0x9f5b01f3
     ab8:	0482                	c.slli64	s1
     aba:	0000                	unimp
     abc:	0000                	unimp
/home/one/xv6-labs-2020/user/sh.c:168
     abe:	0000                	unimp
     ac0:	0520                	addi	s0,sp,648
     ac2:	0000                	unimp
     ac4:	0000                	unimp
     ac6:	0000                	unimp
/home/one/xv6-labs-2020/user/sh.c:170
     ac8:	0001                	nop
     aca:	0062                	c.slli	zero,0x18
	...
/home/one/xv6-labs-2020/user/sh.c:160
     ad8:	0000                	unimp
     ada:	dc00                	sw	s0,56(s0)
     adc:	00000003          	lb	zero,0(zero) # 0 <getcmd>
     ae0:	0000                	unimp
     ae2:	0600                	addi	s0,sp,768
/home/one/xv6-labs-2020/user/sh.c:161
     ae4:	0004                	0x4
     ae6:	0000                	unimp
     ae8:	0000                	unimp
     aea:	0100                	addi	s0,sp,128
/home/one/xv6-labs-2020/user/sh.c:161 (discriminator 1)
     aec:	5c00                	lw	s0,56(s0)
     aee:	0406                	slli	s0,s0,0x1
     af0:	0000                	unimp
     af2:	0000                	unimp
     af4:	0000                	unimp
     af6:	042c                	addi	a1,sp,520
/home/one/xv6-labs-2020/user/sh.c:161 (discriminator 2)
     af8:	0000                	unimp
     afa:	0000                	unimp
     afc:	0000                	unimp
     afe:	0001                	nop
/home/one/xv6-labs-2020/user/sh.c:163
     b00:	2c65                	addiw	s8,s8,25
     b02:	0004                	0x4
     b04:	0000                	unimp
     b06:	0000                	unimp
     b08:	2000                	fld	fs0,0(s0)
     b0a:	0005                	c.nop	1
     b0c:	0000                	unimp
     b0e:	0000                	unimp
     b10:	0400                	addi	s0,sp,512
     b12:	f300                	sd	s0,32(a4)
     b14:	5c01                	li	s8,-32
     b16:	009f 0000 0000      	0x9f
	...
/home/one/xv6-labs-2020/user/sh.c:164
     b24:	0000                	unimp
/home/one/xv6-labs-2020/user/sh.c:165
     b26:	dc00                	sw	s0,56(s0)
     b28:	00000003          	lb	zero,0(zero) # 0 <getcmd>
     b2c:	0000                	unimp
     b2e:	0600                	addi	s0,sp,768
     b30:	0004                	0x4
     b32:	0000                	unimp
     b34:	0000                	unimp
/home/one/xv6-labs-2020/user/sh.c:169
     b36:	0100                	addi	s0,sp,128
     b38:	5d00                	lw	s0,56(a0)
     b3a:	0406                	slli	s0,s0,0x1
     b3c:	0000                	unimp
     b3e:	0000                	unimp
     b40:	0000                	unimp
     b42:	047e                	slli	s0,s0,0x1f
     b44:	0000                	unimp
     b46:	0000                	unimp
     b48:	0000                	unimp
     b4a:	0001                	nop
     b4c:	7e66                	ld	t3,120(sp)
/home/one/xv6-labs-2020/user/sh.c:172
     b4e:	0004                	0x4
     b50:	0000                	unimp
     b52:	0000                	unimp
     b54:	8200                	0x8200
     b56:	0004                	0x4
strcpy():
/home/one/xv6-labs-2020/user/ulib.c:8
     b58:	0000                	unimp
     b5a:	0000                	unimp
     b5c:	0400                	addi	s0,sp,512
/home/one/xv6-labs-2020/user/ulib.c:12
     b5e:	f300                	sd	s0,32(a4)
/home/one/xv6-labs-2020/user/ulib.c:12 (discriminator 1)
     b60:	5d01                	li	s10,-32
     b62:	829f 0004 0000      	0x4829f
     b68:	0000                	unimp
     b6a:	2000                	fld	fs0,0(s0)
     b6c:	0005                	c.nop	1
/home/one/xv6-labs-2020/user/ulib.c:15
     b6e:	0000                	unimp
     b70:	0000                	unimp
     b72:	0100                	addi	s0,sp,128
strcmp():
/home/one/xv6-labs-2020/user/ulib.c:19
     b74:	6600                	ld	s0,8(a2)
	...
/home/one/xv6-labs-2020/user/ulib.c:20
     b86:	03fa                	slli	t2,t2,0x1e
/home/one/xv6-labs-2020/user/ulib.c:21
     b88:	0000                	unimp
     b8a:	0000                	unimp
/home/one/xv6-labs-2020/user/ulib.c:20
     b8c:	0000                	unimp
     b8e:	0474                	addi	a3,sp,524
     b90:	0000                	unimp
/home/one/xv6-labs-2020/user/ulib.c:20 (discriminator 1)
     b92:	0000                	unimp
     b94:	0000                	unimp
     b96:	0001                	nop
     b98:	7459                	lui	s0,0xffff6
/home/one/xv6-labs-2020/user/ulib.c:22
     b9a:	0004                	0x4
     b9c:	0000                	unimp
/home/one/xv6-labs-2020/user/ulib.c:23
     b9e:	0000                	unimp
     ba0:	7a00                	ld	s0,48(a2)
     ba2:	0004                	0x4
     ba4:	0000                	unimp
     ba6:	0000                	unimp
strlen():
/home/one/xv6-labs-2020/user/ulib.c:27
     ba8:	0200                	addi	s0,sp,256
     baa:	8400                	0x8400
     bac:	7a00                	ld	s0,48(a2)
/home/one/xv6-labs-2020/user/ulib.c:30
     bae:	0004                	0x4
     bb0:	0000                	unimp
     bb2:	0000                	unimp
     bb4:	8200                	0x8200
     bb6:	0004                	0x4
     bb8:	0000                	unimp
     bba:	0000                	unimp
/home/one/xv6-labs-2020/user/ulib.c:31 (discriminator 3)
     bbc:	0300                	addi	s0,sp,384
     bbe:	f300                	sd	s0,32(a4)
     bc0:	5a01                	li	s4,-32
/home/one/xv6-labs-2020/user/ulib.c:30 (discriminator 3)
     bc2:	0482                	c.slli64	s1
     bc4:	0000                	unimp
     bc6:	0000                	unimp
/home/one/xv6-labs-2020/user/ulib.c:33
     bc8:	0000                	unimp
     bca:	04fa                	slli	s1,s1,0x1e
     bcc:	0000                	unimp
/home/one/xv6-labs-2020/user/ulib.c:30
     bce:	0000                	unimp
     bd0:	0000                	unimp
memset():
/home/one/xv6-labs-2020/user/ulib.c:37
     bd2:	0001                	nop
     bd4:	fa59                	bnez	a2,b6a <strcpy+0x12>
     bd6:	0004                	0x4
/home/one/xv6-labs-2020/user/ulib.c:40
     bd8:	0000                	unimp
     bda:	0000                	unimp
     bdc:	0400                	addi	s0,sp,512
     bde:	0005                	c.nop	1
     be0:	0000                	unimp
     be2:	0000                	unimp
     be4:	0100                	addi	s0,sp,128
     be6:	5d00                	lw	s0,56(a0)
/home/one/xv6-labs-2020/user/ulib.c:41 (discriminator 3)
     be8:	0504                	addi	s1,sp,640
     bea:	0000                	unimp
     bec:	0000                	unimp
/home/one/xv6-labs-2020/user/ulib.c:40 (discriminator 3)
     bee:	0000                	unimp
     bf0:	050e                	slli	a0,a0,0x3
/home/one/xv6-labs-2020/user/ulib.c:44
     bf2:	0000                	unimp
     bf4:	0000                	unimp
     bf6:	0000                	unimp
strchr():
/home/one/xv6-labs-2020/user/ulib.c:48
     bf8:	0001                	nop
     bfa:	0e59                	addi	t3,t3,22
     bfc:	0005                	c.nop	1
/home/one/xv6-labs-2020/user/ulib.c:49
     bfe:	0000                	unimp
     c00:	0000                	unimp
     c02:	1400                	addi	s0,sp,544
/home/one/xv6-labs-2020/user/ulib.c:50
     c04:	0005                	c.nop	1
     c06:	0000                	unimp
/home/one/xv6-labs-2020/user/ulib.c:49
     c08:	0000                	unimp
     c0a:	0300                	addi	s0,sp,384
     c0c:	7d00                	ld	s0,56(a0)
     c0e:	9f01                	subw	a4,a4,s0
/home/one/xv6-labs-2020/user/ulib.c:50
     c10:	0514                	addi	a3,sp,640
     c12:	0000                	unimp
     c14:	0000                	unimp
/home/one/xv6-labs-2020/user/ulib.c:52
     c16:	0000                	unimp
/home/one/xv6-labs-2020/user/ulib.c:53
     c18:	0520                	addi	s0,sp,648
     c1a:	0000                	unimp
     c1c:	0000                	unimp
/home/one/xv6-labs-2020/user/ulib.c:52
     c1e:	0000                	unimp
     c20:	0001                	nop
gets():
/home/one/xv6-labs-2020/user/ulib.c:57
     c22:	0059                	c.nop	22
	...
     c30:	0000                	unimp
     c32:	2c00                	fld	fs0,24(s0)
     c34:	0004                	0x4
     c36:	0000                	unimp
     c38:	0000                	unimp
     c3a:	4200                	lw	s0,0(a2)
/home/one/xv6-labs-2020/user/ulib.c:61
     c3c:	0004                	0x4
     c3e:	0000                	unimp
/home/one/xv6-labs-2020/user/ulib.c:66
     c40:	0000                	unimp
     c42:	0100                	addi	s0,sp,128
/home/one/xv6-labs-2020/user/ulib.c:61 (discriminator 1)
     c44:	6500                	ld	s0,8(a0)
     c46:	0482                	c.slli64	s1
     c48:	0000                	unimp
     c4a:	0000                	unimp
/home/one/xv6-labs-2020/user/ulib.c:62
     c4c:	0000                	unimp
     c4e:	049a                	slli	s1,s1,0x6
     c50:	0000                	unimp
     c52:	0000                	unimp
     c54:	0000                	unimp
     c56:	0001                	nop
     c58:	9a65                	andi	a2,a2,-7
     c5a:	0004                	0x4
/home/one/xv6-labs-2020/user/ulib.c:63
     c5c:	0000                	unimp
     c5e:	0000                	unimp
/home/one/xv6-labs-2020/user/ulib.c:65
     c60:	9e00                	0x9e00
     c62:	0004                	0x4
     c64:	0000                	unimp
     c66:	0000                	unimp
/home/one/xv6-labs-2020/user/ulib.c:66
     c68:	0800                	addi	s0,sp,16
     c6a:	7900                	ld	s0,48(a0)
     c6c:	9400                	0x9400
/home/one/xv6-labs-2020/user/ulib.c:61 (discriminator 1)
     c6e:	0801                	addi	a6,a6,0
/home/one/xv6-labs-2020/user/ulib.c:66 (discriminator 1)
     c70:	1aff                	0x1aff
     c72:	c49f 0004 0000      	0x4c49f
/home/one/xv6-labs-2020/user/ulib.c:69
     c78:	0000                	unimp
     c7a:	ce00                	sw	s0,24(a2)
     c7c:	0004                	0x4
/home/one/xv6-labs-2020/user/ulib.c:71
     c7e:	0000                	unimp
     c80:	0000                	unimp
     c82:	0300                	addi	s0,sp,384
     c84:	0800                	addi	s0,sp,16
     c86:	9f61                	0x9f61
     c88:	04ce                	slli	s1,s1,0x13
     c8a:	0000                	unimp
     c8c:	0000                	unimp
     c8e:	0000                	unimp
     c90:	0508                	addi	a0,sp,640
     c92:	0000                	unimp
     c94:	0000                	unimp
stat():
/home/one/xv6-labs-2020/user/ulib.c:75
     c96:	0000                	unimp
     c98:	0001                	nop
     c9a:	0865                	addi	a6,a6,25
     c9c:	0005                	c.nop	1
     c9e:	0000                	unimp
     ca0:	0000                	unimp
     ca2:	0e00                	addi	s0,sp,784
/home/one/xv6-labs-2020/user/ulib.c:79
     ca4:	0005                	c.nop	1
     ca6:	0000                	unimp
     ca8:	0000                	unimp
     caa:	0800                	addi	s0,sp,16
     cac:	7900                	ld	s0,48(a0)
/home/one/xv6-labs-2020/user/ulib.c:80
     cae:	947e                	add	s0,s0,t6
     cb0:	0801                	addi	a6,a6,0
     cb2:	1aff                	0x1aff
/home/one/xv6-labs-2020/user/ulib.c:82
     cb4:	0e9f 0005 0000      	0x50e9f
     cba:	0000                	unimp
     cbc:	1400                	addi	s0,sp,544
     cbe:	0005                	c.nop	1
/home/one/xv6-labs-2020/user/ulib.c:83
     cc0:	0000                	unimp
     cc2:	0000                	unimp
     cc4:	0800                	addi	s0,sp,16
     cc6:	7d00                	ld	s0,56(a0)
     cc8:	947f                	0x947f
/home/one/xv6-labs-2020/user/ulib.c:85
     cca:	0801                	addi	a6,a6,0
     ccc:	1aff                	0x1aff
     cce:	009f 0000 0000      	0x9f
	...
atoi():
/home/one/xv6-labs-2020/user/ulib.c:89
     cdc:	0000                	unimp
     cde:	a000                	fsd	fs0,0(s0)
     ce0:	00000003          	lb	zero,0(zero) # 0 <getcmd>
/home/one/xv6-labs-2020/user/ulib.c:93
     ce4:	0000                	unimp
     ce6:	b000                	fsd	fs0,32(s0)
     ce8:	00000003          	lb	zero,0(zero) # 0 <getcmd>
     cec:	0000                	unimp
     cee:	0100                	addi	s0,sp,128
     cf0:	5a00                	lw	s0,48(a2)
     cf2:	03b0                	addi	a2,sp,456
     cf4:	0000                	unimp
/home/one/xv6-labs-2020/user/ulib.c:92
     cf6:	0000                	unimp
/home/one/xv6-labs-2020/user/ulib.c:93
     cf8:	0000                	unimp
/home/one/xv6-labs-2020/user/ulib.c:94
     cfa:	03d8                	addi	a4,sp,452
     cfc:	0000                	unimp
     cfe:	0000                	unimp
     d00:	0000                	unimp
     d02:	0001                	nop
     d04:	d862                	sw	s8,48(sp)
     d06:	00000003          	lb	zero,0(zero) # 0 <getcmd>
     d0a:	0000                	unimp
/home/one/xv6-labs-2020/user/ulib.c:93
     d0c:	dc00                	sw	s0,56(s0)
     d0e:	00000003          	lb	zero,0(zero) # 0 <getcmd>
     d12:	0000                	unimp
     d14:	0200                	addi	s0,sp,256
     d16:	7a00                	ld	s0,48(a2)
     d18:	0008                	0x8
	...
memmove():
/home/one/xv6-labs-2020/user/ulib.c:100
     d26:	0000                	unimp
     d28:	ba00                	fsd	fs0,48(a2)
     d2a:	00000003          	lb	zero,0(zero) # 0 <getcmd>
/home/one/xv6-labs-2020/user/ulib.c:106
     d2e:	0000                	unimp
/home/one/xv6-labs-2020/user/ulib.c:107
     d30:	d600                	sw	s0,40(a2)
     d32:	00000003          	lb	zero,0(zero) # 0 <getcmd>
     d36:	0000                	unimp
     d38:	0100                	addi	s0,sp,128
     d3a:	5900                	lw	s0,48(a0)
     d3c:	03d6                	slli	t2,t2,0x15
     d3e:	0000                	unimp
/home/one/xv6-labs-2020/user/ulib.c:104
     d40:	0000                	unimp
/home/one/xv6-labs-2020/user/ulib.c:108
     d42:	0000                	unimp
     d44:	03dc                	addi	a5,sp,452
     d46:	0000                	unimp
     d48:	0000                	unimp
     d4a:	0000                	unimp
     d4c:	0001                	nop
/home/one/xv6-labs-2020/user/ulib.c:107
     d4e:	005a                	c.slli	zero,0x16
	...
/home/one/xv6-labs-2020/user/ulib.c:111
     d5c:	0000                	unimp
/home/one/xv6-labs-2020/user/ulib.c:112
     d5e:	5a00                	lw	s0,48(a2)
     d60:	00000003          	lb	zero,0(zero) # 0 <getcmd>
     d64:	0000                	unimp
     d66:	6e00                	ld	s0,24(a2)
     d68:	00000003          	lb	zero,0(zero) # 0 <getcmd>
     d6c:	0000                	unimp
     d6e:	0100                	addi	s0,sp,128
/home/one/xv6-labs-2020/user/ulib.c:113
     d70:	5a00                	lw	s0,48(a2)
     d72:	036e                	slli	t1,t1,0x1b
     d74:	0000                	unimp
     d76:	0000                	unimp
     d78:	0000                	unimp
     d7a:	039c                	addi	a5,sp,448
/home/one/xv6-labs-2020/user/ulib.c:112
     d7c:	0000                	unimp
     d7e:	0000                	unimp
     d80:	0000                	unimp
memcmp():
/home/one/xv6-labs-2020/user/ulib.c:120
     d82:	0001                	nop
     d84:	00039c63          	bnez	t2,d9c <memcmp+0x1a>
/home/one/xv6-labs-2020/user/ulib.c:122
     d88:	0000                	unimp
     d8a:	0000                	unimp
     d8c:	a000                	fsd	fs0,0(s0)
/home/one/xv6-labs-2020/user/ulib.c:123
     d8e:	00000003          	lb	zero,0(zero) # 0 <getcmd>
     d92:	0000                	unimp
     d94:	0200                	addi	s0,sp,256
     d96:	7a00                	ld	s0,48(a2)
     d98:	0008                	0x8
	...
/home/one/xv6-labs-2020/user/ulib.c:122
     da6:	0000                	unimp
     da8:	5a00                	lw	s0,48(a2)
/home/one/xv6-labs-2020/user/ulib.c:123
     daa:	00000003          	lb	zero,0(zero) # 0 <getcmd>
     dae:	0000                	unimp
     db0:	7500                	ld	s0,40(a0)
     db2:	00000003          	lb	zero,0(zero) # 0 <getcmd>
/home/one/xv6-labs-2020/user/ulib.c:124
     db6:	0000                	unimp
     db8:	0100                	addi	s0,sp,128
/home/one/xv6-labs-2020/user/ulib.c:130
     dba:	5b00                	lw	s0,48(a4)
     dbc:	0375                	addi	t1,t1,29
     dbe:	0000                	unimp
/home/one/xv6-labs-2020/user/ulib.c:129
     dc0:	0000                	unimp
     dc2:	0000                	unimp
     dc4:	039a                	slli	t2,t2,0x6
     dc6:	0000                	unimp
memcpy():
/home/one/xv6-labs-2020/user/ulib.c:134
     dc8:	0000                	unimp
     dca:	0000                	unimp
     dcc:	0001                	nop
     dce:	9a62                	add	s4,s4,s8
/home/one/xv6-labs-2020/user/ulib.c:135
     dd0:	00000003          	lb	zero,0(zero) # 0 <getcmd>
     dd4:	0000                	unimp
     dd6:	a000                	fsd	fs0,0(s0)
/home/one/xv6-labs-2020/user/ulib.c:136
     dd8:	00000003          	lb	zero,0(zero) # 0 <getcmd>
     ddc:	0000                	unimp
     dde:	0200                	addi	s0,sp,256
/home/one/xv6-labs-2020/user/usys.S:5
     de0:	7a00                	ld	s0,48(a2)
/home/one/xv6-labs-2020/user/usys.S:6
     de2:	0010                	0x10
	...
/home/one/xv6-labs-2020/user/usys.S:15
     df0:	0000                	unimp
/home/one/xv6-labs-2020/user/usys.S:16
     df2:	7800                	ld	s0,48(s0)
     df4:	00000003          	lb	zero,0(zero) # 0 <getcmd>
/home/one/xv6-labs-2020/user/usys.S:20
     df8:	0000                	unimp
/home/one/xv6-labs-2020/user/usys.S:21
     dfa:	9800                	0x9800
     dfc:	00000003          	lb	zero,0(zero) # 0 <getcmd>
/home/one/xv6-labs-2020/user/usys.S:25
     e00:	0000                	unimp
/home/one/xv6-labs-2020/user/usys.S:26
     e02:	0100                	addi	s0,sp,128
     e04:	5900                	lw	s0,48(a0)
/home/one/xv6-labs-2020/user/usys.S:27
     e06:	0398                	addi	a4,sp,448
/home/one/xv6-labs-2020/user/usys.S:30
     e08:	0000                	unimp
/home/one/xv6-labs-2020/user/usys.S:31
     e0a:	0000                	unimp
     e0c:	0000                	unimp
/home/one/xv6-labs-2020/user/usys.S:32
     e0e:	03a0                	addi	s0,sp,456
/home/one/xv6-labs-2020/user/usys.S:35
     e10:	0000                	unimp
/home/one/xv6-labs-2020/user/usys.S:36
     e12:	0000                	unimp
     e14:	0000                	unimp
/home/one/xv6-labs-2020/user/usys.S:37
     e16:	0001                	nop
/home/one/xv6-labs-2020/user/usys.S:40
     e18:	005a                	c.slli	zero,0x16
	...
/home/one/xv6-labs-2020/user/usys.S:47
     e26:	0000                	unimp
/home/one/xv6-labs-2020/user/usys.S:50
     e28:	1400                	addi	s0,sp,544
/home/one/xv6-labs-2020/user/usys.S:51
     e2a:	00000003          	lb	zero,0(zero) # 0 <getcmd>
/home/one/xv6-labs-2020/user/usys.S:52
     e2e:	0000                	unimp
/home/one/xv6-labs-2020/user/usys.S:55
     e30:	2800                	fld	fs0,16(s0)
/home/one/xv6-labs-2020/user/usys.S:56
     e32:	00000003          	lb	zero,0(zero) # 0 <getcmd>
/home/one/xv6-labs-2020/user/usys.S:57
     e36:	0000                	unimp
/home/one/xv6-labs-2020/user/usys.S:60
     e38:	0100                	addi	s0,sp,128
/home/one/xv6-labs-2020/user/usys.S:61
     e3a:	5a00                	lw	s0,48(a2)
     e3c:	0328                	addi	a0,sp,392
/home/one/xv6-labs-2020/user/usys.S:62
     e3e:	0000                	unimp
/home/one/xv6-labs-2020/user/usys.S:65
     e40:	0000                	unimp
/home/one/xv6-labs-2020/user/usys.S:66
     e42:	0000                	unimp
     e44:	0356                	slli	t1,t1,0x15
/home/one/xv6-labs-2020/user/usys.S:67
     e46:	0000                	unimp
/home/one/xv6-labs-2020/user/usys.S:70
     e48:	0000                	unimp
/home/one/xv6-labs-2020/user/usys.S:71
     e4a:	0000                	unimp
     e4c:	0001                	nop
/home/one/xv6-labs-2020/user/usys.S:72
     e4e:	00035663          	bgez	t1,e5a <chdir+0x2>
/home/one/xv6-labs-2020/user/usys.S:76
     e52:	0000                	unimp
     e54:	0000                	unimp
/home/one/xv6-labs-2020/user/usys.S:77
     e56:	5a00                	lw	s0,48(a2)
/home/one/xv6-labs-2020/user/usys.S:80
     e58:	00000003          	lb	zero,0(zero) # 0 <getcmd>
/home/one/xv6-labs-2020/user/usys.S:81
     e5c:	0000                	unimp
/home/one/xv6-labs-2020/user/usys.S:82
     e5e:	0200                	addi	s0,sp,256
/home/one/xv6-labs-2020/user/usys.S:85
     e60:	7a00                	ld	s0,48(a2)
/home/one/xv6-labs-2020/user/usys.S:86
     e62:	0008                	0x8
	...
/home/one/xv6-labs-2020/user/usys.S:95
     e70:	0000                	unimp
/home/one/xv6-labs-2020/user/usys.S:96
     e72:	1400                	addi	s0,sp,544
     e74:	00000003          	lb	zero,0(zero) # 0 <getcmd>
/home/one/xv6-labs-2020/user/usys.S:100
     e78:	0000                	unimp
/home/one/xv6-labs-2020/user/usys.S:101
     e7a:	2f00                	fld	fs0,24(a4)
     e7c:	00000003          	lb	zero,0(zero) # 0 <getcmd>
/home/one/xv6-labs-2020/user/usys.S:105
     e80:	0000                	unimp
/home/one/xv6-labs-2020/user/usys.S:106
     e82:	0100                	addi	s0,sp,128
     e84:	5b00                	lw	s0,48(a4)
/home/one/xv6-labs-2020/user/usys.S:107
     e86:	0000032f          	0x32f
putc():
/home/one/xv6-labs-2020/user/printf.c:11
     e8a:	0000                	unimp
     e8c:	0000                	unimp
     e8e:	0354                	addi	a3,sp,388
     e90:	0000                	unimp
     e92:	0000                	unimp
/home/one/xv6-labs-2020/user/printf.c:12
     e94:	0000                	unimp
     e96:	0001                	nop
     e98:	5462                	lw	s0,56(sp)
     e9a:	00000003          	lb	zero,0(zero) # 0 <getcmd>
     e9e:	0000                	unimp
     ea0:	5a00                	lw	s0,48(a2)
/home/one/xv6-labs-2020/user/printf.c:13
     ea2:	00000003          	lb	zero,0(zero) # 0 <getcmd>
     ea6:	0000                	unimp
     ea8:	0200                	addi	s0,sp,256
printint():
/home/one/xv6-labs-2020/user/printf.c:17
     eaa:	7a00                	ld	s0,48(a2)
     eac:	0010                	0x10
	...
/home/one/xv6-labs-2020/user/printf.c:23 (discriminator 1)
     eba:	0000                	unimp
     ebc:	3200                	fld	fs0,32(a2)
/home/one/xv6-labs-2020/user/printf.c:27
     ebe:	00000003          	lb	zero,0(zero) # 0 <getcmd>
/home/one/xv6-labs-2020/user/printf.c:22
     ec2:	0000                	unimp
     ec4:	5200                	lw	s0,32(a2)
/home/one/xv6-labs-2020/user/printf.c:30
     ec6:	00000003          	lb	zero,0(zero) # 0 <getcmd>
/home/one/xv6-labs-2020/user/printf.c:32
     eca:	0000                	unimp
     ecc:	0100                	addi	s0,sp,128
     ece:	5900                	lw	s0,48(a0)
     ed0:	0352                	slli	t1,t1,0x14
     ed2:	0000                	unimp
/home/one/xv6-labs-2020/user/printf.c:25
     ed4:	0000                	unimp
     ed6:	0000                	unimp
/home/one/xv6-labs-2020/user/printf.c:24
     ed8:	035a                	slli	t1,t1,0x16
/home/one/xv6-labs-2020/user/printf.c:25
     eda:	0000                	unimp
/home/one/xv6-labs-2020/user/printf.c:33
     edc:	0000                	unimp
/home/one/xv6-labs-2020/user/printf.c:32
     ede:	0000                	unimp
/home/one/xv6-labs-2020/user/printf.c:32 (discriminator 1)
     ee0:	0001                	nop
     ee2:	005a                	c.slli	zero,0x16
	...
     ef0:	0000                	unimp
     ef2:	ac00                	fsd	fs0,24(s0)
     ef4:	0002                	c.slli64	zero
     ef6:	0000                	unimp
/home/one/xv6-labs-2020/user/printf.c:33 (discriminator 1)
     ef8:	0000                	unimp
     efa:	ce00                	sw	s0,24(a2)
     efc:	0002                	c.slli64	zero
     efe:	0000                	unimp
/home/one/xv6-labs-2020/user/printf.c:34
     f00:	0000                	unimp
     f02:	0100                	addi	s0,sp,128
/home/one/xv6-labs-2020/user/printf.c:35
     f04:	5a00                	lw	s0,48(a2)
     f06:	02ce                	slli	t0,t0,0x13
     f08:	0000                	unimp
     f0a:	0000                	unimp
     f0c:	0000                	unimp
     f0e:	0310                	addi	a2,sp,384
     f10:	0000                	unimp
     f12:	0000                	unimp
     f14:	0000                	unimp
/home/one/xv6-labs-2020/user/printf.c:37
     f16:	0001                	nop
     f18:	1066                	c.slli	zero,0x39
     f1a:	00000003          	lb	zero,0(zero) # 0 <getcmd>
     f1e:	0000                	unimp
     f20:	1400                	addi	s0,sp,544
     f22:	00000003          	lb	zero,0(zero) # 0 <getcmd>
     f26:	0000                	unimp
     f28:	0200                	addi	s0,sp,256
     f2a:	7a00                	ld	s0,48(a2)
     f2c:	0008                	0x8
	...
/home/one/xv6-labs-2020/user/printf.c:38
     f3a:	0000                	unimp
     f3c:	ac00                	fsd	fs0,24(s0)
     f3e:	0002                	c.slli64	zero
     f40:	0000                	unimp
     f42:	0000                	unimp
/home/one/xv6-labs-2020/user/printf.c:37
     f44:	d500                	sw	s0,40(a0)
     f46:	0002                	c.slli64	zero
/home/one/xv6-labs-2020/user/printf.c:39
     f48:	0000                	unimp
     f4a:	0000                	unimp
     f4c:	0100                	addi	s0,sp,128
     f4e:	5b00                	lw	s0,48(a4)
     f50:	02d5                	addi	t0,t0,21
     f52:	0000                	unimp
     f54:	0000                	unimp
vprintf():
/home/one/xv6-labs-2020/user/printf.c:53
     f56:	0000                	unimp
     f58:	030e                	slli	t1,t1,0x3
     f5a:	0000                	unimp
     f5c:	0000                	unimp
     f5e:	0000                	unimp
     f60:	0001                	nop
     f62:	0e65                	addi	t3,t3,25
     f64:	00000003          	lb	zero,0(zero) # 0 <getcmd>
     f68:	0000                	unimp
     f6a:	1400                	addi	s0,sp,544
     f6c:	00000003          	lb	zero,0(zero) # 0 <getcmd>
     f70:	0000                	unimp
     f72:	0200                	addi	s0,sp,256
/home/one/xv6-labs-2020/user/printf.c:58
     f74:	7a00                	ld	s0,48(a2)
     f76:	0010                	0x10
	...
/home/one/xv6-labs-2020/user/printf.c:57
     f84:	0000                	unimp
/home/one/xv6-labs-2020/user/printf.c:66
     f86:	ac00                	fsd	fs0,24(s0)
     f88:	0002                	c.slli64	zero
/home/one/xv6-labs-2020/user/printf.c:67
     f8a:	0000                	unimp
     f8c:	0000                	unimp
/home/one/xv6-labs-2020/user/printf.c:69
     f8e:	d500                	sw	s0,40(a0)
     f90:	0002                	c.slli64	zero
/home/one/xv6-labs-2020/user/printf.c:71
     f92:	0000                	unimp
     f94:	0000                	unimp
/home/one/xv6-labs-2020/user/printf.c:73
     f96:	0100                	addi	s0,sp,128
     f98:	5c00                	lw	s0,56(s0)
printptr():
/home/one/xv6-labs-2020/user/printf.c:47
     f9a:	02d5                	addi	t0,t0,21
     f9c:	0000                	unimp
     f9e:	0000                	unimp
     fa0:	0000                	unimp
     fa2:	030c                	addi	a1,sp,384
vprintf():
/home/one/xv6-labs-2020/user/printf.c:64
     fa4:	0000                	unimp
     fa6:	0000                	unimp
     fa8:	0000                	unimp
     faa:	0001                	nop
     fac:	0c64                	addi	s1,sp,540
     fae:	00000003          	lb	zero,0(zero) # 0 <getcmd>
/home/one/xv6-labs-2020/user/printf.c:66
     fb2:	0000                	unimp
     fb4:	1400                	addi	s0,sp,544
     fb6:	00000003          	lb	zero,0(zero) # 0 <getcmd>
/home/one/xv6-labs-2020/user/printf.c:58 (discriminator 2)
     fba:	0000                	unimp
     fbc:	0200                	addi	s0,sp,256
     fbe:	7a00                	ld	s0,48(a2)
/home/one/xv6-labs-2020/user/printf.c:59
     fc0:	0018                	0x18
	...
/home/one/xv6-labs-2020/user/printf.c:62
     fce:	0000                	unimp
/home/one/xv6-labs-2020/user/printf.c:67
     fd0:	ac00                	fsd	fs0,24(s0)
     fd2:	0002                	c.slli64	zero
/home/one/xv6-labs-2020/user/printf.c:69
     fd4:	0000                	unimp
     fd6:	0000                	unimp
/home/one/xv6-labs-2020/user/printf.c:71
     fd8:	d500                	sw	s0,40(a0)
     fda:	0002                	c.slli64	zero
/home/one/xv6-labs-2020/user/printf.c:73
     fdc:	0000                	unimp
     fde:	0000                	unimp
/home/one/xv6-labs-2020/user/printf.c:75
     fe0:	0100                	addi	s0,sp,128
     fe2:	5d00                	lw	s0,56(a0)
     fe4:	02d5                	addi	t0,t0,21
     fe6:	0000                	unimp
/home/one/xv6-labs-2020/user/printf.c:83
     fe8:	0000                	unimp
     fea:	0000                	unimp
     fec:	0314                	addi	a3,sp,384
     fee:	0000                	unimp
/home/one/xv6-labs-2020/user/printf.c:85
     ff0:	0000                	unimp
     ff2:	0000                	unimp
/home/one/xv6-labs-2020/user/printf.c:89
     ff4:	0004                	0x4
     ff6:	9f5d01f3          	0x9f5d01f3
	...
/home/one/xv6-labs-2020/user/printf.c:90
    100a:	02ac                	addi	a1,sp,328
/home/one/xv6-labs-2020/user/printf.c:92
    100c:	0000                	unimp
    100e:	0000                	unimp
/home/one/xv6-labs-2020/user/printf.c:68
    1010:	0000                	unimp
    1012:	02d5                	addi	t0,t0,21
    1014:	0000                	unimp
    1016:	0000                	unimp
    1018:	0000                	unimp
    101a:	0001                	nop
    101c:	d55e                	sw	s7,168(sp)
    101e:	0002                	c.slli64	zero
    1020:	0000                	unimp
    1022:	0000                	unimp
    1024:	1400                	addi	s0,sp,544
    1026:	00000003          	lb	zero,0(zero) # 0 <getcmd>
/home/one/xv6-labs-2020/user/printf.c:92
    102a:	0000                	unimp
/home/one/xv6-labs-2020/user/printf.c:70
    102c:	0400                	addi	s0,sp,512
    102e:	f300                	sd	s0,32(a4)
    1030:	5e01                	li	t3,-32
    1032:	009f 0000 0000      	0x9f
	...
    1040:	0000                	unimp
    1042:	d800                	sw	s0,48(s0)
/home/one/xv6-labs-2020/user/printf.c:92
    1044:	0002                	c.slli64	zero
    1046:	0000                	unimp
/home/one/xv6-labs-2020/user/printf.c:72
    1048:	0000                	unimp
    104a:	0600                	addi	s0,sp,768
    104c:	00000003          	lb	zero,0(zero) # 0 <getcmd>
    1050:	0000                	unimp
    1052:	0100                	addi	s0,sp,128
    1054:	5900                	lw	s0,48(a0)
    1056:	0306                	slli	t1,t1,0x1
    1058:	0000                	unimp
    105a:	0000                	unimp
    105c:	0000                	unimp
    105e:	0314                	addi	a3,sp,384
/home/one/xv6-labs-2020/user/printf.c:92
    1060:	0000                	unimp
    1062:	0000                	unimp
/home/one/xv6-labs-2020/user/printf.c:74
    1064:	0000                	unimp
    1066:	0001                	nop
    1068:	005a                	c.slli	zero,0x16
	...
printptr():
/home/one/xv6-labs-2020/user/printf.c:44
    1076:	0000                	unimp
    1078:	8e00                	0x8e00
    107a:	0002                	c.slli64	zero
    107c:	0000                	unimp
/home/one/xv6-labs-2020/user/printf.c:45
    107e:	0000                	unimp
    1080:	a800                	fsd	fs0,16(s0)
    1082:	0002                	c.slli64	zero
    1084:	0000                	unimp
    1086:	0000                	unimp
    1088:	0100                	addi	s0,sp,128
    108a:	5900                	lw	s0,48(a0)
/home/one/xv6-labs-2020/user/printf.c:47
    108c:	02a8                	addi	a0,sp,328
    108e:	0000                	unimp
    1090:	0000                	unimp
    1092:	0000                	unimp
    1094:	02ac                	addi	a1,sp,328
    1096:	0000                	unimp
    1098:	0000                	unimp
    109a:	0000                	unimp
    109c:	0001                	nop
    109e:	005a                	c.slli	zero,0x16
	...
vprintf():
/home/one/xv6-labs-2020/user/printf.c:92
    10ac:	0000                	unimp
/home/one/xv6-labs-2020/user/printf.c:76
    10ae:	8a00                	0x8a00
    10b0:	0000                	unimp
    10b2:	0000                	unimp
    10b4:	0000                	unimp
/home/one/xv6-labs-2020/user/printf.c:77
    10b6:	a000                	fsd	fs0,0(s0)
/home/one/xv6-labs-2020/user/printf.c:79
    10b8:	0000                	unimp
    10ba:	0000                	unimp
    10bc:	0000                	unimp
/home/one/xv6-labs-2020/user/printf.c:80
    10be:	0100                	addi	s0,sp,128
    10c0:	5a00                	lw	s0,48(a2)
	...
/home/one/xv6-labs-2020/user/printf.c:92
    10d2:	0054                	addi	a3,sp,4
    10d4:	0000                	unimp
/home/one/xv6-labs-2020/user/printf.c:78
    10d6:	0000                	unimp
    10d8:	0000                	unimp
    10da:	0068                	addi	a0,sp,12
    10dc:	0000                	unimp
/home/one/xv6-labs-2020/user/printf.c:79
    10de:	0000                	unimp
    10e0:	0000                	unimp
    10e2:	0001                	nop
/home/one/xv6-labs-2020/user/printf.c:84
    10e4:	685a                	ld	a6,400(sp)
    10e6:	0000                	unimp
    10e8:	0000                	unimp
    10ea:	0000                	unimp
    10ec:	6f00                	ld	s0,24(a4)
    10ee:	0000                	unimp
    10f0:	0000                	unimp
    10f2:	0000                	unimp
    10f4:	0100                	addi	s0,sp,128
    10f6:	5c00                	lw	s0,56(s0)
/home/one/xv6-labs-2020/user/printf.c:92
    10f8:	0000006f          	j	10f8 <vprintf+0x1a2>
/home/one/xv6-labs-2020/user/printf.c:86
    10fc:	0000                	unimp
    10fe:	0000                	unimp
    1100:	007a                	c.slli	zero,0x1e
    1102:	0000                	unimp
    1104:	0000                	unimp
    1106:	0000                	unimp
/home/one/xv6-labs-2020/user/printf.c:92
    1108:	0004                	0x4
    110a:	9f5a01f3          	0x9f5a01f3
	...
/home/one/xv6-labs-2020/user/printf.c:95
    111e:	0a8a                	slli	s5,s5,0x2
    1120:	0000                	unimp
    1122:	0000                	unimp
    1124:	0000                	unimp
    1126:	00000a9b          	sext.w	s5,zero
    112a:	0000                	unimp
    112c:	0000                	unimp
    112e:	0001                	nop
fprintf():
/home/one/xv6-labs-2020/user/printf.c:99
    1130:	005a                	c.slli	zero,0x16
	...
    1146:	0000                	unimp
/home/one/xv6-labs-2020/user/printf.c:102
    1148:	1a00                	addi	s0,sp,304
    114a:	0000                	unimp
/home/one/xv6-labs-2020/user/printf.c:103
    114c:	0000                	unimp
    114e:	0000                	unimp
    1150:	0100                	addi	s0,sp,128
    1152:	5a00                	lw	s0,48(a2)
    1154:	001a                	c.slli	zero,0x6
/home/one/xv6-labs-2020/user/printf.c:104
    1156:	0000                	unimp
    1158:	0000                	unimp
    115a:	0000                	unimp
    115c:	004e                	c.slli	zero,0x13
printf():
/home/one/xv6-labs-2020/user/printf.c:108
    115e:	0000                	unimp
    1160:	0000                	unimp
    1162:	0000                	unimp
    1164:	0001                	nop
    1166:	4e59                	li	t3,22
    1168:	0000                	unimp
    116a:	0000                	unimp
    116c:	0000                	unimp
    116e:	5400                	lw	s0,40(s0)
    1170:	0000                	unimp
    1172:	0000                	unimp
    1174:	0000                	unimp
    1176:	0400                	addi	s0,sp,512
/home/one/xv6-labs-2020/user/printf.c:111
    1178:	f300                	sd	s0,32(a4)
    117a:	5a01                	li	s4,-32
    117c:	009f 0000 0000      	0x9f
	...
/home/one/xv6-labs-2020/user/printf.c:113
    1192:	0000                	unimp
free():
/home/one/xv6-labs-2020/user/umalloc.c:26
    1194:	1800                	addi	s0,sp,48
    1196:	0000                	unimp
    1198:	0000                	unimp
/home/one/xv6-labs-2020/user/umalloc.c:29
    119a:	0000                	unimp
    119c:	0100                	addi	s0,sp,128
/home/one/xv6-labs-2020/user/umalloc.c:30
    119e:	5b00                	lw	s0,48(a4)
    11a0:	0018                	0x18
    11a2:	0000                	unimp
    11a4:	0000                	unimp
    11a6:	0000                	unimp
    11a8:	0054                	addi	a3,sp,4
/home/one/xv6-labs-2020/user/umalloc.c:34
    11aa:	0000                	unimp
    11ac:	0000                	unimp
    11ae:	0000                	unimp
    11b0:	0004                	0x4
/home/one/xv6-labs-2020/user/umalloc.c:35
    11b2:	9f5b01f3          	0x9f5b01f3
	...
/home/one/xv6-labs-2020/user/umalloc.c:40
    11c6:	00a8                	addi	a0,sp,72
    11c8:	0000                	unimp
    11ca:	0000                	unimp
/home/one/xv6-labs-2020/user/umalloc.c:31
    11cc:	0000                	unimp
    11ce:	00d6                	slli	ra,ra,0x15
    11d0:	0000                	unimp
/home/one/xv6-labs-2020/user/umalloc.c:31 (discriminator 2)
    11d2:	0000                	unimp
    11d4:	0000                	unimp
/home/one/xv6-labs-2020/user/umalloc.c:26 (discriminator 1)
    11d6:	0001                	nop
/home/one/xv6-labs-2020/user/umalloc.c:30 (discriminator 1)
    11d8:	d65a                	sw	s6,44(sp)
    11da:	0000                	unimp
/home/one/xv6-labs-2020/user/umalloc.c:30 (discriminator 3)
    11dc:	0000                	unimp
    11de:	0000                	unimp
    11e0:	de00                	sw	s0,56(a2)
/home/one/xv6-labs-2020/user/umalloc.c:31
    11e2:	0000                	unimp
    11e4:	0000                	unimp
/home/one/xv6-labs-2020/user/umalloc.c:33
    11e6:	0000                	unimp
    11e8:	0400                	addi	s0,sp,512
    11ea:	f300                	sd	s0,32(a4)
    11ec:	5a01                	li	s4,-32
    11ee:	de9f 0000 0000      	0xde9f
    11f4:	0000                	unimp
    11f6:	7600                	ld	s0,40(a2)
    11f8:	0002                	c.slli64	zero
/home/one/xv6-labs-2020/user/umalloc.c:37
    11fa:	0000                	unimp
    11fc:	0000                	unimp
/home/one/xv6-labs-2020/user/umalloc.c:38
    11fe:	0100                	addi	s0,sp,128
    1200:	5900                	lw	s0,48(a0)
	...
/home/one/xv6-labs-2020/user/umalloc.c:43
    1212:	00ee                	slli	ra,ra,0x1b
    1214:	0000                	unimp
    1216:	0000                	unimp
/home/one/xv6-labs-2020/user/umalloc.c:44
    1218:	0000                	unimp
    121a:	0112                	slli	sp,sp,0x4
    121c:	0000                	unimp
malloc():
/home/one/xv6-labs-2020/user/umalloc.c:65
    121e:	0000                	unimp
    1220:	0000                	unimp
    1222:	0001                	nop
    1224:	1c59                	addi	s8,s8,-10
    1226:	0001                	nop
    1228:	0000                	unimp
    122a:	0000                	unimp
    122c:	2600                	fld	fs0,8(a2)
    122e:	0001                	nop
    1230:	0000                	unimp
/home/one/xv6-labs-2020/user/umalloc.c:69
    1232:	0000                	unimp
    1234:	0100                	addi	s0,sp,128
    1236:	5900                	lw	s0,48(a0)
	...
/home/one/xv6-labs-2020/user/umalloc.c:70
    1248:	0168                	addi	a0,sp,140
    124a:	0000                	unimp
    124c:	0000                	unimp
    124e:	0000                	unimp
    1250:	0190                	addi	a2,sp,192
/home/one/xv6-labs-2020/user/umalloc.c:74
    1252:	0000                	unimp
/home/one/xv6-labs-2020/user/umalloc.c:75
    1254:	0000                	unimp
    1256:	0000                	unimp
    1258:	0001                	nop
    125a:	0059                	c.nop	22
	...
    1268:	0000                	unimp
    126a:	9000                	0x9000
morecore():
/home/one/xv6-labs-2020/user/umalloc.c:54
    126c:	0001                	nop
    126e:	0000                	unimp
malloc():
/home/one/xv6-labs-2020/user/umalloc.c:86
    1270:	0000                	unimp
    1272:	6000                	ld	s0,0(s0)
    1274:	0002                	c.slli64	zero
    1276:	0000                	unimp
morecore():
/home/one/xv6-labs-2020/user/umalloc.c:55
    1278:	0000                	unimp
    127a:	0100                	addi	s0,sp,128
malloc():
/home/one/xv6-labs-2020/user/umalloc.c:71
    127c:	5900                	lw	s0,48(a0)
	...
/home/one/xv6-labs-2020/user/umalloc.c:72
    128e:	0126                	slli	sp,sp,0x9
    1290:	0000                	unimp
/home/one/xv6-labs-2020/user/umalloc.c:75
    1292:	0000                	unimp
/home/one/xv6-labs-2020/user/umalloc.c:76
    1294:	0000                	unimp
    1296:	0168                	addi	a0,sp,140
/home/one/xv6-labs-2020/user/umalloc.c:79
    1298:	0000                	unimp
    129a:	0000                	unimp
    129c:	0000                	unimp
/home/one/xv6-labs-2020/user/umalloc.c:80
    129e:	0001                	nop
    12a0:	0059                	c.nop	22
	...
/home/one/xv6-labs-2020/user/umalloc.c:83
    12ae:	0000                	unimp
    12b0:	7000                	ld	s0,32(s0)
/home/one/xv6-labs-2020/user/umalloc.c:84
    12b2:	0002                	c.slli64	zero
    12b4:	0000                	unimp
/home/one/xv6-labs-2020/user/umalloc.c:90
    12b6:	0000                	unimp
    12b8:	7f00                	ld	s0,56(a4)
    12ba:	0002                	c.slli64	zero
    12bc:	0000                	unimp
    12be:	0000                	unimp
    12c0:	0100                	addi	s0,sp,128
    12c2:	5a00                	lw	s0,48(a2)
    12c4:	027f                	0x27f
    12c6:	0000                	unimp
    12c8:	0000                	unimp
/home/one/xv6-labs-2020/user/umalloc.c:77
    12ca:	0000                	unimp
    12cc:	0288                	addi	a0,sp,320
    12ce:	0000                	unimp
morecore():
/home/one/xv6-labs-2020/user/umalloc.c:58
    12d0:	0000                	unimp
    12d2:	0000                	unimp
/home/one/xv6-labs-2020/user/umalloc.c:59
    12d4:	0004                	0x4
    12d6:	9f5a01f3          	0x9f5a01f3
	...
malloc():
/home/one/xv6-labs-2020/user/umalloc.c:86
    12ea:	0270                	addi	a2,sp,268
    12ec:	0000                	unimp
    12ee:	0000                	unimp
    12f0:	0000                	unimp
morecore():
/home/one/xv6-labs-2020/user/umalloc.c:54
    12f2:	027f                	0x27f
    12f4:	0000                	unimp
    12f6:	0000                	unimp
    12f8:	0000                	unimp
    12fa:	0001                	nop
/home/one/xv6-labs-2020/user/umalloc.c:55
    12fc:	00027f5b          	0x27f5b
malloc():
/home/one/xv6-labs-2020/user/umalloc.c:88
    1300:	0000                	unimp
    1302:	0000                	unimp
    1304:	8800                	0x8800
    1306:	0002                	c.slli64	zero
    1308:	0000                	unimp
    130a:	0000                	unimp
    130c:	0400                	addi	s0,sp,512
    130e:	f300                	sd	s0,32(a4)
    1310:	5b01                	li	s6,-32
    1312:	009f 0000 0000      	0x9f
	...
    1320:	0000                	unimp
    1322:	7000                	ld	s0,32(s0)
    1324:	0002                	c.slli64	zero
    1326:	0000                	unimp
    1328:	0000                	unimp
    132a:	7f00                	ld	s0,56(a4)
    132c:	0002                	c.slli64	zero
    132e:	0000                	unimp
    1330:	0000                	unimp
    1332:	0100                	addi	s0,sp,128
    1334:	5c00                	lw	s0,56(s0)
    1336:	027f                	0x27f
    1338:	0000                	unimp
    133a:	0000                	unimp
    133c:	0000                	unimp
    133e:	0288                	addi	a0,sp,320
    1340:	0000                	unimp
    1342:	0000                	unimp
    1344:	0000                	unimp
    1346:	0004                	0x4
    1348:	9f5c01f3          	0x9f5c01f3
	...
    135c:	022a                	slli	tp,tp,0xa
    135e:	0000                	unimp
    1360:	0000                	unimp
    1362:	0000                	unimp
    1364:	024a                	slli	tp,tp,0x12
    1366:	0000                	unimp
    1368:	0000                	unimp
    136a:	0000                	unimp
    136c:	0001                	nop
    136e:	4a5a                	lw	s4,148(sp)
    1370:	0002                	c.slli64	zero
    1372:	0000                	unimp
    1374:	0000                	unimp
    1376:	6c00                	ld	s0,24(s0)
    1378:	0002                	c.slli64	zero
    137a:	0000                	unimp
    137c:	0000                	unimp
    137e:	0400                	addi	s0,sp,512
    1380:	f300                	sd	s0,32(a4)
    1382:	5a01                	li	s4,-32
    1384:	6c9f 0002 0000      	0x26c9f
    138a:	0000                	unimp
    138c:	6e00                	ld	s0,24(a2)
    138e:	0002                	c.slli64	zero
    1390:	0000                	unimp
    1392:	0000                	unimp
    1394:	0100                	addi	s0,sp,128
    1396:	5a00                	lw	s0,48(a2)
    1398:	026e                	slli	tp,tp,0x1b
    139a:	0000                	unimp
    139c:	0000                	unimp
    139e:	0000                	unimp
    13a0:	0270                	addi	a2,sp,268
    13a2:	0000                	unimp
    13a4:	0000                	unimp
    13a6:	0000                	unimp
    13a8:	0004                	0x4
    13aa:	9f5a01f3          	0x9f5a01f3
	...
    13be:	022a                	slli	tp,tp,0xa
    13c0:	0000                	unimp
    13c2:	0000                	unimp
    13c4:	0000                	unimp
    13c6:	024a                	slli	tp,tp,0x12
    13c8:	0000                	unimp
    13ca:	0000                	unimp
    13cc:	0000                	unimp
    13ce:	0001                	nop
    13d0:	00024a5b          	0x24a5b
    13d4:	0000                	unimp
    13d6:	0000                	unimp
    13d8:	6c00                	ld	s0,24(s0)
    13da:	0002                	c.slli64	zero
    13dc:	0000                	unimp
    13de:	0000                	unimp
    13e0:	0400                	addi	s0,sp,512
    13e2:	f300                	sd	s0,32(a4)
    13e4:	5b01                	li	s6,-32
    13e6:	6c9f 0002 0000      	0x26c9f
    13ec:	0000                	unimp
    13ee:	7000                	ld	s0,32(s0)
    13f0:	0002                	c.slli64	zero
    13f2:	0000                	unimp
    13f4:	0000                	unimp
    13f6:	0100                	addi	s0,sp,128
    13f8:	5b00                	lw	s0,48(a4)
	...
    140a:	022a                	slli	tp,tp,0xa
    140c:	0000                	unimp
    140e:	0000                	unimp
    1410:	0000                	unimp
    1412:	0230                	addi	a2,sp,264
    1414:	0000                	unimp
    1416:	0000                	unimp
    1418:	0000                	unimp
    141a:	0001                	nop
    141c:	305c                	fld	fa5,160(s0)
    141e:	0002                	c.slli64	zero
    1420:	0000                	unimp
    1422:	0000                	unimp
    1424:	3600                	fld	fs0,40(a2)
    1426:	0002                	c.slli64	zero
    1428:	0000                	unimp
    142a:	0000                	unimp
    142c:	0300                	addi	s0,sp,384
    142e:	7c00                	ld	s0,56(s0)
    1430:	9f7f                	0x9f7f
    1432:	0236                	slli	tp,tp,0xd
    1434:	0000                	unimp
    1436:	0000                	unimp
    1438:	0000                	unimp
    143a:	0244                	addi	s1,sp,260
    143c:	0000                	unimp
    143e:	0000                	unimp
    1440:	0000                	unimp
    1442:	0001                	nop
    1444:	445d                	li	s0,23
    1446:	0002                	c.slli64	zero
    1448:	0000                	unimp
    144a:	0000                	unimp
    144c:	5e00                	lw	s0,56(a2)
    144e:	0002                	c.slli64	zero
    1450:	0000                	unimp
    1452:	0000                	unimp
    1454:	0300                	addi	s0,sp,384
    1456:	7c00                	ld	s0,56(s0)
    1458:	9f7f                	0x9f7f
    145a:	0268                	addi	a0,sp,268
    145c:	0000                	unimp
    145e:	0000                	unimp
    1460:	0000                	unimp
    1462:	0270                	addi	a2,sp,268
    1464:	0000                	unimp
    1466:	0000                	unimp
    1468:	0000                	unimp
    146a:	7f7c0003          	lb	zero,2039(s8) # 107f7 <__global_pointer$+0xeb8f>
    146e:	009f 0000 0000      	0x9f
	...
    147c:	0000                	unimp
    147e:	3000                	fld	fs0,32(s0)
    1480:	0002                	c.slli64	zero
    1482:	0000                	unimp
    1484:	0000                	unimp
    1486:	6200                	ld	s0,0(a2)
    1488:	0002                	c.slli64	zero
    148a:	0000                	unimp
    148c:	0000                	unimp
    148e:	0100                	addi	s0,sp,128
    1490:	5a00                	lw	s0,48(a2)
    1492:	0268                	addi	a0,sp,268
    1494:	0000                	unimp
    1496:	0000                	unimp
    1498:	0000                	unimp
    149a:	026a                	slli	tp,tp,0x1a
    149c:	0000                	unimp
    149e:	0000                	unimp
    14a0:	0000                	unimp
    14a2:	0001                	nop
    14a4:	6c5a                	ld	s8,400(sp)
    14a6:	0002                	c.slli64	zero
    14a8:	0000                	unimp
    14aa:	0000                	unimp
    14ac:	6e00                	ld	s0,24(a2)
    14ae:	0002                	c.slli64	zero
    14b0:	0000                	unimp
    14b2:	0000                	unimp
    14b4:	0100                	addi	s0,sp,128
    14b6:	5a00                	lw	s0,48(a2)
    14b8:	026e                	slli	tp,tp,0x1b
    14ba:	0000                	unimp
    14bc:	0000                	unimp
    14be:	0000                	unimp
    14c0:	0270                	addi	a2,sp,268
    14c2:	0000                	unimp
    14c4:	0000                	unimp
    14c6:	0000                	unimp
    14c8:	0004                	0x4
    14ca:	9f5a01f3          	0x9f5a01f3
	...
    14de:	01ce                	slli	gp,gp,0x13
    14e0:	0000                	unimp
    14e2:	0000                	unimp
    14e4:	0000                	unimp
    14e6:	01ea                	slli	gp,gp,0x1a
    14e8:	0000                	unimp
    14ea:	0000                	unimp
    14ec:	0000                	unimp
    14ee:	0001                	nop
    14f0:	0001ea5b          	0x1ea5b
    14f4:	0000                	unimp
    14f6:	0000                	unimp
    14f8:	0000                	unimp
    14fa:	0002                	c.slli64	zero
    14fc:	0000                	unimp
    14fe:	0000                	unimp
    1500:	0400                	addi	s0,sp,512
    1502:	f300                	sd	s0,32(a4)
    1504:	5b01                	li	s6,-32
    1506:	009f 0002 0000      	0x2009f
    150c:	0000                	unimp
    150e:	0600                	addi	s0,sp,768
    1510:	0002                	c.slli64	zero
    1512:	0000                	unimp
    1514:	0000                	unimp
    1516:	0100                	addi	s0,sp,128
    1518:	5b00                	lw	s0,48(a4)
    151a:	0206                	slli	tp,tp,0x1
    151c:	0000                	unimp
    151e:	0000                	unimp
    1520:	0000                	unimp
    1522:	022a                	slli	tp,tp,0xa
    1524:	0000                	unimp
    1526:	0000                	unimp
    1528:	0000                	unimp
    152a:	0004                	0x4
    152c:	9f5b01f3          	0x9f5b01f3
	...
    1540:	01ce                	slli	gp,gp,0x13
    1542:	0000                	unimp
    1544:	0000                	unimp
    1546:	0000                	unimp
    1548:	01d8                	addi	a4,sp,196
    154a:	0000                	unimp
    154c:	0000                	unimp
    154e:	0000                	unimp
    1550:	0001                	nop
    1552:	d85c                	sw	a5,52(s0)
    1554:	0001                	nop
    1556:	0000                	unimp
    1558:	0000                	unimp
    155a:	fa00                	sd	s0,48(a2)
    155c:	0001                	nop
    155e:	0000                	unimp
    1560:	0000                	unimp
    1562:	0300                	addi	s0,sp,384
    1564:	7c00                	ld	s0,56(s0)
    1566:	9f7f                	0x9f7f
    1568:	0200                	addi	s0,sp,256
    156a:	0000                	unimp
    156c:	0000                	unimp
    156e:	0000                	unimp
    1570:	0206                	slli	tp,tp,0x1
    1572:	0000                	unimp
    1574:	0000                	unimp
    1576:	0000                	unimp
    1578:	0001                	nop
    157a:	065c                	addi	a5,sp,772
    157c:	0002                	c.slli64	zero
    157e:	0000                	unimp
    1580:	0000                	unimp
    1582:	2a00                	fld	fs0,16(a2)
    1584:	0002                	c.slli64	zero
    1586:	0000                	unimp
    1588:	0000                	unimp
    158a:	0300                	addi	s0,sp,384
    158c:	7c00                	ld	s0,56(s0)
    158e:	9f7f                	0x9f7f
	...
    15a0:	01d4                	addi	a3,sp,196
    15a2:	0000                	unimp
    15a4:	0000                	unimp
    15a6:	0000                	unimp
    15a8:	01ea                	slli	gp,gp,0x1a
    15aa:	0000                	unimp
    15ac:	0000                	unimp
    15ae:	0000                	unimp
    15b0:	0001                	nop
    15b2:	ea5a                	sd	s6,272(sp)
    15b4:	0001                	nop
    15b6:	0000                	unimp
    15b8:	0000                	unimp
    15ba:	fa00                	sd	s0,48(a2)
    15bc:	0001                	nop
    15be:	0000                	unimp
    15c0:	0000                	unimp
    15c2:	0100                	addi	s0,sp,128
    15c4:	5e00                	lw	s0,56(a2)
    15c6:	0200                	addi	s0,sp,256
    15c8:	0000                	unimp
    15ca:	0000                	unimp
    15cc:	0000                	unimp
    15ce:	0204                	addi	s1,sp,256
    15d0:	0000                	unimp
    15d2:	0000                	unimp
    15d4:	0000                	unimp
    15d6:	0001                	nop
    15d8:	045a                	slli	s0,s0,0x16
    15da:	0002                	c.slli64	zero
    15dc:	0000                	unimp
    15de:	0000                	unimp
    15e0:	2a00                	fld	fs0,16(a2)
    15e2:	0002                	c.slli64	zero
    15e4:	0000                	unimp
    15e6:	0000                	unimp
    15e8:	0100                	addi	s0,sp,128
    15ea:	5e00                	lw	s0,56(a2)
	...
    15fc:	0184                	addi	s1,sp,192
    15fe:	0000                	unimp
    1600:	0000                	unimp
    1602:	0000                	unimp
    1604:	01a0                	addi	s0,sp,200
    1606:	0000                	unimp
    1608:	0000                	unimp
    160a:	0000                	unimp
    160c:	0001                	nop
    160e:	a05a                	fsd	fs6,0(sp)
    1610:	0001                	nop
    1612:	0000                	unimp
    1614:	0000                	unimp
    1616:	c400                	sw	s0,8(s0)
    1618:	0001                	nop
    161a:	0000                	unimp
    161c:	0000                	unimp
    161e:	0100                	addi	s0,sp,128
    1620:	5c00                	lw	s0,56(s0)
    1622:	01ca                	slli	gp,gp,0x12
    1624:	0000                	unimp
    1626:	0000                	unimp
    1628:	0000                	unimp
    162a:	01cc                	addi	a1,sp,196
    162c:	0000                	unimp
    162e:	0000                	unimp
    1630:	0000                	unimp
    1632:	0001                	nop
    1634:	cc5a                	sw	s6,24(sp)
    1636:	0001                	nop
    1638:	0000                	unimp
    163a:	0000                	unimp
    163c:	ce00                	sw	s0,24(a2)
    163e:	0001                	nop
    1640:	0000                	unimp
    1642:	0000                	unimp
    1644:	0400                	addi	s0,sp,512
    1646:	f300                	sd	s0,32(a4)
    1648:	5a01                	li	s4,-32
    164a:	009f 0000 0000      	0x9f
	...
    1658:	0000                	unimp
    165a:	8a00                	0x8a00
    165c:	0001                	nop
    165e:	0000                	unimp
    1660:	0000                	unimp
    1662:	a200                	fsd	fs0,0(a2)
    1664:	0001                	nop
    1666:	0000                	unimp
    1668:	0000                	unimp
    166a:	0200                	addi	s0,sp,256
    166c:	3000                	fld	fs0,32(s0)
    166e:	a29f 0001 0000      	0x1a29f
    1674:	0000                	unimp
    1676:	b400                	fsd	fs0,40(s0)
    1678:	0001                	nop
    167a:	0000                	unimp
    167c:	0000                	unimp
    167e:	0100                	addi	s0,sp,128
    1680:	5a00                	lw	s0,48(a2)
    1682:	01b4                	addi	a3,sp,200
    1684:	0000                	unimp
    1686:	0000                	unimp
    1688:	0000                	unimp
    168a:	01c4                	addi	s1,sp,196
    168c:	0000                	unimp
    168e:	0000                	unimp
    1690:	0000                	unimp
    1692:	507f0003          	lb	zero,1287(t5) # b507 <__global_pointer$+0x989f>
    1696:	ca9f 0001 0000      	0x1ca9f
    169c:	0000                	unimp
    169e:	ce00                	sw	s0,24(a2)
    16a0:	0001                	nop
    16a2:	0000                	unimp
    16a4:	0000                	unimp
    16a6:	0200                	addi	s0,sp,256
    16a8:	3000                	fld	fs0,32(s0)
    16aa:	009f 0000 0000      	0x9f
	...
    16b8:	0000                	unimp
    16ba:	3e00                	fld	fs0,56(a2)
    16bc:	0001                	nop
    16be:	0000                	unimp
    16c0:	0000                	unimp
    16c2:	5500                	lw	s0,40(a0)
    16c4:	0001                	nop
    16c6:	0000                	unimp
    16c8:	0000                	unimp
    16ca:	0100                	addi	s0,sp,128
    16cc:	5a00                	lw	s0,48(a2)
    16ce:	0155                	addi	sp,sp,21
    16d0:	0000                	unimp
    16d2:	0000                	unimp
    16d4:	0000                	unimp
    16d6:	0184                	addi	s1,sp,192
    16d8:	0000                	unimp
    16da:	0000                	unimp
    16dc:	0000                	unimp
    16de:	0004                	0x4
    16e0:	9f5a01f3          	0x9f5a01f3
	...
    16f4:	013e                	slli	sp,sp,0xf
    16f6:	0000                	unimp
    16f8:	0000                	unimp
    16fa:	0000                	unimp
    16fc:	014e                	slli	sp,sp,0x13
    16fe:	0000                	unimp
    1700:	0000                	unimp
    1702:	0000                	unimp
    1704:	0001                	nop
    1706:	00014e5b          	0x14e5b
    170a:	0000                	unimp
    170c:	0000                	unimp
    170e:	6800                	ld	s0,16(s0)
    1710:	0001                	nop
    1712:	0000                	unimp
    1714:	0000                	unimp
    1716:	0100                	addi	s0,sp,128
    1718:	6200                	ld	s0,0(a2)
    171a:	0168                	addi	a0,sp,140
    171c:	0000                	unimp
    171e:	0000                	unimp
    1720:	0000                	unimp
    1722:	0180                	addi	s0,sp,192
    1724:	0000                	unimp
    1726:	0000                	unimp
    1728:	0000                	unimp
    172a:	0004                	0x4
    172c:	9f5b01f3          	0x9f5b01f3
    1730:	0180                	addi	s0,sp,192
    1732:	0000                	unimp
    1734:	0000                	unimp
    1736:	0000                	unimp
    1738:	0182                	c.slli64	gp
    173a:	0000                	unimp
    173c:	0000                	unimp
    173e:	0000                	unimp
    1740:	0001                	nop
    1742:	8262                	mv	tp,s8
    1744:	0001                	nop
    1746:	0000                	unimp
    1748:	0000                	unimp
    174a:	8400                	0x8400
    174c:	0001                	nop
    174e:	0000                	unimp
    1750:	0000                	unimp
    1752:	0400                	addi	s0,sp,512
    1754:	f300                	sd	s0,32(a4)
    1756:	5b01                	li	s6,-32
    1758:	009f 0000 0000      	0x9f
	...
    1766:	0000                	unimp
    1768:	5600                	lw	s0,40(a2)
    176a:	0001                	nop
    176c:	0000                	unimp
    176e:	0000                	unimp
    1770:	6500                	ld	s0,8(a0)
    1772:	0001                	nop
    1774:	0000                	unimp
    1776:	0000                	unimp
    1778:	0100                	addi	s0,sp,128
    177a:	5a00                	lw	s0,48(a2)
    177c:	0180                	addi	s0,sp,192
    177e:	0000                	unimp
    1780:	0000                	unimp
    1782:	0000                	unimp
    1784:	0184                	addi	s1,sp,192
    1786:	0000                	unimp
    1788:	0000                	unimp
    178a:	0000                	unimp
    178c:	0001                	nop
    178e:	005a                	c.slli	zero,0x16
	...
    179c:	0000                	unimp
    179e:	6800                	ld	s0,16(s0)
    17a0:	0001                	nop
    17a2:	0000                	unimp
    17a4:	0000                	unimp
    17a6:	7200                	ld	s0,32(a2)
    17a8:	0001                	nop
    17aa:	0000                	unimp
    17ac:	0000                	unimp
    17ae:	0100                	addi	s0,sp,128
    17b0:	6200                	ld	s0,0(a2)
	...
    17c2:	00ca                	slli	ra,ra,0x12
    17c4:	0000                	unimp
    17c6:	0000                	unimp
    17c8:	0000                	unimp
    17ca:	00ec                	addi	a1,sp,76
    17cc:	0000                	unimp
    17ce:	0000                	unimp
    17d0:	0000                	unimp
    17d2:	0001                	nop
    17d4:	ec5a                	sd	s6,24(sp)
    17d6:	0000                	unimp
    17d8:	0000                	unimp
    17da:	0000                	unimp
    17dc:	3a00                	fld	fs0,48(a2)
    17de:	0001                	nop
    17e0:	0000                	unimp
    17e2:	0000                	unimp
    17e4:	0100                	addi	s0,sp,128
    17e6:	6700                	ld	s0,8(a4)
    17e8:	013a                	slli	sp,sp,0xe
    17ea:	0000                	unimp
    17ec:	0000                	unimp
    17ee:	0000                	unimp
    17f0:	013e                	slli	sp,sp,0xf
    17f2:	0000                	unimp
    17f4:	0000                	unimp
    17f6:	0000                	unimp
    17f8:	0001                	nop
    17fa:	005a                	c.slli	zero,0x16
	...
    1808:	0000                	unimp
    180a:	ca00                	sw	s0,16(a2)
    180c:	0000                	unimp
    180e:	0000                	unimp
    1810:	0000                	unimp
    1812:	ec00                	sd	s0,24(s0)
    1814:	0000                	unimp
    1816:	0000                	unimp
    1818:	0000                	unimp
    181a:	0100                	addi	s0,sp,128
    181c:	5b00                	lw	s0,48(a4)
    181e:	00ec                	addi	a1,sp,76
    1820:	0000                	unimp
    1822:	0000                	unimp
    1824:	0000                	unimp
    1826:	013e                	slli	sp,sp,0xf
    1828:	0000                	unimp
    182a:	0000                	unimp
    182c:	0000                	unimp
    182e:	0004                	0x4
    1830:	9f5b01f3          	0x9f5b01f3
	...
    1844:	00e4                	addi	s1,sp,76
    1846:	0000                	unimp
    1848:	0000                	unimp
    184a:	0000                	unimp
    184c:	00ec                	addi	a1,sp,76
    184e:	0000                	unimp
    1850:	0000                	unimp
    1852:	0000                	unimp
    1854:	0002                	c.slli64	zero
    1856:	9f30                	0x9f30
    1858:	00ec                	addi	a1,sp,76
    185a:	0000                	unimp
    185c:	0000                	unimp
    185e:	0000                	unimp
    1860:	0108                	addi	a0,sp,128
    1862:	0000                	unimp
    1864:	0000                	unimp
    1866:	0000                	unimp
    1868:	0001                	nop
    186a:	00010863          	beqz	sp,187a <__BSS_END__+0x382>
    186e:	0000                	unimp
    1870:	0000                	unimp
    1872:	1800                	addi	s0,sp,48
    1874:	0001                	nop
    1876:	0000                	unimp
    1878:	0000                	unimp
    187a:	0300                	addi	s0,sp,384
    187c:	8300                	0x8300
    187e:	9f01                	subw	a4,a4,s0
    1880:	011e                	slli	sp,sp,0x7
    1882:	0000                	unimp
    1884:	0000                	unimp
    1886:	0000                	unimp
    1888:	0120                	addi	s0,sp,136
    188a:	0000                	unimp
    188c:	0000                	unimp
    188e:	0000                	unimp
    1890:	01830003          	lb	zero,24(t1) # ffffffffffff9018 <__global_pointer$+0xffffffffffff73b0>
    1894:	209f 0001 0000      	0x1209f
    189a:	0000                	unimp
    189c:	2200                	fld	fs0,0(a2)
    189e:	0001                	nop
    18a0:	0000                	unimp
    18a2:	0000                	unimp
    18a4:	0100                	addi	s0,sp,128
    18a6:	6300                	ld	s0,0(a4)
	...
    18b8:	0104                	addi	s1,sp,128
    18ba:	0000                	unimp
    18bc:	0000                	unimp
    18be:	0000                	unimp
    18c0:	0120                	addi	s0,sp,136
    18c2:	0000                	unimp
    18c4:	0000                	unimp
    18c6:	0000                	unimp
    18c8:	0001                	nop
    18ca:	005a                	c.slli	zero,0x16
	...
    18d8:	0000                	unimp
    18da:	a000                	fsd	fs0,0(s0)
    18dc:	0000                	unimp
    18de:	0000                	unimp
    18e0:	0000                	unimp
    18e2:	b200                	fsd	fs0,32(a2)
    18e4:	0000                	unimp
    18e6:	0000                	unimp
    18e8:	0000                	unimp
    18ea:	0100                	addi	s0,sp,128
    18ec:	5a00                	lw	s0,48(a2)
    18ee:	00b2                	slli	ra,ra,0xc
    18f0:	0000                	unimp
    18f2:	0000                	unimp
    18f4:	0000                	unimp
    18f6:	00c0                	addi	s0,sp,68
    18f8:	0000                	unimp
    18fa:	0000                	unimp
    18fc:	0000                	unimp
    18fe:	0001                	nop
    1900:	c65a                	sw	s6,12(sp)
    1902:	0000                	unimp
    1904:	0000                	unimp
    1906:	0000                	unimp
    1908:	c800                	sw	s0,16(s0)
    190a:	0000                	unimp
    190c:	0000                	unimp
    190e:	0000                	unimp
    1910:	0100                	addi	s0,sp,128
    1912:	5a00                	lw	s0,48(a2)
    1914:	00c8                	addi	a0,sp,68
    1916:	0000                	unimp
    1918:	0000                	unimp
    191a:	0000                	unimp
    191c:	00ca                	slli	ra,ra,0x12
    191e:	0000                	unimp
    1920:	0000                	unimp
    1922:	0000                	unimp
    1924:	0004                	0x4
    1926:	9f5a01f3          	0x9f5a01f3
	...
    193a:	0080                	addi	s0,sp,64
    193c:	0000                	unimp
    193e:	0000                	unimp
    1940:	0000                	unimp
    1942:	0090                	addi	a2,sp,64
    1944:	0000                	unimp
    1946:	0000                	unimp
    1948:	0000                	unimp
    194a:	0002                	c.slli64	zero
    194c:	9f30                	0x9f30
    194e:	0090                	addi	a2,sp,64
    1950:	0000                	unimp
    1952:	0000                	unimp
    1954:	0000                	unimp
    1956:	0094                	addi	a3,sp,64
    1958:	0000                	unimp
    195a:	0000                	unimp
    195c:	0000                	unimp
    195e:	0006                	c.slli	zero,0x1
    1960:	007f                	0x7f
    1962:	007a                	c.slli	zero,0x1e
    1964:	9f1c                	0x9f1c
    1966:	0094                	addi	a3,sp,64
    1968:	0000                	unimp
    196a:	0000                	unimp
    196c:	0000                	unimp
    196e:	0096                	slli	ra,ra,0x5
    1970:	0000                	unimp
    1972:	0000                	unimp
    1974:	0000                	unimp
    1976:	0008                	0x8
    1978:	007f                	0x7f
    197a:	007a                	c.slli	zero,0x1e
    197c:	231c                	fld	fa5,0(a4)
    197e:	9f01                	subw	a4,a4,s0
	...
    1990:	0050                	addi	a2,sp,4
    1992:	0000                	unimp
    1994:	0000                	unimp
    1996:	0000                	unimp
    1998:	005e                	c.slli	zero,0x17
    199a:	0000                	unimp
    199c:	0000                	unimp
    199e:	0000                	unimp
    19a0:	0001                	nop
    19a2:	5e5a                	lw	t3,180(sp)
    19a4:	0000                	unimp
    19a6:	0000                	unimp
    19a8:	0000                	unimp
    19aa:	6400                	ld	s0,8(s0)
    19ac:	0000                	unimp
    19ae:	0000                	unimp
    19b0:	0000                	unimp
    19b2:	0300                	addi	s0,sp,384
    19b4:	7a00                	ld	s0,48(a2)
    19b6:	9f7f                	0x9f7f
    19b8:	0064                	addi	s1,sp,12
    19ba:	0000                	unimp
    19bc:	0000                	unimp
    19be:	0000                	unimp
    19c0:	0076                	c.slli	zero,0x1d
    19c2:	0000                	unimp
    19c4:	0000                	unimp
    19c6:	0000                	unimp
    19c8:	0004                	0x4
    19ca:	9f5a01f3          	0x9f5a01f3
    19ce:	0076                	c.slli	zero,0x1d
    19d0:	0000                	unimp
    19d2:	0000                	unimp
    19d4:	0000                	unimp
    19d6:	0078                	addi	a4,sp,12
    19d8:	0000                	unimp
    19da:	0000                	unimp
    19dc:	0000                	unimp
    19de:	0001                	nop
    19e0:	785a                	ld	a6,432(sp)
    19e2:	0000                	unimp
    19e4:	0000                	unimp
    19e6:	0000                	unimp
    19e8:	7a00                	ld	s0,48(a2)
    19ea:	0000                	unimp
    19ec:	0000                	unimp
    19ee:	0000                	unimp
    19f0:	0400                	addi	s0,sp,512
    19f2:	f300                	sd	s0,32(a4)
    19f4:	5a01                	li	s4,-32
    19f6:	009f 0000 0000      	0x9f
	...
    1a04:	0000                	unimp
    1a06:	5600                	lw	s0,40(a2)
    1a08:	0000                	unimp
    1a0a:	0000                	unimp
    1a0c:	0000                	unimp
    1a0e:	6400                	ld	s0,8(s0)
    1a10:	0000                	unimp
    1a12:	0000                	unimp
    1a14:	0000                	unimp
    1a16:	0200                	addi	s0,sp,256
    1a18:	3000                	fld	fs0,32(s0)
    1a1a:	649f 0000 0000      	0x649f
    1a20:	0000                	unimp
    1a22:	6800                	ld	s0,16(s0)
    1a24:	0000                	unimp
    1a26:	0000                	unimp
    1a28:	0000                	unimp
    1a2a:	0900                	addi	s0,sp,144
    1a2c:	7f00                	ld	s0,56(a4)
    1a2e:	f300                	sd	s0,32(a4)
    1a30:	5a01                	li	s4,-32
    1a32:	9f1c0123          	sb	a7,-1566(s8)
    1a36:	0068                	addi	a0,sp,12
    1a38:	0000                	unimp
    1a3a:	0000                	unimp
    1a3c:	0000                	unimp
    1a3e:	006a                	c.slli	zero,0x1a
    1a40:	0000                	unimp
    1a42:	0000                	unimp
    1a44:	0000                	unimp
    1a46:	0006                	c.slli	zero,0x1
    1a48:	007d                	c.nop	31
    1a4a:	007f                	0x7f
    1a4c:	9f22                	add	t5,t5,s0
    1a4e:	0076                	c.slli	zero,0x1d
    1a50:	0000                	unimp
    1a52:	0000                	unimp
    1a54:	0000                	unimp
    1a56:	007a                	c.slli	zero,0x1e
    1a58:	0000                	unimp
    1a5a:	0000                	unimp
    1a5c:	0000                	unimp
    1a5e:	0002                	c.slli64	zero
    1a60:	9f30                	0x9f30
	...
    1a72:	001c                	0x1c
    1a74:	0000                	unimp
    1a76:	0000                	unimp
    1a78:	0000                	unimp
    1a7a:	0032                	c.slli	zero,0xc
    1a7c:	0000                	unimp
    1a7e:	0000                	unimp
    1a80:	0000                	unimp
    1a82:	0001                	nop
    1a84:	325a                	fld	ft4,432(sp)
    1a86:	0000                	unimp
    1a88:	0000                	unimp
    1a8a:	0000                	unimp
    1a8c:	4600                	lw	s0,8(a2)
    1a8e:	0000                	unimp
    1a90:	0000                	unimp
    1a92:	0000                	unimp
    1a94:	0100                	addi	s0,sp,128
    1a96:	5a00                	lw	s0,48(a2)
	...
    1aa8:	001c                	0x1c
    1aaa:	0000                	unimp
    1aac:	0000                	unimp
    1aae:	0000                	unimp
    1ab0:	0034                	addi	a3,sp,8
    1ab2:	0000                	unimp
    1ab4:	0000                	unimp
    1ab6:	0000                	unimp
    1ab8:	0001                	nop
    1aba:	0000345b          	0x345b
    1abe:	0000                	unimp
    1ac0:	0000                	unimp
    1ac2:	5000                	lw	s0,32(s0)
    1ac4:	0000                	unimp
    1ac6:	0000                	unimp
    1ac8:	0000                	unimp
    1aca:	0100                	addi	s0,sp,128
    1acc:	5b00                	lw	s0,48(a4)
	...
    1ae6:	0008                	0x8
    1ae8:	0000                	unimp
    1aea:	0000                	unimp
    1aec:	0000                	unimp
    1aee:	0001                	nop
    1af0:	085a                	slli	a6,a6,0x16
    1af2:	0000                	unimp
    1af4:	0000                	unimp
    1af6:	0000                	unimp
    1af8:	1c00                	addi	s0,sp,560
    1afa:	0000                	unimp
    1afc:	0000                	unimp
    1afe:	0000                	unimp
    1b00:	0100                	addi	s0,sp,128
    1b02:	5f00                	lw	s0,56(a4)
	...
    1b1c:	000a                	c.slli	zero,0x2
    1b1e:	0000                	unimp
    1b20:	0000                	unimp
    1b22:	0000                	unimp
    1b24:	0001                	nop
    1b26:	00000a5b          	0xa5b
    1b2a:	0000                	unimp
    1b2c:	0000                	unimp
    1b2e:	1c00                	addi	s0,sp,560
    1b30:	0000                	unimp
    1b32:	0000                	unimp
    1b34:	0000                	unimp
    1b36:	0100                	addi	s0,sp,128
    1b38:	5b00                	lw	s0,48(a4)
	...
    1b4a:	02d6                	slli	t0,t0,0x15
    1b4c:	0000                	unimp
    1b4e:	0000                	unimp
    1b50:	0000                	unimp
    1b52:	02fc                	addi	a5,sp,332
    1b54:	0000                	unimp
    1b56:	0000                	unimp
    1b58:	0000                	unimp
    1b5a:	0001                	nop
    1b5c:	fc5a                	sd	s6,56(sp)
    1b5e:	0002                	c.slli64	zero
    1b60:	0000                	unimp
    1b62:	0000                	unimp
    1b64:	0300                	addi	s0,sp,384
    1b66:	00000003          	lb	zero,0(zero) # 0 <getcmd>
    1b6a:	0000                	unimp
    1b6c:	0100                	addi	s0,sp,128
    1b6e:	5b00                	lw	s0,48(a4)
    1b70:	00000303          	lb	t1,0(zero) # 0 <getcmd>
    1b74:	0000                	unimp
    1b76:	0000                	unimp
    1b78:	030c                	addi	a1,sp,384
    1b7a:	0000                	unimp
    1b7c:	0000                	unimp
    1b7e:	0000                	unimp
    1b80:	0004                	0x4
    1b82:	9f5a01f3          	0x9f5a01f3
	...
    1b96:	02a8                	addi	a0,sp,328
    1b98:	0000                	unimp
    1b9a:	0000                	unimp
    1b9c:	0000                	unimp
    1b9e:	02cd                	addi	t0,t0,19
    1ba0:	0000                	unimp
    1ba2:	0000                	unimp
    1ba4:	0000                	unimp
    1ba6:	0001                	nop
    1ba8:	cd5a                	sw	s6,152(sp)
    1baa:	0002                	c.slli64	zero
    1bac:	0000                	unimp
    1bae:	0000                	unimp
    1bb0:	d600                	sw	s0,40(a2)
    1bb2:	0002                	c.slli64	zero
    1bb4:	0000                	unimp
    1bb6:	0000                	unimp
    1bb8:	0400                	addi	s0,sp,512
    1bba:	f300                	sd	s0,32(a4)
    1bbc:	5a01                	li	s4,-32
    1bbe:	009f 0000 0000      	0x9f
	...
    1bcc:	0000                	unimp
    1bce:	a800                	fsd	fs0,16(s0)
    1bd0:	0002                	c.slli64	zero
    1bd2:	0000                	unimp
    1bd4:	0000                	unimp
    1bd6:	cd00                	sw	s0,24(a0)
    1bd8:	0002                	c.slli64	zero
    1bda:	0000                	unimp
    1bdc:	0000                	unimp
    1bde:	0100                	addi	s0,sp,128
    1be0:	5b00                	lw	s0,48(a4)
    1be2:	02cd                	addi	t0,t0,19
    1be4:	0000                	unimp
    1be6:	0000                	unimp
    1be8:	0000                	unimp
    1bea:	02d6                	slli	t0,t0,0x15
    1bec:	0000                	unimp
    1bee:	0000                	unimp
    1bf0:	0000                	unimp
    1bf2:	0004                	0x4
    1bf4:	9f5b01f3          	0x9f5b01f3
	...
    1c08:	00ce                	slli	ra,ra,0x13
    1c0a:	0000                	unimp
    1c0c:	0000                	unimp
    1c0e:	0000                	unimp
    1c10:	011c                	addi	a5,sp,128
    1c12:	0000                	unimp
    1c14:	0000                	unimp
    1c16:	0000                	unimp
    1c18:	0001                	nop
    1c1a:	1c5a                	slli	s8,s8,0x36
    1c1c:	0001                	nop
    1c1e:	0000                	unimp
    1c20:	0000                	unimp
    1c22:	a800                	fsd	fs0,16(s0)
    1c24:	0002                	c.slli64	zero
    1c26:	0000                	unimp
    1c28:	0000                	unimp
    1c2a:	0400                	addi	s0,sp,512
    1c2c:	f300                	sd	s0,32(a4)
    1c2e:	5a01                	li	s4,-32
    1c30:	009f 0000 0000      	0x9f
	...
    1c3e:	0000                	unimp
    1c40:	ce00                	sw	s0,24(a2)
    1c42:	0000                	unimp
    1c44:	0000                	unimp
    1c46:	0000                	unimp
    1c48:	1c00                	addi	s0,sp,560
    1c4a:	0001                	nop
    1c4c:	0000                	unimp
    1c4e:	0000                	unimp
    1c50:	0100                	addi	s0,sp,128
    1c52:	5b00                	lw	s0,48(a4)
    1c54:	011c                	addi	a5,sp,128
    1c56:	0000                	unimp
    1c58:	0000                	unimp
    1c5a:	0000                	unimp
    1c5c:	02a8                	addi	a0,sp,328
    1c5e:	0000                	unimp
    1c60:	0000                	unimp
    1c62:	0000                	unimp
    1c64:	0004                	0x4
    1c66:	9f5b01f3          	0x9f5b01f3
	...
    1c7a:	00ce                	slli	ra,ra,0x13
    1c7c:	0000                	unimp
    1c7e:	0000                	unimp
    1c80:	0000                	unimp
    1c82:	011c                	addi	a5,sp,128
    1c84:	0000                	unimp
    1c86:	0000                	unimp
    1c88:	0000                	unimp
    1c8a:	0001                	nop
    1c8c:	1c5c                	addi	a5,sp,564
    1c8e:	0001                	nop
    1c90:	0000                	unimp
    1c92:	0000                	unimp
    1c94:	8c00                	0x8c00
    1c96:	0001                	nop
    1c98:	0000                	unimp
    1c9a:	0000                	unimp
    1c9c:	0100                	addi	s0,sp,128
    1c9e:	6600                	ld	s0,8(a2)
    1ca0:	018c                	addi	a1,sp,192
    1ca2:	0000                	unimp
    1ca4:	0000                	unimp
    1ca6:	0000                	unimp
    1ca8:	01a4                	addi	s1,sp,200
    1caa:	0000                	unimp
    1cac:	0000                	unimp
    1cae:	0000                	unimp
    1cb0:	0001                	nop
    1cb2:	a459                	j	1f38 <__global_pointer$+0x2d0>
    1cb4:	0001                	nop
    1cb6:	0000                	unimp
    1cb8:	0000                	unimp
    1cba:	a800                	fsd	fs0,16(s0)
    1cbc:	0001                	nop
    1cbe:	0000                	unimp
    1cc0:	0000                	unimp
    1cc2:	0100                	addi	s0,sp,128
    1cc4:	6600                	ld	s0,8(a2)
    1cc6:	01a8                	addi	a0,sp,200
    1cc8:	0000                	unimp
    1cca:	0000                	unimp
    1ccc:	0000                	unimp
    1cce:	01c0                	addi	s0,sp,196
    1cd0:	0000                	unimp
    1cd2:	0000                	unimp
    1cd4:	0000                	unimp
    1cd6:	0001                	nop
    1cd8:	c059                	beqz	s0,1d5e <__global_pointer$+0xf6>
    1cda:	0001                	nop
    1cdc:	0000                	unimp
    1cde:	0000                	unimp
    1ce0:	c400                	sw	s0,8(s0)
    1ce2:	0001                	nop
    1ce4:	0000                	unimp
    1ce6:	0000                	unimp
    1ce8:	0100                	addi	s0,sp,128
    1cea:	6600                	ld	s0,8(a2)
    1cec:	01c4                	addi	s1,sp,196
    1cee:	0000                	unimp
    1cf0:	0000                	unimp
    1cf2:	0000                	unimp
    1cf4:	01dc                	addi	a5,sp,196
    1cf6:	0000                	unimp
    1cf8:	0000                	unimp
    1cfa:	0000                	unimp
    1cfc:	0001                	nop
    1cfe:	dc59                	beqz	s0,1c9c <__global_pointer$+0x34>
    1d00:	0001                	nop
    1d02:	0000                	unimp
    1d04:	0000                	unimp
    1d06:	e400                	sd	s0,8(s0)
    1d08:	0001                	nop
    1d0a:	0000                	unimp
    1d0c:	0000                	unimp
    1d0e:	0100                	addi	s0,sp,128
    1d10:	6600                	ld	s0,8(a2)
    1d12:	01e4                	addi	s1,sp,204
    1d14:	0000                	unimp
    1d16:	0000                	unimp
    1d18:	0000                	unimp
    1d1a:	01f5                	addi	gp,gp,29
    1d1c:	0000                	unimp
    1d1e:	0000                	unimp
    1d20:	0000                	unimp
    1d22:	0001                	nop
    1d24:	f55f 0001 0000      	0x1f55f
    1d2a:	0000                	unimp
    1d2c:	2600                	fld	fs0,8(a2)
    1d2e:	0002                	c.slli64	zero
    1d30:	0000                	unimp
    1d32:	0000                	unimp
    1d34:	0300                	addi	s0,sp,384
    1d36:	7800                	ld	s0,48(s0)
    1d38:	7f88                	ld	a0,56(a5)
    1d3a:	0226                	slli	tp,tp,0x9
    1d3c:	0000                	unimp
    1d3e:	0000                	unimp
    1d40:	0000                	unimp
    1d42:	022a                	slli	tp,tp,0xa
    1d44:	0000                	unimp
    1d46:	0000                	unimp
    1d48:	0000                	unimp
    1d4a:	0001                	nop
    1d4c:	2a66                	fld	fs4,88(sp)
    1d4e:	0002                	c.slli64	zero
    1d50:	0000                	unimp
    1d52:	0000                	unimp
    1d54:	4c00                	lw	s0,24(s0)
    1d56:	0002                	c.slli64	zero
    1d58:	0000                	unimp
    1d5a:	0000                	unimp
    1d5c:	0100                	addi	s0,sp,128
    1d5e:	6300                	ld	s0,0(a4)
    1d60:	024c                	addi	a1,sp,260
    1d62:	0000                	unimp
    1d64:	0000                	unimp
    1d66:	0000                	unimp
    1d68:	024e                	slli	tp,tp,0x13
    1d6a:	0000                	unimp
    1d6c:	0000                	unimp
    1d6e:	0000                	unimp
    1d70:	0001                	nop
    1d72:	4e66                	lw	t3,88(sp)
    1d74:	0002                	c.slli64	zero
    1d76:	0000                	unimp
    1d78:	0000                	unimp
    1d7a:	5c00                	lw	s0,56(s0)
    1d7c:	0002                	c.slli64	zero
    1d7e:	0000                	unimp
    1d80:	0000                	unimp
    1d82:	0100                	addi	s0,sp,128
    1d84:	6300                	ld	s0,0(a4)
    1d86:	025c                	addi	a5,sp,260
    1d88:	0000                	unimp
    1d8a:	0000                	unimp
    1d8c:	0000                	unimp
    1d8e:	0260                	addi	s0,sp,268
    1d90:	0000                	unimp
    1d92:	0000                	unimp
    1d94:	0000                	unimp
    1d96:	0001                	nop
    1d98:	6066                	0x6066
    1d9a:	0002                	c.slli64	zero
    1d9c:	0000                	unimp
    1d9e:	0000                	unimp
    1da0:	7400                	ld	s0,40(s0)
    1da2:	0002                	c.slli64	zero
    1da4:	0000                	unimp
    1da6:	0000                	unimp
    1da8:	0100                	addi	s0,sp,128
    1daa:	5900                	lw	s0,48(a0)
    1dac:	0274                	addi	a3,sp,268
    1dae:	0000                	unimp
    1db0:	0000                	unimp
    1db2:	0000                	unimp
    1db4:	0284                	addi	s1,sp,320
    1db6:	0000                	unimp
    1db8:	0000                	unimp
    1dba:	0000                	unimp
    1dbc:	0001                	nop
    1dbe:	8466                	mv	s0,s9
    1dc0:	0002                	c.slli64	zero
    1dc2:	0000                	unimp
    1dc4:	0000                	unimp
    1dc6:	8800                	0x8800
    1dc8:	0002                	c.slli64	zero
    1dca:	0000                	unimp
    1dcc:	0000                	unimp
    1dce:	0100                	addi	s0,sp,128
    1dd0:	6300                	ld	s0,0(a4)
    1dd2:	0288                	addi	a0,sp,320
    1dd4:	0000                	unimp
    1dd6:	0000                	unimp
    1dd8:	0000                	unimp
    1dda:	028a                	slli	t0,t0,0x2
    1ddc:	0000                	unimp
    1dde:	0000                	unimp
    1de0:	0000                	unimp
    1de2:	0001                	nop
    1de4:	0066                	c.slli	zero,0x19
	...
    1df2:	0000                	unimp
    1df4:	3000                	fld	fs0,32(s0)
    1df6:	0002                	c.slli64	zero
    1df8:	0000                	unimp
    1dfa:	0000                	unimp
    1dfc:	4e00                	lw	s0,24(a2)
    1dfe:	0002                	c.slli64	zero
    1e00:	0000                	unimp
    1e02:	0000                	unimp
    1e04:	0100                	addi	s0,sp,128
    1e06:	5900                	lw	s0,48(a0)
    1e08:	0284                	addi	s1,sp,320
    1e0a:	0000                	unimp
    1e0c:	0000                	unimp
    1e0e:	0000                	unimp
    1e10:	028a                	slli	t0,t0,0x2
    1e12:	0000                	unimp
    1e14:	0000                	unimp
    1e16:	0000                	unimp
    1e18:	0001                	nop
    1e1a:	0059                	c.nop	22
	...
    1e28:	0000                	unimp
    1e2a:	1c00                	addi	s0,sp,560
    1e2c:	0001                	nop
    1e2e:	0000                	unimp
    1e30:	0000                	unimp
    1e32:	2700                	fld	fs0,8(a4)
    1e34:	0001                	nop
    1e36:	0000                	unimp
    1e38:	0000                	unimp
    1e3a:	0100                	addi	s0,sp,128
    1e3c:	5f00                	lw	s0,56(a4)
    1e3e:	00000127          	0x127
    1e42:	0000                	unimp
    1e44:	0000                	unimp
    1e46:	012a                	slli	sp,sp,0xa
    1e48:	0000                	unimp
    1e4a:	0000                	unimp
    1e4c:	0000                	unimp
    1e4e:	0001                	nop
    1e50:	2a59                	addiw	s4,s4,22
    1e52:	0001                	nop
    1e54:	0000                	unimp
    1e56:	0000                	unimp
    1e58:	2e00                	fld	fs0,24(a2)
    1e5a:	0001                	nop
    1e5c:	0000                	unimp
    1e5e:	0000                	unimp
    1e60:	0100                	addi	s0,sp,128
    1e62:	5f00                	lw	s0,56(a4)
    1e64:	013c                	addi	a5,sp,136
    1e66:	0000                	unimp
    1e68:	0000                	unimp
    1e6a:	0000                	unimp
    1e6c:	00000177          	0x177
    1e70:	0000                	unimp
    1e72:	0000                	unimp
    1e74:	0001                	nop
    1e76:	775f 0001 0000      	0x1775f
    1e7c:	0000                	unimp
    1e7e:	8800                	0x8800
    1e80:	0001                	nop
    1e82:	0000                	unimp
    1e84:	0000                	unimp
    1e86:	0100                	addi	s0,sp,128
    1e88:	5900                	lw	s0,48(a0)
    1e8a:	0188                	addi	a0,sp,192
    1e8c:	0000                	unimp
    1e8e:	0000                	unimp
    1e90:	0000                	unimp
    1e92:	019d                	addi	gp,gp,7
    1e94:	0000                	unimp
    1e96:	0000                	unimp
    1e98:	0000                	unimp
    1e9a:	0001                	nop
    1e9c:	a45f 0001 0000      	0x1a45f
    1ea2:	0000                	unimp
    1ea4:	b900                	fsd	fs0,48(a0)
    1ea6:	0001                	nop
    1ea8:	0000                	unimp
    1eaa:	0000                	unimp
    1eac:	0100                	addi	s0,sp,128
    1eae:	5f00                	lw	s0,56(a4)
    1eb0:	01c0                	addi	s0,sp,196
    1eb2:	0000                	unimp
    1eb4:	0000                	unimp
    1eb6:	0000                	unimp
    1eb8:	01d5                	addi	gp,gp,21
    1eba:	0000                	unimp
    1ebc:	0000                	unimp
    1ebe:	0000                	unimp
    1ec0:	0001                	nop
    1ec2:	dc5f 0001 0000      	0x1dc5f
    1ec8:	0000                	unimp
    1eca:	e000                	sd	s0,0(s0)
    1ecc:	0001                	nop
    1ece:	0000                	unimp
    1ed0:	0000                	unimp
    1ed2:	0100                	addi	s0,sp,128
    1ed4:	5f00                	lw	s0,56(a4)
    1ed6:	01e0                	addi	s0,sp,204
    1ed8:	0000                	unimp
    1eda:	0000                	unimp
    1edc:	0000                	unimp
    1ede:	0204                	addi	s1,sp,256
    1ee0:	0000                	unimp
    1ee2:	0000                	unimp
    1ee4:	0000                	unimp
    1ee6:	0001                	nop
    1ee8:	2659                	addiw	a2,a2,22
    1eea:	0002                	c.slli64	zero
    1eec:	0000                	unimp
    1eee:	0000                	unimp
    1ef0:	3600                	fld	fs0,40(a2)
    1ef2:	0002                	c.slli64	zero
    1ef4:	0000                	unimp
    1ef6:	0000                	unimp
    1ef8:	0100                	addi	s0,sp,128
    1efa:	5f00                	lw	s0,56(a4)
    1efc:	024e                	slli	tp,tp,0x13
    1efe:	0000                	unimp
    1f00:	0000                	unimp
    1f02:	0000                	unimp
    1f04:	026d                	addi	tp,tp,27
    1f06:	0000                	unimp
    1f08:	0000                	unimp
    1f0a:	0000                	unimp
    1f0c:	0001                	nop
    1f0e:	745f 0002 0000      	0x2745f
    1f14:	0000                	unimp
    1f16:	7f00                	ld	s0,56(a4)
    1f18:	0002                	c.slli64	zero
    1f1a:	0000                	unimp
    1f1c:	0000                	unimp
    1f1e:	0100                	addi	s0,sp,128
    1f20:	5f00                	lw	s0,56(a4)
    1f22:	027f                	0x27f
    1f24:	0000                	unimp
    1f26:	0000                	unimp
    1f28:	0000                	unimp
    1f2a:	0284                	addi	s1,sp,320
    1f2c:	0000                	unimp
    1f2e:	0000                	unimp
    1f30:	0000                	unimp
    1f32:	0001                	nop
    1f34:	8459                	srai	s0,s0,0x16
    1f36:	0002                	c.slli64	zero
    1f38:	0000                	unimp
    1f3a:	0000                	unimp
    1f3c:	8a00                	0x8a00
    1f3e:	0002                	c.slli64	zero
    1f40:	0000                	unimp
    1f42:	0000                	unimp
    1f44:	0100                	addi	s0,sp,128
    1f46:	5f00                	lw	s0,56(a4)
	...
    1f58:	00ec                	addi	a1,sp,76
    1f5a:	0000                	unimp
    1f5c:	0000                	unimp
    1f5e:	0000                	unimp
    1f60:	011c                	addi	a5,sp,128
    1f62:	0000                	unimp
    1f64:	0000                	unimp
    1f66:	0000                	unimp
    1f68:	0002                	c.slli64	zero
    1f6a:	9f30                	0x9f30
    1f6c:	011c                	addi	a5,sp,128
    1f6e:	0000                	unimp
    1f70:	0000                	unimp
    1f72:	0000                	unimp
    1f74:	012e                	slli	sp,sp,0xb
    1f76:	0000                	unimp
    1f78:	0000                	unimp
    1f7a:	0000                	unimp
    1f7c:	0009                	c.nop	2
    1f7e:	0082                	c.slli64	ra
    1f80:	235b01f3          	0x235b01f3
    1f84:	1c01                	addi	s8,s8,-32
    1f86:	2e9f 0001 0000      	0x12e9f
    1f8c:	0000                	unimp
    1f8e:	3000                	fld	fs0,32(s0)
    1f90:	0001                	nop
    1f92:	0000                	unimp
    1f94:	0000                	unimp
    1f96:	0b00                	addi	s0,sp,400
    1f98:	8200                	0x8200
    1f9a:	f300                	sd	s0,32(a4)
    1f9c:	5b01                	li	s6,-32
    1f9e:	231c0123          	sb	a7,546(s8)
    1fa2:	9f01                	subw	a4,a4,s0
    1fa4:	0138                	addi	a4,sp,136
    1fa6:	0000                	unimp
    1fa8:	0000                	unimp
    1faa:	0000                	unimp
    1fac:	028a                	slli	t0,t0,0x2
    1fae:	0000                	unimp
    1fb0:	0000                	unimp
    1fb2:	0000                	unimp
    1fb4:	0009                	c.nop	2
    1fb6:	0082                	c.slli64	ra
    1fb8:	235b01f3          	0x235b01f3
    1fbc:	1c01                	addi	s8,s8,-32
    1fbe:	009f 0000 0000      	0x9f
	...
    1fcc:	0000                	unimp
    1fce:	ec00                	sd	s0,24(s0)
    1fd0:	0000                	unimp
    1fd2:	0000                	unimp
    1fd4:	0000                	unimp
    1fd6:	2a00                	fld	fs0,16(a2)
    1fd8:	0001                	nop
    1fda:	0000                	unimp
    1fdc:	0000                	unimp
    1fde:	0200                	addi	s0,sp,256
    1fe0:	3000                	fld	fs0,32(s0)
    1fe2:	2a9f 0001 0000      	0x12a9f
    1fe8:	0000                	unimp
    1fea:	4000                	lw	s0,0(s0)
    1fec:	0001                	nop
    1fee:	0000                	unimp
    1ff0:	0000                	unimp
    1ff2:	0100                	addi	s0,sp,128
    1ff4:	6300                	ld	s0,0(a4)
    1ff6:	0140                	addi	s0,sp,132
    1ff8:	0000                	unimp
    1ffa:	0000                	unimp
    1ffc:	0000                	unimp
    1ffe:	0148                	addi	a0,sp,132
    2000:	0000                	unimp
    2002:	0000                	unimp
    2004:	0000                	unimp
    2006:	0002                	c.slli64	zero
    2008:	9f30                	0x9f30
    200a:	0148                	addi	a0,sp,132
    200c:	0000                	unimp
    200e:	0000                	unimp
    2010:	0000                	unimp
    2012:	0186                	slli	gp,gp,0x1
    2014:	0000                	unimp
    2016:	0000                	unimp
    2018:	0000                	unimp
    201a:	0001                	nop
    201c:	00018863          	beqz	gp,202c <__global_pointer$+0x3c4>
    2020:	0000                	unimp
    2022:	0000                	unimp
    2024:	a200                	fsd	fs0,0(a2)
    2026:	0001                	nop
    2028:	0000                	unimp
    202a:	0000                	unimp
    202c:	0100                	addi	s0,sp,128
    202e:	6300                	ld	s0,0(a4)
    2030:	01a4                	addi	s1,sp,200
    2032:	0000                	unimp
    2034:	0000                	unimp
    2036:	0000                	unimp
    2038:	01be                	slli	gp,gp,0xf
    203a:	0000                	unimp
    203c:	0000                	unimp
    203e:	0000                	unimp
    2040:	0001                	nop
    2042:	0001c063          	bltz	gp,2042 <__global_pointer$+0x3da>
    2046:	0000                	unimp
    2048:	0000                	unimp
    204a:	da00                	sw	s0,48(a2)
    204c:	0001                	nop
    204e:	0000                	unimp
    2050:	0000                	unimp
    2052:	0100                	addi	s0,sp,128
    2054:	6300                	ld	s0,0(a4)
    2056:	01dc                	addi	a5,sp,196
    2058:	0000                	unimp
    205a:	0000                	unimp
    205c:	0000                	unimp
    205e:	01e8                	addi	a0,sp,204
    2060:	0000                	unimp
    2062:	0000                	unimp
    2064:	0000                	unimp
    2066:	0001                	nop
    2068:	00022663          	0x22663
    206c:	0000                	unimp
    206e:	0000                	unimp
    2070:	2a00                	fld	fs0,16(a2)
    2072:	0002                	c.slli64	zero
    2074:	0000                	unimp
    2076:	0000                	unimp
    2078:	0100                	addi	s0,sp,128
    207a:	6300                	ld	s0,0(a4)
    207c:	025c                	addi	a5,sp,260
    207e:	0000                	unimp
    2080:	0000                	unimp
    2082:	0000                	unimp
    2084:	0272                	slli	tp,tp,0x1c
    2086:	0000                	unimp
    2088:	0000                	unimp
    208a:	0000                	unimp
    208c:	0001                	nop
    208e:	00027463          	bgeu	tp,zero,2096 <__global_pointer$+0x42e>
    2092:	0000                	unimp
    2094:	0000                	unimp
    2096:	8200                	0x8200
    2098:	0002                	c.slli64	zero
    209a:	0000                	unimp
    209c:	0000                	unimp
    209e:	0100                	addi	s0,sp,128
    20a0:	6300                	ld	s0,0(a4)
	...
    20b2:	0202                	c.slli64	tp
    20b4:	0000                	unimp
    20b6:	0000                	unimp
    20b8:	0000                	unimp
    20ba:	0224                	addi	s1,sp,264
    20bc:	0000                	unimp
    20be:	0000                	unimp
    20c0:	0000                	unimp
    20c2:	0001                	nop
    20c4:	00000063          	beqz	zero,20c4 <__global_pointer$+0x45c>
	...
    20d4:	e800                	sd	s0,16(s0)
    20d6:	0001                	nop
    20d8:	0000                	unimp
    20da:	0000                	unimp
    20dc:	2600                	fld	fs0,8(a2)
    20de:	0002                	c.slli64	zero
    20e0:	0000                	unimp
    20e2:	0000                	unimp
    20e4:	0100                	addi	s0,sp,128
    20e6:	6500                	ld	s0,8(a0)
	...
    20f8:	0202                	c.slli64	tp
    20fa:	0000                	unimp
    20fc:	0000                	unimp
    20fe:	0000                	unimp
    2100:	0204                	addi	s1,sp,256
    2102:	0000                	unimp
    2104:	0000                	unimp
    2106:	0000                	unimp
    2108:	0002                	c.slli64	zero
    210a:	9f30                	0x9f30
    210c:	0204                	addi	s1,sp,256
    210e:	0000                	unimp
    2110:	0000                	unimp
    2112:	0000                	unimp
    2114:	0218                	addi	a4,sp,256
    2116:	0000                	unimp
    2118:	0000                	unimp
    211a:	0000                	unimp
    211c:	0005                	c.nop	1
    211e:	7940                	ld	s0,176(a0)
    2120:	1c00                	addi	s0,sp,560
    2122:	189f 0002 0000      	0x2189f
    2128:	0000                	unimp
    212a:	1c00                	addi	s0,sp,560
    212c:	0002                	c.slli64	zero
    212e:	0000                	unimp
    2130:	0000                	unimp
    2132:	0500                	addi	s0,sp,640
    2134:	4100                	lw	s0,0(a0)
    2136:	0079                	c.nop	30
    2138:	9f1c                	0x9f1c
	...
    214a:	0022                	c.slli	zero,0x8
    214c:	0000                	unimp
    214e:	0000                	unimp
    2150:	0000                	unimp
    2152:	00ac                	addi	a1,sp,72
    2154:	0000                	unimp
    2156:	0000                	unimp
    2158:	0000                	unimp
    215a:	0001                	nop
    215c:	ac5a                	fsd	fs6,24(sp)
    215e:	0000                	unimp
    2160:	0000                	unimp
    2162:	0000                	unimp
    2164:	ce00                	sw	s0,24(a2)
    2166:	0000                	unimp
    2168:	0000                	unimp
    216a:	0000                	unimp
    216c:	0400                	addi	s0,sp,512
    216e:	f300                	sd	s0,32(a4)
    2170:	5a01                	li	s4,-32
    2172:	009f 0000 0000      	0x9f
	...
    2180:	0000                	unimp
    2182:	2200                	fld	fs0,0(a2)
    2184:	0000                	unimp
    2186:	0000                	unimp
    2188:	0000                	unimp
    218a:	3a00                	fld	fs0,48(a2)
    218c:	0000                	unimp
    218e:	0000                	unimp
    2190:	0000                	unimp
    2192:	0100                	addi	s0,sp,128
    2194:	5b00                	lw	s0,48(a4)
    2196:	003a                	c.slli	zero,0xe
    2198:	0000                	unimp
    219a:	0000                	unimp
    219c:	0000                	unimp
    219e:	004c                	addi	a1,sp,4
    21a0:	0000                	unimp
    21a2:	0000                	unimp
    21a4:	0000                	unimp
    21a6:	0004                	0x4
    21a8:	9f5b01f3          	0x9f5b01f3
    21ac:	004c                	addi	a1,sp,4
    21ae:	0000                	unimp
    21b0:	0000                	unimp
    21b2:	0000                	unimp
    21b4:	0050                	addi	a2,sp,4
    21b6:	0000                	unimp
    21b8:	0000                	unimp
    21ba:	0000                	unimp
    21bc:	0001                	nop
    21be:	0000505b          	0x505b
    21c2:	0000                	unimp
    21c4:	0000                	unimp
    21c6:	ce00                	sw	s0,24(a2)
    21c8:	0000                	unimp
    21ca:	0000                	unimp
    21cc:	0000                	unimp
    21ce:	0400                	addi	s0,sp,512
    21d0:	f300                	sd	s0,32(a4)
    21d2:	5b01                	li	s6,-32
    21d4:	009f 0000 0000      	0x9f
	...
    21e2:	0000                	unimp
    21e4:	2200                	fld	fs0,0(a2)
    21e6:	0000                	unimp
    21e8:	0000                	unimp
    21ea:	0000                	unimp
    21ec:	ac00                	fsd	fs0,24(s0)
    21ee:	0000                	unimp
    21f0:	0000                	unimp
    21f2:	0000                	unimp
    21f4:	0100                	addi	s0,sp,128
    21f6:	5c00                	lw	s0,56(s0)
    21f8:	00ac                	addi	a1,sp,72
    21fa:	0000                	unimp
    21fc:	0000                	unimp
    21fe:	0000                	unimp
    2200:	00ce                	slli	ra,ra,0x13
    2202:	0000                	unimp
    2204:	0000                	unimp
    2206:	0000                	unimp
    2208:	0004                	0x4
    220a:	9f5c01f3          	0x9f5c01f3
	...
    221e:	0022                	c.slli	zero,0x8
    2220:	0000                	unimp
    2222:	0000                	unimp
    2224:	0000                	unimp
    2226:	0054                	addi	a3,sp,4
    2228:	0000                	unimp
    222a:	0000                	unimp
    222c:	0000                	unimp
    222e:	0001                	nop
    2230:	545d                	li	s0,-9
    2232:	0000                	unimp
    2234:	0000                	unimp
    2236:	0000                	unimp
    2238:	ce00                	sw	s0,24(a2)
    223a:	0000                	unimp
    223c:	0000                	unimp
    223e:	0000                	unimp
    2240:	0400                	addi	s0,sp,512
    2242:	f300                	sd	s0,32(a4)
    2244:	5d01                	li	s10,-32
    2246:	009f 0000 0000      	0x9f
	...
    2254:	0000                	unimp
    2256:	3a00                	fld	fs0,48(a2)
    2258:	0000                	unimp
    225a:	0000                	unimp
    225c:	0000                	unimp
    225e:	4c00                	lw	s0,24(s0)
    2260:	0000                	unimp
    2262:	0000                	unimp
    2264:	0000                	unimp
    2266:	0200                	addi	s0,sp,256
    2268:	3000                	fld	fs0,32(s0)
    226a:	549f 0000 0000      	0x549f
    2270:	0000                	unimp
    2272:	5800                	lw	s0,48(s0)
    2274:	0000                	unimp
    2276:	0000                	unimp
    2278:	0000                	unimp
    227a:	0100                	addi	s0,sp,128
    227c:	5d00                	lw	s0,56(a0)
    227e:	0058                	addi	a4,sp,4
    2280:	0000                	unimp
    2282:	0000                	unimp
    2284:	0000                	unimp
    2286:	005c                	addi	a5,sp,4
    2288:	0000                	unimp
    228a:	0000                	unimp
    228c:	0000                	unimp
    228e:	0001                	nop
    2290:	5c60                	lw	s0,124(s0)
    2292:	0000                	unimp
    2294:	0000                	unimp
    2296:	0000                	unimp
    2298:	7c00                	ld	s0,56(s0)
    229a:	0000                	unimp
    229c:	0000                	unimp
    229e:	0000                	unimp
    22a0:	0100                	addi	s0,sp,128
    22a2:	5d00                	lw	s0,56(a0)
    22a4:	007c                	addi	a5,sp,12
    22a6:	0000                	unimp
    22a8:	0000                	unimp
    22aa:	0000                	unimp
    22ac:	008e                	slli	ra,ra,0x3
    22ae:	0000                	unimp
    22b0:	0000                	unimp
    22b2:	0000                	unimp
    22b4:	02800003          	lb	zero,40(zero) # 28 <getcmd+0x28>
    22b8:	8e9f 0000 0000      	0x8e9f
    22be:	0000                	unimp
    22c0:	a400                	fsd	fs0,8(s0)
    22c2:	0000                	unimp
    22c4:	0000                	unimp
    22c6:	0000                	unimp
    22c8:	0300                	addi	s0,sp,384
    22ca:	7d00                	ld	s0,56(a0)
    22cc:	9f7f                	0x9f7f
	...
    22de:	0030                	addi	a2,sp,8
    22e0:	0000                	unimp
    22e2:	0000                	unimp
    22e4:	0000                	unimp
    22e6:	003a                	c.slli	zero,0xe
    22e8:	0000                	unimp
    22ea:	0000                	unimp
    22ec:	0000                	unimp
    22ee:	0002                	c.slli64	zero
    22f0:	9f30                	0x9f30
    22f2:	003a                	c.slli	zero,0xe
    22f4:	0000                	unimp
    22f6:	0000                	unimp
    22f8:	0000                	unimp
    22fa:	004c                	addi	a1,sp,4
    22fc:	0000                	unimp
    22fe:	0000                	unimp
    2300:	0000                	unimp
    2302:	0001                	nop
    2304:	4c56                	lw	s8,84(sp)
    2306:	0000                	unimp
    2308:	0000                	unimp
    230a:	0000                	unimp
    230c:	5400                	lw	s0,40(s0)
    230e:	0000                	unimp
    2310:	0000                	unimp
    2312:	0000                	unimp
    2314:	0200                	addi	s0,sp,256
    2316:	3100                	fld	fs0,32(a0)
    2318:	549f 0000 0000      	0x549f
    231e:	0000                	unimp
    2320:	ac00                	fsd	fs0,24(s0)
    2322:	0000                	unimp
    2324:	0000                	unimp
    2326:	0000                	unimp
    2328:	0100                	addi	s0,sp,128
    232a:	5600                	lw	s0,40(a2)
	...
    233c:	0038                	addi	a4,sp,8
    233e:	0000                	unimp
    2340:	0000                	unimp
    2342:	0000                	unimp
    2344:	004c                	addi	a1,sp,4
    2346:	0000                	unimp
    2348:	0000                	unimp
    234a:	0000                	unimp
    234c:	0001                	nop
    234e:	0000505b          	0x505b
    2352:	0000                	unimp
    2354:	0000                	unimp
    2356:	5400                	lw	s0,40(s0)
    2358:	0000                	unimp
    235a:	0000                	unimp
    235c:	0000                	unimp
    235e:	0500                	addi	s0,sp,640
    2360:	f300                	sd	s0,32(a4)
    2362:	5b01                	li	s6,-32
    2364:	9f1f 0054 0000      	0x549f1f
    236a:	0000                	unimp
    236c:	0000                	unimp
    236e:	0056                	c.slli	zero,0x15
    2370:	0000                	unimp
    2372:	0000                	unimp
    2374:	0000                	unimp
    2376:	000c                	0xc
    2378:	2df7007b          	0x2df7007b
    237c:	007c                	addi	a5,sp,12
    237e:	f71b2df7          	0xf71b2df7
    2382:	9f00                	0x9f00
    2384:	0058                	addi	a4,sp,4
    2386:	0000                	unimp
    2388:	0000                	unimp
    238a:	0000                	unimp
    238c:	006e                	c.slli	zero,0x1b
    238e:	0000                	unimp
    2390:	0000                	unimp
    2392:	0000                	unimp
    2394:	0001                	nop
    2396:	00006e5b          	0x6e5b
    239a:	0000                	unimp
    239c:	0000                	unimp
    239e:	ac00                	fsd	fs0,24(s0)
    23a0:	0000                	unimp
    23a2:	0000                	unimp
    23a4:	0000                	unimp
    23a6:	0c00                	addi	s0,sp,528
    23a8:	7b00                	ld	s0,48(a4)
    23aa:	f700                	sd	s0,40(a4)
    23ac:	7c2d                	lui	s8,0xfffeb
    23ae:	f700                	sd	s0,40(a4)
    23b0:	1b2d                	addi	s6,s6,-21
    23b2:	009f00f7          	0x9f00f7
	...
    23ca:	0000                	unimp
    23cc:	1900                	addi	s0,sp,176
    23ce:	0000                	unimp
    23d0:	0000                	unimp
    23d2:	0000                	unimp
    23d4:	0100                	addi	s0,sp,128
    23d6:	5a00                	lw	s0,48(a2)
    23d8:	0019                	c.nop	6
    23da:	0000                	unimp
    23dc:	0000                	unimp
    23de:	0000                	unimp
    23e0:	0022                	c.slli	zero,0x8
    23e2:	0000                	unimp
    23e4:	0000                	unimp
    23e6:	0000                	unimp
    23e8:	0004                	0x4
    23ea:	9f5a01f3          	0x9f5a01f3
	...
    2406:	0012                	c.slli	zero,0x4
    2408:	0000                	unimp
    240a:	0000                	unimp
    240c:	0000                	unimp
    240e:	0001                	nop
    2410:	0000125b          	0x125b
    2414:	0000                	unimp
    2416:	0000                	unimp
    2418:	1900                	addi	s0,sp,176
    241a:	0000                	unimp
    241c:	0000                	unimp
    241e:	0000                	unimp
    2420:	0200                	addi	s0,sp,256
    2422:	7b00                	ld	s0,48(a4)
	...
    2434:	8a00                	0x8a00
    2436:	0000                	unimp
    2438:	0000                	unimp
    243a:	0000                	unimp
    243c:	bc00                	fsd	fs0,56(s0)
    243e:	0000                	unimp
    2440:	0000                	unimp
    2442:	0000                	unimp
    2444:	0100                	addi	s0,sp,128
    2446:	5a00                	lw	s0,48(a2)
    2448:	00bc                	addi	a5,sp,72
    244a:	0000                	unimp
    244c:	0000                	unimp
    244e:	0000                	unimp
    2450:	0170                	addi	a2,sp,140
    2452:	0000                	unimp
    2454:	0000                	unimp
    2456:	0000                	unimp
    2458:	0004                	0x4
    245a:	9f5a01f3          	0x9f5a01f3
	...
    246e:	00c0                	addi	s0,sp,68
    2470:	0000                	unimp
    2472:	0000                	unimp
    2474:	0000                	unimp
    2476:	00c6                	slli	ra,ra,0x11
    2478:	0000                	unimp
    247a:	0000                	unimp
    247c:	0000                	unimp
    247e:	0001                	nop
    2480:	fe5f 0000 0000      	0xfe5f
    2486:	0000                	unimp
    2488:	0000                	unimp
    248a:	0001                	nop
    248c:	0000                	unimp
    248e:	0000                	unimp
    2490:	0a00                	addi	s0,sp,272
    2492:	0300                	addi	s0,sp,384
    2494:	14e8                	addi	a0,sp,620
    2496:	0000                	unimp
    2498:	0000                	unimp
    249a:	0000                	unimp
    249c:	009f 0001 0000      	0x1009f
    24a2:	0000                	unimp
    24a4:	2200                	fld	fs0,0(a2)
    24a6:	0001                	nop
    24a8:	0000                	unimp
    24aa:	0000                	unimp
    24ac:	0100                	addi	s0,sp,128
    24ae:	5f00                	lw	s0,56(a4)
    24b0:	0136                	slli	sp,sp,0xd
    24b2:	0000                	unimp
    24b4:	0000                	unimp
    24b6:	0000                	unimp
    24b8:	013c                	addi	a5,sp,136
    24ba:	0000                	unimp
    24bc:	0000                	unimp
    24be:	0000                	unimp
    24c0:	0001                	nop
    24c2:	4c5f 0001 0000      	0x14c5f
    24c8:	0000                	unimp
    24ca:	5000                	lw	s0,32(s0)
    24cc:	0001                	nop
    24ce:	0000                	unimp
    24d0:	0000                	unimp
    24d2:	0100                	addi	s0,sp,128
    24d4:	5a00                	lw	s0,48(a2)
    24d6:	0150                	addi	a2,sp,132
    24d8:	0000                	unimp
    24da:	0000                	unimp
    24dc:	0000                	unimp
    24de:	00000167          	jalr	sp,zero # 0 <getcmd>
    24e2:	0000                	unimp
    24e4:	0000                	unimp
    24e6:	0001                	nop
    24e8:	005f 0000 0000      	0x5f
	...
    24f6:	0000                	unimp
    24f8:	bc00                	fsd	fs0,56(s0)
    24fa:	0000                	unimp
    24fc:	0000                	unimp
    24fe:	0000                	unimp
    2500:	c600                	sw	s0,8(a2)
    2502:	0000                	unimp
    2504:	0000                	unimp
    2506:	0000                	unimp
    2508:	0100                	addi	s0,sp,128
    250a:	5a00                	lw	s0,48(a2)
    250c:	00e8                	addi	a0,sp,76
    250e:	0000                	unimp
    2510:	0000                	unimp
    2512:	0000                	unimp
    2514:	0100                	addi	s0,sp,128
    2516:	0000                	unimp
    2518:	0000                	unimp
    251a:	0000                	unimp
    251c:	000a                	c.slli	zero,0x2
    251e:	0014e803          	lwu	a6,1(s1)
    2522:	0000                	unimp
    2524:	0000                	unimp
    2526:	9f00                	0x9f00
    2528:	0100                	addi	s0,sp,128
    252a:	0000                	unimp
    252c:	0000                	unimp
    252e:	0000                	unimp
    2530:	0122                	slli	sp,sp,0x8
    2532:	0000                	unimp
    2534:	0000                	unimp
    2536:	0000                	unimp
    2538:	0001                	nop
    253a:	365a                	fld	fa2,432(sp)
    253c:	0001                	nop
    253e:	0000                	unimp
    2540:	0000                	unimp
    2542:	3c00                	fld	fs0,56(s0)
    2544:	0001                	nop
    2546:	0000                	unimp
    2548:	0000                	unimp
    254a:	0100                	addi	s0,sp,128
    254c:	5a00                	lw	s0,48(a2)
    254e:	014e                	slli	sp,sp,0x13
    2550:	0000                	unimp
    2552:	0000                	unimp
    2554:	0000                	unimp
    2556:	0156                	slli	sp,sp,0x15
    2558:	0000                	unimp
    255a:	0000                	unimp
    255c:	0000                	unimp
    255e:	0001                	nop
    2560:	005a                	c.slli	zero,0x16
	...
    256e:	0000                	unimp
    2570:	b200                	fsd	fs0,32(a2)
    2572:	0000                	unimp
    2574:	0000                	unimp
    2576:	0000                	unimp
    2578:	2c00                	fld	fs0,24(s0)
    257a:	0001                	nop
    257c:	0000                	unimp
    257e:	0000                	unimp
    2580:	0100                	addi	s0,sp,128
    2582:	6300                	ld	s0,0(a4)
    2584:	0136                	slli	sp,sp,0xd
    2586:	0000                	unimp
    2588:	0000                	unimp
    258a:	0000                	unimp
    258c:	0170                	addi	a2,sp,140
    258e:	0000                	unimp
    2590:	0000                	unimp
    2592:	0000                	unimp
    2594:	0001                	nop
    2596:	00000063          	beqz	zero,2596 <__global_pointer$+0x92e>
	...
    25a6:	3c00                	fld	fs0,56(s0)
    25a8:	0001                	nop
    25aa:	0000                	unimp
    25ac:	0000                	unimp
    25ae:	4c00                	lw	s0,24(s0)
    25b0:	0001                	nop
    25b2:	0000                	unimp
    25b4:	0000                	unimp
    25b6:	1b00                	addi	s0,sp,432
    25b8:	8200                	0x8200
    25ba:	1200                	addi	s0,sp,288
    25bc:	ff0c                	sd	a1,56(a4)
    25be:	ffff                	0xffff
    25c0:	1aff                	0x1aff
    25c2:	000a                	c.slli	zero,0x2
    25c4:	1610                	addi	a2,sp,800
    25c6:	0c14                	addi	a3,sp,528
    25c8:	ffff                	0xffff
    25ca:	ffff                	0xffff
    25cc:	2b1a                	fld	fs6,384(sp)
    25ce:	0128                	addi	a0,sp,136
    25d0:	1600                	addi	s0,sp,800
    25d2:	015e9f13          	slli	t5,t4,0x15
    25d6:	0000                	unimp
    25d8:	0000                	unimp
    25da:	0000                	unimp
    25dc:	0170                	addi	a2,sp,140
    25de:	0000                	unimp
    25e0:	0000                	unimp
    25e2:	0000                	unimp
    25e4:	0082001b          	addiw	zero,tp,8
    25e8:	0c12                	slli	s8,s8,0x4
    25ea:	ffff                	0xffff
    25ec:	ffff                	0xffff
    25ee:	0a1a                	slli	s4,s4,0x6
    25f0:	1000                	addi	s0,sp,32
    25f2:	1416                	slli	s0,s0,0x25
    25f4:	ff0c                	sd	a1,56(a4)
    25f6:	ffff                	0xffff
    25f8:	1aff                	0x1aff
    25fa:	0001282b          	0x1282b
    25fe:	1316                	slli	t1,t1,0x25
    2600:	009f 0000 0000      	0x9f
	...
    260e:	0000                	unimp
    2610:	3c00                	fld	fs0,56(s0)
    2612:	0001                	nop
    2614:	0000                	unimp
    2616:	0000                	unimp
    2618:	4200                	lw	s0,0(a2)
    261a:	0001                	nop
    261c:	0000                	unimp
    261e:	0000                	unimp
    2620:	0100                	addi	s0,sp,128
    2622:	5a00                	lw	s0,48(a2)
    2624:	0142                	slli	sp,sp,0x10
    2626:	0000                	unimp
    2628:	0000                	unimp
    262a:	0000                	unimp
    262c:	0149                	addi	sp,sp,18
    262e:	0000                	unimp
    2630:	0000                	unimp
    2632:	0000                	unimp
    2634:	707a0003          	lb	zero,1799(s4) # ffffffffffffa707 <__global_pointer$+0xffffffffffff8a9f>
    2638:	689f 0001 0000      	0x1689f
    263e:	0000                	unimp
    2640:	6e00                	ld	s0,24(a2)
    2642:	0001                	nop
    2644:	0000                	unimp
    2646:	0000                	unimp
    2648:	0100                	addi	s0,sp,128
    264a:	5a00                	lw	s0,48(a2)
	...
    265c:	013c                	addi	a5,sp,136
    265e:	0000                	unimp
    2660:	0000                	unimp
    2662:	0000                	unimp
    2664:	0142                	slli	sp,sp,0x10
    2666:	0000                	unimp
    2668:	0000                	unimp
    266a:	0000                	unimp
    266c:	0001                	nop
    266e:	425a                	lw	tp,148(sp)
    2670:	0001                	nop
    2672:	0000                	unimp
    2674:	0000                	unimp
    2676:	4900                	lw	s0,16(a0)
    2678:	0001                	nop
    267a:	0000                	unimp
    267c:	0000                	unimp
    267e:	0300                	addi	s0,sp,384
    2680:	7a00                	ld	s0,48(a2)
    2682:	9f70                	0x9f70
	...

Disassembly of section .debug_ranges:

0000000000000000 <.debug_ranges>:
getcmd():
/home/one/xv6-labs-2020/user/sh.c:136
   0:	0112                	slli	sp,sp,0x4
   2:	0000                	unimp
   4:	0000                	unimp
   6:	0000                	unimp
   8:	011c                	addi	a5,sp,128
   a:	0000                	unimp
   c:	0000                	unimp
   e:	0000                	unimp
/home/one/xv6-labs-2020/user/sh.c:137
  10:	01e8                	addi	a0,sp,204
  12:	0000                	unimp
  14:	0000                	unimp
  16:	0000                	unimp
  18:	021e                	slli	tp,tp,0x7
	...
/home/one/xv6-labs-2020/user/sh.c:138
  2e:	0000                	unimp
/home/one/xv6-labs-2020/user/sh.c:139
  30:	00d8                	addi	a4,sp,68
  32:	0000                	unimp
  34:	0000                	unimp
  36:	0000                	unimp
  38:	00dc                	addi	a5,sp,68
  3a:	0000                	unimp
/home/one/xv6-labs-2020/user/sh.c:140
  3c:	0000                	unimp
  3e:	0000                	unimp
  40:	00e4                	addi	s1,sp,76
  42:	0000                	unimp
/home/one/xv6-labs-2020/user/sh.c:143
  44:	0000                	unimp
  46:	0000                	unimp
  48:	00e8                	addi	a0,sp,76
  4a:	0000                	unimp
  4c:	0000                	unimp
  4e:	0000                	unimp
  50:	013c                	addi	a5,sp,136
  52:	0000                	unimp
panic():
/home/one/xv6-labs-2020/user/sh.c:177
  54:	0000                	unimp
  56:	0000                	unimp
  58:	014c                	addi	a1,sp,132
  5a:	0000                	unimp
/home/one/xv6-labs-2020/user/sh.c:178
  5c:	0000                	unimp
  5e:	0000                	unimp
  60:	015e                	slli	sp,sp,0x17
  62:	0000                	unimp
  64:	0000                	unimp
  66:	0000                	unimp
  68:	016c                	addi	a1,sp,140
	...
